 zoomsdk

 Timestamp is 5e60841c (Thu Mar  5 12:46:20 2020)

 Preferred load address is 10000000

 Start         Length     Name                   Class
 0001:00000000 00013dc8H .text                   CODE
 0001:00013dd0 000015f3H .text$di                CODE
 0001:000153d0 000efbbdH .text$mn                CODE
 0001:00104f8d 00003454H .text$x                 CODE
 0001:001083f0 0000153eH .text$yd                CODE
 0002:00000000 00000104H .CRT$XCA                DATA
 0002:00000104 00000109H .CRT$XCC                DATA
 0002:00000210 000001cdH .CRT$XCU                DATA
 0002:000003e0 00000104H .CRT$XCZ                DATA
 0002:000004e4 00000104H .CRT$XIA                DATA
 0002:000005e8 00000118H .CRT$XIC                DATA
 0002:00000700 00000104H .CRT$XIZ                DATA
 0002:00000804 00000004H .CRT$XLA                DATA
 0002:00000808 00000004H .CRT$XLZ                DATA
 0002:0000080c 00000104H .CRT$XPA                DATA
 0002:00000910 00000104H .CRT$XPB                DATA
 0002:00000a14 00000109H .CRT$XPX                DATA
 0002:00000b20 00000104H .CRT$XPXA               DATA
 0002:00000c24 00000104H .CRT$XPZ                DATA
 0002:00000d28 00000104H .CRT$XTA                DATA
 0002:00000e2c 00000104H .CRT$XTZ                DATA
 0002:00000f30 00011a90H .rdata                  DATA
 0002:000129c0 0000011cH .rdata$T                DATA
 0002:00012adc 00003497H .rdata$r                DATA
 0002:00015f80 000004a3H .rdata$sxdata           DATA
 0002:00016428 00000113H .rdata$zETW0            DATA
 0002:0001653b 0000018eH .rdata$zETW1            DATA
 0002:000166c9 00000134H .rdata$zETW2            DATA
 0002:000167fd 00000101H .rdata$zETW9            DATA
 0002:00016900 000001acH .rdata$zzzdbg           DATA
 0002:00016aac 00000104H .rtc$IAA                DATA
 0002:00016bb0 00000104H .rtc$IZZ                DATA
 0002:00016cb4 00000104H .rtc$TAA                DATA
 0002:00016db8 00000104H .rtc$TZZ                DATA
 0002:00016ec0 000043e0H .xdata$x                DATA
 0002:0001b2a0 00000162H .edata                  DATA
 0003:00000000 00000d10H .data                   DATA
 0003:00000d10 00002098H .data$r                 DATA
 0003:00002da8 00003d6cH .bss                    DATA
 0004:00000000 000002f0H .idata$5                DATA
 0004:000002f0 0000003cH .idata$2                DATA
 0004:0000032c 00000014H .idata$3                DATA
 0004:00000340 000002f0H .idata$4                DATA
 0004:00000630 00000c32H .idata$6                DATA
 0005:00000000 00000020H .didat$2                DATA
 0005:00000020 00000020H .didat$3                DATA
 0005:00000040 00000194H .didat$4                DATA
 0005:000001d4 00000194H .didat$5                DATA
 0005:00000368 000010baH .didat$6                DATA
 0005:00001424 0000024eH .didat$7                DATA
 0006:00000000 00000101H .tls                    DATA
 0006:00000104 00000104H .tls$                   DATA
 0006:00000208 00000101H .tls$ZZZ                DATA
 0007:00000000 00000104H .00cfg                  DATA
 0008:00000000 0000053cH .rsrc$01                DATA
 0008:00000540 000446a6H .rsrc$02                DATA

  Address         Publics by Value              Rva+Base       Lib:Object

 0000:00000000       __except_list              00000000     <absolute>
 0000:00000000       ___guard_fids_table        00000000     <absolute>
 0000:00000000       ___guard_fids_count        00000000     <absolute>
 0000:0000002c       __tls_array                0000002c     <absolute>
 0000:000000c2       ___safe_se_handler_count   000000c2     <absolute>
 0000:00000100       ___guard_flags             00000100     <absolute>
 0000:00000000       ___ImageBase               10000000     <linker-defined>
 0001:00013ad3       ?TraceLoggingRegister@__vcrt_trace_logging_provider@@YAJPBU_TlgProvider_t@1@PBU_GUID@@P6GX1KE_K2PAU_EVENT_FILTER_DESCRIPTOR@@PAX@Z4@Z 10014ad3 f i libvcruntime:telemetry.obj
 0001:00013b47       ?TraceLoggingSetInformation@__vcrt_trace_logging_provider@@YAJPBU_TlgProvider_t@1@W4_EVENT_INFO_CLASS@@PAXK@Z 10014b47 f i libvcruntime:telemetry.obj
 0001:00013b7c       ?TraceLoggingUnregister@__vcrt_trace_logging_provider@@YAXPBU_TlgProvider_t@1@@Z 10014b7c f i libvcruntime:telemetry.obj
 0001:00013ba2       ?_TlgCreateSz@__vcrt_trace_logging_provider@@YAXPAU_EVENT_DATA_DESCRIPTOR@@PBD@Z 10014ba2 f i libvcruntime:telemetry.obj
 0001:00013be8       ?_TlgCreateWsz@__vcrt_trace_logging_provider@@YAXPAU_EVENT_DATA_DESCRIPTOR@@PB_W@Z 10014be8 f i libvcruntime:telemetry.obj
 0001:00013c3d       ?_TlgEnableCallback@__vcrt_trace_logging_provider@@YGXPBU_GUID@@KE_K1PAU_EVENT_FILTER_DESCRIPTOR@@PAX@Z 10014c3d f i libvcruntime:telemetry.obj
 0001:00013cd3       ?_TlgKeywordOn@__vcrt_trace_logging_provider@@YAEPBU_TlgProvider_t@1@_K@Z 10014cd3 f i libvcruntime:telemetry.obj
 0001:00013d1e       ?_TlgWrite@__vcrt_trace_logging_provider@@YAJPBU_TlgProvider_t@1@PBXPBU_GUID@@2IPAU_EVENT_DATA_DESCRIPTOR@@@Z 10014d1e f i libvcruntime:telemetry.obj
 0001:000153d0       ??$?0PB_WPB_WX@?$pair@$$CBV?$basic_string@_WU?$char_traits@_W@std@@V?$allocator@_W@2@@std@@V12@@std@@QAE@$$QAU?$pair@PB_WPB_W@1@@Z 100163d0 f i zoom_native_sdk_wrap_core.obj
 0001:000154a0       ??$?0W4SDKCustomizedStringType@ZOOMSDK@@PB_WX@?$pair@$$CBW4SDKCustomizedStringType@ZOOMSDK@@V?$basic_string@_WU?$char_traits@_W@std@@V?$allocator@_W@2@@std@@@std@@QAE@$$QAU?$pair@W4SDKCustomizedStringType@ZOOMSDK@@PB_W@1@@Z 100164a0 f i zoom_native_sdk_wrap_core.obj
 0001:00015520       ??$?0W4SDKCustomizedURLType@ZOOMSDK@@PB_WX@?$pair@$$CBW4SDKCustomizedURLType@ZOOMSDK@@V?$basic_string@_WU?$char_traits@_W@std@@V?$allocator@_W@2@@std@@@std@@QAE@$$QAU?$pair@W4SDKCustomizedURLType@ZOOMSDK@@PB_W@1@@Z 10016520 f i zoom_native_sdk_wrap_core.obj
 0001:000155a0       ??$_Insert_at@AAU?$pair@$$CBV?$basic_string@_WU?$char_traits@_W@std@@V?$allocator@_W@2@@std@@V12@@std@@PAU?$_Tree_node@U?$pair@$$CBV?$basic_string@_WU?$char_traits@_W@std@@V?$allocator@_W@2@@std@@V12@@std@@PAX@2@@?$_Tree@V?$_Tmap_traits@V?$basic_string@_WU?$char_traits@_W@std@@V?$allocator@_W@2@@std@@V12@U?$less@V?$basic_string@_WU?$char_traits@_W@std@@V?$allocator@_W@2@@std@@@2@V?$allocator@U?$pair@$$CBV?$basic_string@_WU?$char_traits@_W@std@@V?$allocator@_W@2@@std@@V12@@std@@@2@$0A@@std@@@std@@IAE?AV?$_Tree_iterator@V?$_Tree_val@U?$_Tree_simple_types@U?$pair@$$CBV?$basic_string@_WU?$char_traits@_W@std@@V?$allocator@_W@2@@std@@V12@@std@@@std@@@std@@@1@_NPAU?$_Tree_node@U?$pair@$$CBV?$basic_string@_WU?$char_traits@_W@std@@V?$allocator@_W@2@@std@@V12@@std@@PAX@1@AAU?$pair@$$CBV?$basic_string@_WU?$char_traits@_W@std@@V?$allocator@_W@2@@std@@V12@@1@1@Z 100165a0 f i zoom_native_sdk_wrap_core.obj
 0001:000157a0       ??$_Insert_at@AAU?$pair@$$CBW4SDKCustomizedStringType@ZOOMSDK@@V?$basic_string@_WU?$char_traits@_W@std@@V?$allocator@_W@2@@std@@@std@@PAU?$_Tree_node@U?$pair@$$CBW4SDKCustomizedStringType@ZOOMSDK@@V?$basic_string@_WU?$char_traits@_W@std@@V?$allocator@_W@2@@std@@@std@@PAX@2@@?$_Tree@V?$_Tmap_traits@W4SDKCustomizedStringType@ZOOMSDK@@V?$basic_string@_WU?$char_traits@_W@std@@V?$allocator@_W@2@@std@@U?$less@W4SDKCustomizedStringType@ZOOMSDK@@@4@V?$allocator@U?$pair@$$CBW4SDKCustomizedStringType@ZOOMSDK@@V?$basic_string@_WU?$char_traits@_W@std@@V?$allocator@_W@2@@std@@@std@@@4@$0A@@std@@@std@@IAE?AV?$_Tree_iterator@V?$_Tree_val@U?$_Tree_simple_types@U?$pair@$$CBW4SDKCustomizedStringType@ZOOMSDK@@V?$basic_string@_WU?$char_traits@_W@std@@V?$allocator@_W@2@@std@@@std@@@std@@@std@@@1@_NPAU?$_Tree_node@U?$pair@$$CBW4SDKCustomizedStringType@ZOOMSDK@@V?$basic_string@_WU?$char_traits@_W@std@@V?$allocator@_W@2@@std@@@std@@PAX@1@AAU?$pair@$$CBW4SDKCustomizedStringType@ZOOMSDK@@V?$basic_string@_WU?$char_traits@_W@std@@V?$allocator@_W@2@@std@@@1@1@Z 100167a0 f i zoom_native_sdk_wrap_core.obj
 0001:000159e0       ??$_Insert_at@AAU?$pair@$$CBW4SDKCustomizedURLType@ZOOMSDK@@V?$basic_string@_WU?$char_traits@_W@std@@V?$allocator@_W@2@@std@@@std@@PAU?$_Tree_node@U?$pair@$$CBW4SDKCustomizedURLType@ZOOMSDK@@V?$basic_string@_WU?$char_traits@_W@std@@V?$allocator@_W@2@@std@@@std@@PAX@2@@?$_Tree@V?$_Tmap_traits@W4SDKCustomizedURLType@ZOOMSDK@@V?$basic_string@_WU?$char_traits@_W@std@@V?$allocator@_W@2@@std@@U?$less@W4SDKCustomizedURLType@ZOOMSDK@@@4@V?$allocator@U?$pair@$$CBW4SDKCustomizedURLType@ZOOMSDK@@V?$basic_string@_WU?$char_traits@_W@std@@V?$allocator@_W@2@@std@@@std@@@4@$0A@@std@@@std@@IAE?AV?$_Tree_iterator@V?$_Tree_val@U?$_Tree_simple_types@U?$pair@$$CBW4SDKCustomizedURLType@ZOOMSDK@@V?$basic_string@_WU?$char_traits@_W@std@@V?$allocator@_W@2@@std@@@std@@@std@@@std@@@1@_NPAU?$_Tree_node@U?$pair@$$CBW4SDKCustomizedURLType@ZOOMSDK@@V?$basic_string@_WU?$char_traits@_W@std@@V?$allocator@_W@2@@std@@@std@@PAX@1@AAU?$pair@$$CBW4SDKCustomizedURLType@ZOOMSDK@@V?$basic_string@_WU?$char_traits@_W@std@@V?$allocator@_W@2@@std@@@1@1@Z 100169e0 f i zoom_native_sdk_wrap_core.obj
 0001:00015c20       ??$_Insert_nohint@AAU?$pair@$$CBV?$basic_string@_WU?$char_traits@_W@std@@V?$allocator@_W@2@@std@@V12@@std@@PAU?$_Tree_node@U?$pair@$$CBV?$basic_string@_WU?$char_traits@_W@std@@V?$allocator@_W@2@@std@@V12@@std@@PAX@2@@?$_Tree@V?$_Tmap_traits@V?$basic_string@_WU?$char_traits@_W@std@@V?$allocator@_W@2@@std@@V12@U?$less@V?$basic_string@_WU?$char_traits@_W@std@@V?$allocator@_W@2@@std@@@2@V?$allocator@U?$pair@$$CBV?$basic_string@_WU?$char_traits@_W@std@@V?$allocator@_W@2@@std@@V12@@std@@@2@$0A@@std@@@std@@IAE?AU?$pair@V?$_Tree_iterator@V?$_Tree_val@U?$_Tree_simple_types@U?$pair@$$CBV?$basic_string@_WU?$char_traits@_W@std@@V?$allocator@_W@2@@std@@V12@@std@@@std@@@std@@@std@@_N@1@_NAAU?$pair@$$CBV?$basic_string@_WU?$char_traits@_W@std@@V?$allocator@_W@2@@std@@V12@@1@PAU?$_Tree_node@U?$pair@$$CBV?$basic_string@_WU?$char_traits@_W@std@@V?$allocator@_W@2@@std@@V12@@std@@PAX@1@@Z 10016c20 f i zoom_native_sdk_wrap_core.obj
 0001:00015d80       ??$_Insert_nohint@AAU?$pair@$$CBW4SDKCustomizedStringType@ZOOMSDK@@V?$basic_string@_WU?$char_traits@_W@std@@V?$allocator@_W@2@@std@@@std@@PAU?$_Tree_node@U?$pair@$$CBW4SDKCustomizedStringType@ZOOMSDK@@V?$basic_string@_WU?$char_traits@_W@std@@V?$allocator@_W@2@@std@@@std@@PAX@2@@?$_Tree@V?$_Tmap_traits@W4SDKCustomizedStringType@ZOOMSDK@@V?$basic_string@_WU?$char_traits@_W@std@@V?$allocator@_W@2@@std@@U?$less@W4SDKCustomizedStringType@ZOOMSDK@@@4@V?$allocator@U?$pair@$$CBW4SDKCustomizedStringType@ZOOMSDK@@V?$basic_string@_WU?$char_traits@_W@std@@V?$allocator@_W@2@@std@@@std@@@4@$0A@@std@@@std@@IAE?AU?$pair@V?$_Tree_iterator@V?$_Tree_val@U?$_Tree_simple_types@U?$pair@$$CBW4SDKCustomizedStringType@ZOOMSDK@@V?$basic_string@_WU?$char_traits@_W@std@@V?$allocator@_W@2@@std@@@std@@@std@@@std@@@std@@_N@1@_NAAU?$pair@$$CBW4SDKCustomizedStringType@ZOOMSDK@@V?$basic_string@_WU?$char_traits@_W@std@@V?$allocator@_W@2@@std@@@1@PAU?$_Tree_node@U?$pair@$$CBW4SDKCustomizedStringType@ZOOMSDK@@V?$basic_string@_WU?$char_traits@_W@std@@V?$allocator@_W@2@@std@@@std@@PAX@1@@Z 10016d80 f i zoom_native_sdk_wrap_core.obj
 0001:00015e90       ??$_Insert_nohint@AAU?$pair@$$CBW4SDKCustomizedURLType@ZOOMSDK@@V?$basic_string@_WU?$char_traits@_W@std@@V?$allocator@_W@2@@std@@@std@@PAU?$_Tree_node@U?$pair@$$CBW4SDKCustomizedURLType@ZOOMSDK@@V?$basic_string@_WU?$char_traits@_W@std@@V?$allocator@_W@2@@std@@@std@@PAX@2@@?$_Tree@V?$_Tmap_traits@W4SDKCustomizedURLType@ZOOMSDK@@V?$basic_string@_WU?$char_traits@_W@std@@V?$allocator@_W@2@@std@@U?$less@W4SDKCustomizedURLType@ZOOMSDK@@@4@V?$allocator@U?$pair@$$CBW4SDKCustomizedURLType@ZOOMSDK@@V?$basic_string@_WU?$char_traits@_W@std@@V?$allocator@_W@2@@std@@@std@@@4@$0A@@std@@@std@@IAE?AU?$pair@V?$_Tree_iterator@V?$_Tree_val@U?$_Tree_simple_types@U?$pair@$$CBW4SDKCustomizedURLType@ZOOMSDK@@V?$basic_string@_WU?$char_traits@_W@std@@V?$allocator@_W@2@@std@@@std@@@std@@@std@@@std@@_N@1@_NAAU?$pair@$$CBW4SDKCustomizedURLType@ZOOMSDK@@V?$basic_string@_WU?$char_traits@_W@std@@V?$allocator@_W@2@@std@@@1@PAU?$_Tree_node@U?$pair@$$CBW4SDKCustomizedURLType@ZOOMSDK@@V?$basic_string@_WU?$char_traits@_W@std@@V?$allocator@_W@2@@std@@@std@@PAX@1@@Z 10016e90 f i zoom_native_sdk_wrap_core.obj
 0001:00015fa0       ??$__vcrt_va_start_verify_argument_type@PBD@@YAXXZ 10016fa0 f i zoom_native_sdk_wrap_core.obj
 0001:00015fb0       ??$__vcrt_va_start_verify_argument_type@PB_W@@YAXXZ 10016fb0 f i zoom_native_sdk_wrap_core.obj
 0001:00015fc0       ??$__vcrt_va_start_verify_argument_type@QBD@@YAXXZ 10016fc0 f i zoom_native_sdk_wrap_core.obj
 0001:00015fd0       ??$insert@U?$pair@PB_WPB_W@std@@@?$_Tree@V?$_Tmap_traits@V?$basic_string@_WU?$char_traits@_W@std@@V?$allocator@_W@2@@std@@V12@U?$less@V?$basic_string@_WU?$char_traits@_W@std@@V?$allocator@_W@2@@std@@@2@V?$allocator@U?$pair@$$CBV?$basic_string@_WU?$char_traits@_W@std@@V?$allocator@_W@2@@std@@V12@@std@@@2@$0A@@std@@@std@@QAE?AU?$pair@V?$_Tree_iterator@V?$_Tree_val@U?$_Tree_simple_types@U?$pair@$$CBV?$basic_string@_WU?$char_traits@_W@std@@V?$allocator@_W@2@@std@@V12@@std@@@std@@@std@@@std@@_N@1@$$QAU?$pair@PB_WPB_W@1@@Z 10016fd0 f i zoom_native_sdk_wrap_core.obj
 0001:00016050       ??$insert@U?$pair@W4SDKCustomizedStringType@ZOOMSDK@@PB_W@std@@@?$_Tree@V?$_Tmap_traits@W4SDKCustomizedStringType@ZOOMSDK@@V?$basic_string@_WU?$char_traits@_W@std@@V?$allocator@_W@2@@std@@U?$less@W4SDKCustomizedStringType@ZOOMSDK@@@4@V?$allocator@U?$pair@$$CBW4SDKCustomizedStringType@ZOOMSDK@@V?$basic_string@_WU?$char_traits@_W@std@@V?$allocator@_W@2@@std@@@std@@@4@$0A@@std@@@std@@QAE?AU?$pair@V?$_Tree_iterator@V?$_Tree_val@U?$_Tree_simple_types@U?$pair@$$CBW4SDKCustomizedStringType@ZOOMSDK@@V?$basic_string@_WU?$char_traits@_W@std@@V?$allocator@_W@2@@std@@@std@@@std@@@std@@@std@@_N@1@$$QAU?$pair@W4SDKCustomizedStringType@ZOOMSDK@@PB_W@1@@Z 10017050 f i zoom_native_sdk_wrap_core.obj
 0001:000160d0       ??$insert@U?$pair@W4SDKCustomizedURLType@ZOOMSDK@@PB_W@std@@@?$_Tree@V?$_Tmap_traits@W4SDKCustomizedURLType@ZOOMSDK@@V?$basic_string@_WU?$char_traits@_W@std@@V?$allocator@_W@2@@std@@U?$less@W4SDKCustomizedURLType@ZOOMSDK@@@4@V?$allocator@U?$pair@$$CBW4SDKCustomizedURLType@ZOOMSDK@@V?$basic_string@_WU?$char_traits@_W@std@@V?$allocator@_W@2@@std@@@std@@@4@$0A@@std@@@std@@QAE?AU?$pair@V?$_Tree_iterator@V?$_Tree_val@U?$_Tree_simple_types@U?$pair@$$CBW4SDKCustomizedURLType@ZOOMSDK@@V?$basic_string@_WU?$char_traits@_W@std@@V?$allocator@_W@2@@std@@@std@@@std@@@std@@@std@@_N@1@$$QAU?$pair@W4SDKCustomizedURLType@ZOOMSDK@@PB_W@1@@Z 100170d0 f i zoom_native_sdk_wrap_core.obj
 0001:00016150       ??0CSDKCustomizedUIWrap@ZOOMSDK@@AAE@XZ 10017150 f   zoom_native_sdk_wrap_core.obj
 0001:00016160       ??0CSDKExtWrap@ZOOMSDK@@AAE@XZ 10017160 f   zoom_native_sdk_wrap_core.obj
 0001:00016170       ??0CSDKImpl@@AAE@XZ        10017170 f   zoom_native_sdk_wrap_core.obj
 0001:00016190       ??0CSDKWrap@ZOOMSDK@@AAE@XZ 10017190 f   zoom_native_sdk_wrap_core.obj
 0001:000161a0       ??0IAuthServiceWrap@ZOOMSDK@@AAE@XZ 100171a0 f i zoom_native_sdk_wrap_core.obj
 0001:00016270       ??0ICustomizedResourceHelperWrap@ZOOMSDK@@QAE@XZ 10017270 f i zoom_native_sdk_wrap_core.obj
 0001:00016370       ??0IMeetingConfigurationWrap@ZOOMSDK@@QAE@XZ 10017370 f i zoom_native_sdk_wrap_core.obj
 0001:00016410       ??0IMeetingLiveStreamItemImpl@ZOOMSDK@@QAE@PB_W0@Z 10017410 f   zoom_native_sdk_wrap_core.obj
 0001:000164e0       ??0IMeetingServiceWrap@ZOOMSDK@@AAE@XZ 100174e0 f i zoom_native_sdk_wrap_core.obj
 0001:00016940       ??0IMeetingUIControllerWrap@ZOOMSDK@@QAE@XZ 10017940 f i zoom_native_sdk_wrap_core.obj
 0001:000169d0       ??0IMeetingVideoControllerWrap@ZOOMSDK@@QAE@XZ 100179d0 f i zoom_native_sdk_wrap_core.obj
 0001:00016a50       ??0IMeetingWebinarControllerWrap@ZOOMSDK@@QAE@XZ 10017a50 f i zoom_native_sdk_wrap_core.obj
 0001:00016ae0       ??0IScheduleForUserImpl@ZOOMSDK@@QAE@PB_W0_K@Z 10017ae0 f   zoom_native_sdk_wrap_core.obj
 0001:00016bb0       ??0IScheduleForUserImpl@ZOOMSDK@@QAE@XZ 10017bb0 f   zoom_native_sdk_wrap_core.obj
 0001:00016bf0       ??0ISettingServiceWrap@ZOOMSDK@@AAE@XZ 10017bf0 f i zoom_native_sdk_wrap_core.obj
 0001:00016cc0       ??0IVideoRawDataChannelWrap@ZOOMSDK@@AAE@XZ 10017cc0 f i zoom_native_sdk_wrap_core.obj
 0001:00016d20       ??0ZNativeSDKWrap@@QAE@XZ  10017d20 f   zoom_native_sdk_wrap_core.obj
 0001:00016d70       ??0tagInitParam@ZOOMSDK@@QAE@XZ 10017d70 f i zoom_native_sdk_wrap_core.obj
 0001:00016e00       ??1?$basic_string@_WU?$char_traits@_W@std@@V?$allocator@_W@2@@std@@QAE@XZ 10017e00 f i zoom_native_sdk_wrap_core.obj
 0001:00016e40       ??1CSDKImpl@@UAE@XZ        10017e40 f   zoom_native_sdk_wrap_core.obj
 0001:00016e50       ??1IAudioRawDataReceiver@ZOOMSDKRAWDATA@@UAE@XZ 10017e50 f i zoom_native_sdk_wrap_core.obj
 0001:00016e60       ??1IAudioSettingContextWrap@ZOOMSDK@@QAE@XZ 10017e60 f i zoom_native_sdk_wrap_core.obj
 0001:00016f10       ??1IAuthServiceWrap@ZOOMSDK@@QAE@XZ 10017f10 f i zoom_native_sdk_wrap_core.obj
 0001:00017040       ??1ICustomizedResourceHelperWrap@ZOOMSDK@@QAE@XZ 10018040 f i zoom_native_sdk_wrap_core.obj
 0001:000170c0       ??1IEmbeddedBrowserWrap@ZOOMSDK@@QAE@XZ 100180c0 f i zoom_native_sdk_wrap_core.obj
 0001:00017140       ??1IMeetingAudioControllerWrap@ZOOMSDK@@QAE@XZ 10018140 f i zoom_native_sdk_wrap_core.obj
 0001:000171c0       ??1IMeetingConfigurationWrap@ZOOMSDK@@QAE@XZ 100181c0 f i zoom_native_sdk_wrap_core.obj
 0001:000173b0       ??1IMeetingLiveStreamItem@ZOOMSDK@@UAE@XZ 100183b0 f i zoom_native_sdk_wrap_core.obj
 0001:000173c0       ??1IMeetingLiveStreamItemImpl@ZOOMSDK@@UAE@XZ 100183c0 f i zoom_native_sdk_wrap_core.obj
 0001:00017440       ??1IMeetingParticipantsControllerWrap@ZOOMSDK@@QAE@XZ 10018440 f i zoom_native_sdk_wrap_core.obj
 0001:00017550       ??1IMeetingRecordingControllerWrap@ZOOMSDK@@QAE@XZ 10018550 f i zoom_native_sdk_wrap_core.obj
 0001:00017660       ??1IMeetingServiceWrap@ZOOMSDK@@QAE@XZ 10018660 f i zoom_native_sdk_wrap_core.obj
 0001:00017a20       ??1IMeetingShareControllerWrap@ZOOMSDK@@QAE@XZ 10018a20 f i zoom_native_sdk_wrap_core.obj
 0001:00017ad0       ??1IMeetingUIControllerWrap@ZOOMSDK@@QAE@XZ 10018ad0 f i zoom_native_sdk_wrap_core.obj
 0001:00017c70       ??1IMeetingVideoControllerWrap@ZOOMSDK@@QAE@XZ 10018c70 f i zoom_native_sdk_wrap_core.obj
 0001:00017d80       ??1IMeetingWebinarControllerWrap@ZOOMSDK@@QAE@XZ 10018d80 f i zoom_native_sdk_wrap_core.obj
 0001:00017f20       ??1INetworkConnectionHelperWrap@ZOOMSDK@@QAE@XZ 10018f20 f i zoom_native_sdk_wrap_core.obj
 0001:00017fa0       ??1IOutlookPluginIntegrationHelperWrap@ZOOMSDK@@QAE@XZ 10018fa0 f i zoom_native_sdk_wrap_core.obj
 0001:00018020       ??1IPreMeetingServiceWrap@ZOOMSDK@@QAE@XZ 10019020 f i zoom_native_sdk_wrap_core.obj
 0001:000180a0       ??1IScheduleForUser@ZOOMSDK@@UAE@XZ 100190a0 f i zoom_native_sdk_wrap_core.obj
 0001:000180b0       ??1IScheduleForUserImpl@ZOOMSDK@@UAE@XZ 100190b0 f i zoom_native_sdk_wrap_core.obj
 0001:00018130       ??1ISettingServiceWrap@ZOOMSDK@@QAE@XZ 10019130 f i zoom_native_sdk_wrap_core.obj
 0001:000181d0       ??1IShareRawDataChannelWrap@ZOOMSDK@@UAE@XZ 100191d0 f i zoom_native_sdk_wrap_core.obj
 0001:00018290       ??1IShareRawDataReceiver@ZOOMSDKRAWDATA@@UAE@XZ 10019290 f i zoom_native_sdk_wrap_core.obj
 0001:000182a0       ??1IVideoRawDataChannelWrap@ZOOMSDK@@UAE@XZ 100192a0 f i zoom_native_sdk_wrap_core.obj
 0001:000183b0       ??1IVideoRawDataReceiver@ZOOMSDKRAWDATA@@UAE@XZ 100193b0 f i zoom_native_sdk_wrap_core.obj
 0001:000183c0       ??1IZoomRealNameAuthMeetingEvent@@UAE@XZ 100193c0 f i zoom_native_sdk_wrap_core.obj
 0001:000183d0       ??1IZoomRealNameAuthMeetingHelperWrap@ZOOMSDK@@UAE@XZ 100193d0 f i zoom_native_sdk_wrap_core.obj
 0001:00018460       ??1ZNativeSDKWrap@@UAE@XZ  10019460 f   zoom_native_sdk_wrap_core.obj
 0001:000184b0       ??E?$_Tree_unchecked_const_iterator@V?$_Tree_val@U?$_Tree_simple_types@U?$pair@$$CBV?$basic_string@_WU?$char_traits@_W@std@@V?$allocator@_W@2@@std@@V12@@std@@@std@@@std@@U_Iterator_base0@2@@std@@QAEAAV01@XZ 100194b0 f i zoom_native_sdk_wrap_core.obj
 0001:00018520       ??E?$_Tree_unchecked_const_iterator@V?$_Tree_val@U?$_Tree_simple_types@U?$pair@$$CBW4SDKCustomizedStringType@ZOOMSDK@@V?$basic_string@_WU?$char_traits@_W@std@@V?$allocator@_W@2@@std@@@std@@@std@@@std@@U_Iterator_base0@2@@std@@QAEAAV01@XZ 10019520 f i zoom_native_sdk_wrap_core.obj
 0001:00018590       ??E?$_Tree_unchecked_const_iterator@V?$_Tree_val@U?$_Tree_simple_types@U?$pair@$$CBW4SDKCustomizedURLType@ZOOMSDK@@V?$basic_string@_WU?$char_traits@_W@std@@V?$allocator@_W@2@@std@@@std@@@std@@@std@@U_Iterator_base0@2@@std@@QAEAAV01@XZ 10019590 f i zoom_native_sdk_wrap_core.obj
 0001:00018600       ??F?$_Tree_unchecked_const_iterator@V?$_Tree_val@U?$_Tree_simple_types@U?$pair@$$CBV?$basic_string@_WU?$char_traits@_W@std@@V?$allocator@_W@2@@std@@V12@@std@@@std@@@std@@U_Iterator_base0@2@@std@@QAEAAV01@XZ 10019600 f i zoom_native_sdk_wrap_core.obj
 0001:00018680       ??F?$_Tree_unchecked_const_iterator@V?$_Tree_val@U?$_Tree_simple_types@U?$pair@$$CBW4SDKCustomizedStringType@ZOOMSDK@@V?$basic_string@_WU?$char_traits@_W@std@@V?$allocator@_W@2@@std@@@std@@@std@@@std@@U_Iterator_base0@2@@std@@QAEAAV01@XZ 10019680 f i zoom_native_sdk_wrap_core.obj
 0001:00018700       ??F?$_Tree_unchecked_const_iterator@V?$_Tree_val@U?$_Tree_simple_types@U?$pair@$$CBW4SDKCustomizedURLType@ZOOMSDK@@V?$basic_string@_WU?$char_traits@_W@std@@V?$allocator@_W@2@@std@@@std@@@std@@@std@@U_Iterator_base0@2@@std@@QAEAAV01@XZ 10019700 f i zoom_native_sdk_wrap_core.obj
 0001:00018780       ??_ECSDKImpl@@UAEPAXI@Z    10019780 f i zoom_native_sdk_wrap_core.obj
 0001:00018780       ??_GCSDKImpl@@UAEPAXI@Z    10019780 f i zoom_native_sdk_wrap_core.obj
 0001:000187b0       ??_GIAudioRawDataChannelWrap@ZOOMSDK@@UAEPAXI@Z 100197b0 f i zoom_native_sdk_wrap_core.obj
 0001:000187b0       ??_EIAudioRawDataChannelWrap@ZOOMSDK@@UAEPAXI@Z 100197b0 f i zoom_native_sdk_wrap_core.obj
 0001:00018830       ??_EIAudioRawDataReceiver@ZOOMSDKRAWDATA@@UAEPAXI@Z 10019830 f i zoom_native_sdk_wrap_core.obj
 0001:00018830       ??_GIAudioRawDataReceiver@ZOOMSDKRAWDATA@@UAEPAXI@Z 10019830 f i zoom_native_sdk_wrap_core.obj
 0001:00018860       ??_EIMeetingLiveStreamItem@ZOOMSDK@@UAEPAXI@Z 10019860 f i zoom_native_sdk_wrap_core.obj
 0001:00018860       ??_GIMeetingLiveStreamItem@ZOOMSDK@@UAEPAXI@Z 10019860 f i zoom_native_sdk_wrap_core.obj
 0001:00018890       ??_EIMeetingLiveStreamItemImpl@ZOOMSDK@@UAEPAXI@Z 10019890 f i zoom_native_sdk_wrap_core.obj
 0001:00018890       ??_GIMeetingLiveStreamItemImpl@ZOOMSDK@@UAEPAXI@Z 10019890 f i zoom_native_sdk_wrap_core.obj
 0001:000188c0       ??_EIScheduleForUser@ZOOMSDK@@UAEPAXI@Z 100198c0 f i zoom_native_sdk_wrap_core.obj
 0001:000188c0       ??_GIScheduleForUser@ZOOMSDK@@UAEPAXI@Z 100198c0 f i zoom_native_sdk_wrap_core.obj
 0001:000188f0       ??_GIScheduleForUserImpl@ZOOMSDK@@UAEPAXI@Z 100198f0 f i zoom_native_sdk_wrap_core.obj
 0001:000188f0       ??_EIScheduleForUserImpl@ZOOMSDK@@UAEPAXI@Z 100198f0 f i zoom_native_sdk_wrap_core.obj
 0001:00018920       ??_GIShareRawDataChannelWrap@ZOOMSDK@@UAEPAXI@Z 10019920 f i zoom_native_sdk_wrap_core.obj
 0001:00018920       ??_EIShareRawDataChannelWrap@ZOOMSDK@@UAEPAXI@Z 10019920 f i zoom_native_sdk_wrap_core.obj
 0001:00018950       ??_EIShareRawDataReceiver@ZOOMSDKRAWDATA@@UAEPAXI@Z 10019950 f i zoom_native_sdk_wrap_core.obj
 0001:00018950       ??_GIShareRawDataReceiver@ZOOMSDKRAWDATA@@UAEPAXI@Z 10019950 f i zoom_native_sdk_wrap_core.obj
 0001:00018980       ??_GIVideoRawDataChannelWrap@ZOOMSDK@@UAEPAXI@Z 10019980 f i zoom_native_sdk_wrap_core.obj
 0001:00018980       ??_EIVideoRawDataChannelWrap@ZOOMSDK@@UAEPAXI@Z 10019980 f i zoom_native_sdk_wrap_core.obj
 0001:000189b0       ??_EIVideoRawDataReceiver@ZOOMSDKRAWDATA@@UAEPAXI@Z 100199b0 f i zoom_native_sdk_wrap_core.obj
 0001:000189b0       ??_GIVideoRawDataReceiver@ZOOMSDKRAWDATA@@UAEPAXI@Z 100199b0 f i zoom_native_sdk_wrap_core.obj
 0001:000189e0       ??_GIZoomRealNameAuthMeetingEvent@@UAEPAXI@Z 100199e0 f i zoom_native_sdk_wrap_core.obj
 0001:000189e0       ??_EIZoomRealNameAuthMeetingEvent@@UAEPAXI@Z 100199e0 f i zoom_native_sdk_wrap_core.obj
 0001:00018a10       ??_GIZoomRealNameAuthMeetingHelperWrap@ZOOMSDK@@UAEPAXI@Z 10019a10 f i zoom_native_sdk_wrap_core.obj
 0001:00018a10       ??_EIZoomRealNameAuthMeetingHelperWrap@ZOOMSDK@@UAEPAXI@Z 10019a10 f i zoom_native_sdk_wrap_core.obj
 0001:00018a40       ??_GZNativeSDKWrap@@UAEPAXI@Z 10019a40 f i zoom_native_sdk_wrap_core.obj
 0001:00018a40       ??_EZNativeSDKWrap@@UAEPAXI@Z 10019a40 f i zoom_native_sdk_wrap_core.obj
 0001:00018ab0       ?AddCustomizedPictureResource@ICustomizedResourceHelperWrap@ZOOMSDK@@UAE?AW4SDKError@2@PB_W0@Z 10019ab0 f   zoom_native_sdk_wrap_core.obj
 0001:00018af0       ?AddCustomizedStringResource@ICustomizedResourceHelperWrap@ZOOMSDK@@UAE?AW4SDKError@2@W4SDKCustomizedStringType@2@PB_W@Z 10019af0 f   zoom_native_sdk_wrap_core.obj
 0001:00018b30       ?AddCustomizedURLResource@ICustomizedResourceHelperWrap@ZOOMSDK@@UAE?AW4SDKError@2@W4SDKCustomizedURLType@2@PB_W@Z 10019b30 f   zoom_native_sdk_wrap_core.obj
 0001:00018b70       ?AdmitToMeeting@IMeetingWaitingRoomControllerWrap@ZOOMSDK@@QAE?AW4SDKError@2@I@Z 10019b70 f   zoom_native_sdk_wrap_core.obj
 0001:00018b90       ?AllowAttendeeChat@IMeetingWebinarControllerWrap@ZOOMSDK@@QAE?AW4SDKError@2@XZ 10019b90 f   zoom_native_sdk_wrap_core.obj
 0001:00018bb0       ?AllowAttendeeTalk@IMeetingWebinarControllerWrap@ZOOMSDK@@QAE?AW4SDKError@2@I@Z 10019bb0 f   zoom_native_sdk_wrap_core.obj
 0001:00018bd0       ?AllowLocalRecording@IMeetingRecordingControllerWrap@ZOOMSDK@@QAE?AW4SDKError@2@I@Z 10019bd0 f   zoom_native_sdk_wrap_core.obj
 0001:00018bf0       ?AllowPanelistStartVideo@IMeetingWebinarControllerWrap@ZOOMSDK@@QAE?AW4SDKError@2@XZ 10019bf0 f   zoom_native_sdk_wrap_core.obj
 0001:00018c10       ?AlwaysShowIconOnTaskBar@IMeetingConfigurationWrap@ZOOMSDK@@QAEX_N@Z 10019c10 f   zoom_native_sdk_wrap_core.obj
 0001:00018c30       ?ApplyAll@ICustomizedResourceHelperWrap@ZOOMSDK@@QAEXXZ 10019c30 f   zoom_native_sdk_wrap_core.obj
 0001:00018eb0       ?AskAttendeeToStartVideo@IMeetingVideoControllerWrap@ZOOMSDK@@QAE?AW4SDKError@2@I@Z 10019eb0 f   zoom_native_sdk_wrap_core.obj
 0001:00018ed0       ?AssignCCPriviledge@IClosedCaptionControllerWrap@ZOOMSDK@@QAE?AW4SDKError@2@I_N@Z 10019ed0 f   zoom_native_sdk_wrap_core.obj
 0001:00018ef0       ?AssignCoHost@IMeetingParticipantsControllerWrap@ZOOMSDK@@QAE?AW4SDKError@2@I@Z 10019ef0 f   zoom_native_sdk_wrap_core.obj
 0001:00018f10       ?BackToMeeting@IMeetingUIControllerWrap@ZOOMSDK@@QAE?AW4SDKError@2@XZ 10019f10 f   zoom_native_sdk_wrap_core.obj
 0001:00018f30       ?BeginTurnDown@ICameraControllerWrap@ZOOMSDK@@QAE?AW4SDKError@2@XZ 10019f30 f   zoom_native_sdk_wrap_core.obj
 0001:00018f50       ?BeginTurnLeft@ICameraControllerWrap@ZOOMSDK@@QAE?AW4SDKError@2@XZ 10019f50 f   zoom_native_sdk_wrap_core.obj
 0001:00018f70       ?BeginTurnRight@ICameraControllerWrap@ZOOMSDK@@QAE?AW4SDKError@2@XZ 10019f70 f   zoom_native_sdk_wrap_core.obj
 0001:00018f90       ?BeginTurnUp@ICameraControllerWrap@ZOOMSDK@@QAE?AW4SDKError@2@XZ 10019f90 f   zoom_native_sdk_wrap_core.obj
 0001:00018fb0       ?BeginZoomIn@ICameraControllerWrap@ZOOMSDK@@QAE?AW4SDKError@2@XZ 10019fb0 f   zoom_native_sdk_wrap_core.obj
 0001:00018fd0       ?BeginZoomOut@ICameraControllerWrap@ZOOMSDK@@QAE?AW4SDKError@2@XZ 10019fd0 f   zoom_native_sdk_wrap_core.obj
 0001:00018ff0       ?BlockWindowFromScreenshare@IMeetingShareControllerWrap@ZOOMSDK@@QAE?AW4SDKError@2@_NPAUHWND__@@0@Z 10019ff0 f   zoom_native_sdk_wrap_core.obj
 0001:00019010       ?CallMe@IMeetingPhoneHelperWrap@ZOOMSDK@@QAE?AW4SDKError@2@PB_W0@Z 1001a010 f   zoom_native_sdk_wrap_core.obj
 0001:00019030       ?CallOutH323@IMeetingH323HelperWrap@ZOOMSDK@@QAE?AW4SDKError@2@PAVIH323Device@2@@Z 1001a030 f   zoom_native_sdk_wrap_core.obj
 0001:00019050       ?CanAllowDisAllowLocalRecording@IMeetingRecordingControllerWrap@ZOOMSDK@@QAE?AW4SDKError@2@XZ 1001a050 f   zoom_native_sdk_wrap_core.obj
 0001:00019070       ?CanAskAttendeeToStartVideo@IMeetingVideoControllerWrap@ZOOMSDK@@QAE?AW4SDKError@2@I@Z 1001a070 f   zoom_native_sdk_wrap_core.obj
 0001:00019090       ?CanAssignOthersToSendCC@IClosedCaptionControllerWrap@ZOOMSDK@@QAE_NXZ 1001a090 f   zoom_native_sdk_wrap_core.obj
 0001:000190b0       ?CanBeAssignedToSendCC@IClosedCaptionControllerWrap@ZOOMSDK@@QAE_NI@Z 1001a0b0 f   zoom_native_sdk_wrap_core.obj
 0001:000190d0       ?CanControlCamera@ICameraControllerWrap@ZOOMSDK@@QAE?AW4SDKError@2@AA_N@Z 1001a0d0 f   zoom_native_sdk_wrap_core.obj
 0001:000190f0       ?CanDisableViewerAnnotation@IAnnotationControllerWrap@ZOOMSDK@@QAE?AW4SDKError@2@W4SDKViewType@2@AA_N@Z 1001a0f0 f   zoom_native_sdk_wrap_core.obj
 0001:00019110       ?CanDoAnnotation@IAnnotationControllerWrap@ZOOMSDK@@QAE?AW4SDKError@2@W4SDKViewType@2@AA_N@Z 1001a110 f   zoom_native_sdk_wrap_core.obj
 0001:00019130       ?CanGetCloudRecordingStorageInfo@IRecordingSettingContextWrap@ZOOMSDK@@QAE_NXZ 1001a130 f   zoom_native_sdk_wrap_core.obj
 0001:00019150       ?CanGetRecordingManagementURL@IRecordingSettingContextWrap@ZOOMSDK@@QAE?AW4SDKError@2@AA_N@Z 1001a150 f   zoom_native_sdk_wrap_core.obj
 0001:00019170       ?CanPairingMeeting@IMeetingH323HelperWrap@ZOOMSDK@@QAE?AW4SDKError@2@_K@Z 1001a170 f   zoom_native_sdk_wrap_core.obj
 0001:000191a0       ?CanReclaimHost@IMeetingParticipantsControllerWrap@ZOOMSDK@@QAE?AW4SDKError@2@AA_N@Z 1001a1a0 f   zoom_native_sdk_wrap_core.obj
 0001:000191c0       ?CanRequestControl@IMeetingRemoteControllerWrap@ZOOMSDK@@QAE?AW4SDKError@2@I@Z 1001a1c0 f   zoom_native_sdk_wrap_core.obj
 0001:000191e0       ?CanSendClosedCaption@IClosedCaptionControllerWrap@ZOOMSDK@@QAE_NXZ 1001a1e0 f   zoom_native_sdk_wrap_core.obj
 0001:00019200       ?CanStartDirectShare@IDirectShareServiceHelperWrap@ZOOMSDK@@QAE?AW4SDKError@2@XZ 1001a200 f   zoom_native_sdk_wrap_core.obj
 0001:00019220       ?CanStartLiveStream@IMeetingLiveStreamControllerWrap@ZOOMSDK@@QAE?AW4SDKError@2@XZ 1001a220 f   zoom_native_sdk_wrap_core.obj
 0001:00019240       ?CanStartRecording@IMeetingRecordingControllerWrap@ZOOMSDK@@QAE?AW4SDKError@2@_NI@Z 1001a240 f   zoom_native_sdk_wrap_core.obj
 0001:00019260       ?CanStartShare@IMeetingShareControllerWrap@ZOOMSDK@@QAE_NXZ 1001a260 f   zoom_native_sdk_wrap_core.obj
 0001:00019280       ?CanStopAttendeeVideo@IMeetingVideoControllerWrap@ZOOMSDK@@QAE?AW4SDKError@2@I@Z 1001a280 f   zoom_native_sdk_wrap_core.obj
 0001:000192a0       ?CanSwapToShowShareViewOrVideo@IMeetingUIControllerWrap@ZOOMSDK@@QAE?AW4SDKError@2@AA_N@Z 1001a2a0 f   zoom_native_sdk_wrap_core.obj
 0001:000192c0       ?CanUnMuteBySelf@IMeetingAudioControllerWrap@ZOOMSDK@@QAE_NXZ 1001a2c0 f   zoom_native_sdk_wrap_core.obj
 0001:000192e0       ?CanbeCohost@IMeetingParticipantsControllerWrap@ZOOMSDK@@QAE?AW4SDKError@2@I@Z 1001a2e0 f   zoom_native_sdk_wrap_core.obj
 0001:00019300       ?CancelCallOut@IMeetingPhoneHelperWrap@ZOOMSDK@@QAE?AW4SDKError@2@XZ 1001a300 f   zoom_native_sdk_wrap_core.obj
 0001:00019320       ?CancelCallOutH323@IMeetingH323HelperWrap@ZOOMSDK@@QAE?AW4SDKError@2@XZ 1001a320 f   zoom_native_sdk_wrap_core.obj
 0001:00019340       ?ChangeFloatoActiveSpkVideoSize@IMeetingUIControllerWrap@ZOOMSDK@@QAE?AW4SDKError@2@W4SDKFloatVideoType@2@@Z 1001a340 f   zoom_native_sdk_wrap_core.obj
 0001:00019360       ?ChangeUserName@IMeetingParticipantsControllerWrap@ZOOMSDK@@QAE?AW4SDKError@2@IPB_W_N@Z 1001a360 f   zoom_native_sdk_wrap_core.obj
 0001:00019380       ?CleanUPSDK@CSDKImpl@@UAE?AW4SDKError@ZOOMSDK@@XZ 1001a380 f   zoom_native_sdk_wrap_core.obj
 0001:000193a0       ?CleanUPSDK@CSDKWrap@ZOOMSDK@@QAE?AW4SDKError@2@XZ 1001a3a0 f   zoom_native_sdk_wrap_core.obj
 0001:000193b0       ?CleanUPSDK@ZNativeSDKWrap@@QAE?AW4ZNSDKError@@XZ 1001a3b0 f   zoom_native_sdk_wrap_core.obj
 0001:00019420       ?Clear@IAnnotationControllerWrap@ZOOMSDK@@QAE?AW4SDKError@2@W4SDKViewType@2@W4AnnotationClearType@2@@Z 1001a420 f   zoom_native_sdk_wrap_core.obj
 0001:00019440       ?ConfigDSCP@IMeetingConfigurationWrap@ZOOMSDK@@QAEXHH_N@Z 1001a440 f   zoom_native_sdk_wrap_core.obj
 0001:00019460       ?ConfigSDKModule@CSDKImpl@@QAE_NAAV?$basic_string@_WU?$char_traits@_W@std@@V?$allocator@_W@2@@std@@@Z 1001a460 f   zoom_native_sdk_wrap_core.obj
 0001:00019a40       ?ConfigureProxy@INetworkConnectionHelperWrap@ZOOMSDK@@QAE?AW4SDKError@2@AAUtagProxySettings@2@@Z 1001aa40 f   zoom_native_sdk_wrap_core.obj
 0001:00019a60       ?ContinueTurnDown@ICameraControllerWrap@ZOOMSDK@@QAE?AW4SDKError@2@XZ 1001aa60 f   zoom_native_sdk_wrap_core.obj
 0001:00019a80       ?ContinueTurnLeft@ICameraControllerWrap@ZOOMSDK@@QAE?AW4SDKError@2@XZ 1001aa80 f   zoom_native_sdk_wrap_core.obj
 0001:00019aa0       ?ContinueTurnRight@ICameraControllerWrap@ZOOMSDK@@QAE?AW4SDKError@2@XZ 1001aaa0 f   zoom_native_sdk_wrap_core.obj
 0001:00019ac0       ?ContinueTurnUp@ICameraControllerWrap@ZOOMSDK@@QAE?AW4SDKError@2@XZ 1001aac0 f   zoom_native_sdk_wrap_core.obj
 0001:00019ae0       ?ContinueZoomIn@ICameraControllerWrap@ZOOMSDK@@QAE?AW4SDKError@2@XZ 1001aae0 f   zoom_native_sdk_wrap_core.obj
 0001:00019b00       ?ContinueZoomOut@ICameraControllerWrap@ZOOMSDK@@QAE?AW4SDKError@2@XZ 1001ab00 f   zoom_native_sdk_wrap_core.obj
 0001:00019b20       ?CreateAnnoObj@ICustomizedAnnotationControllerWrap@ZOOMSDK@@QAE?AW4SDKError@2@PAVICustomizedShareRender@2@PAPAVICustomizedAnnotationObj@2@@Z 1001ab20 f   zoom_native_sdk_wrap_core.obj
 0001:00019b40       ?CreateAuthService@CSDKImpl@@UAE?AW4SDKError@ZOOMSDK@@PAPAVIAuthService@3@@Z 1001ab40 f   zoom_native_sdk_wrap_core.obj
 0001:00019b70       ?CreateCalenderService@CSDKImpl@@UAE?AW4SDKError@ZOOMSDK@@PAPAVICalenderService@3@@Z 1001ab70 f   zoom_native_sdk_wrap_core.obj
 0001:00019ba0       ?CreateCustomizedUIMgr@CSDKImpl@@UAE?AW4SDKError@ZOOMSDK@@PAPAVICustomizedUIMgr@3@@Z 1001aba0 f   zoom_native_sdk_wrap_core.obj
 0001:00019bd0       ?CreateEditMeetingItem@IPreMeetingServiceWrap@ZOOMSDK@@QAEPAVIScheduleMeetingItem@2@_K@Z 1001abd0 f   zoom_native_sdk_wrap_core.obj
 0001:00019c00       ?CreateEmbeddedBrowser@CSDKImpl@@UAE?AW4SDKError@ZOOMSDK@@PAPAVIEmbeddedBrowser@3@PAUHWND__@@@Z 1001ac00 f   zoom_native_sdk_wrap_core.obj
 0001:00019c30       ?CreateEmbeddedBrowserWrap@CSDKExtWrap@ZOOMSDK@@QAEPAVIEmbeddedBrowserWrap@2@PAUHWND__@@@Z 1001ac30 f   zoom_native_sdk_wrap_core.obj
 0001:00019cd0       ?CreateMeetingService@CSDKImpl@@UAE?AW4SDKError@ZOOMSDK@@PAPAVIMeetingService@3@@Z 1001acd0 f   zoom_native_sdk_wrap_core.obj
 0001:00019d00       ?CreateNetworkConnectionHelper@CSDKImpl@@UAE?AW4SDKError@ZOOMSDK@@PAPAVINetworkConnectionHelper@3@@Z 1001ad00 f   zoom_native_sdk_wrap_core.obj
 0001:00019d30       ?CreatePreMeetingService@CSDKImpl@@UAE?AW4SDKError@ZOOMSDK@@PAPAVIPreMeetingService@3@@Z 1001ad30 f   zoom_native_sdk_wrap_core.obj
 0001:00019d60       ?CreateScheduleMeetingItem@IPreMeetingServiceWrap@ZOOMSDK@@QAEPAVIScheduleMeetingItem@2@XZ 1001ad60 f   zoom_native_sdk_wrap_core.obj
 0001:00019d80       ?CreateSettingService@CSDKImpl@@UAE?AW4SDKError@ZOOMSDK@@PAPAVISettingService@3@@Z 1001ad80 f   zoom_native_sdk_wrap_core.obj
 0001:00019db0       ?CreateShareRender@ICustomizedUIMgrWrap@ZOOMSDK@@QAE?AW4SDKError@2@PAPAVICustomizedShareRender@2@PAUHWND__@@UtagRECT@@@Z 1001adb0 f   zoom_native_sdk_wrap_core.obj
 0001:00019df0       ?CreateVideoContainer@ICustomizedUIMgrWrap@ZOOMSDK@@QAE?AW4SDKError@2@PAPAVICustomizedVideoContainer@2@PAUHWND__@@UtagRECT@@@Z 1001adf0 f   zoom_native_sdk_wrap_core.obj
 0001:00019e30       ?DeclineRemoteControlRequest@IMeetingRemoteControllerWrap@ZOOMSDK@@QAE?AW4SDKError@2@I@Z 1001ae30 f   zoom_native_sdk_wrap_core.obj
 0001:00019e50       ?DeleteMeeting@IPreMeetingServiceWrap@ZOOMSDK@@QAE?AW4SDKError@2@_K@Z 1001ae50 f   zoom_native_sdk_wrap_core.obj
 0001:00019e80       ?DepromptPanelist2Attendee@IMeetingWebinarControllerWrap@ZOOMSDK@@QAE?AW4SDKError@2@I@Z 1001ae80 f   zoom_native_sdk_wrap_core.obj
 0001:00019ea0       ?DestoryEditMeetingItem@IPreMeetingServiceWrap@ZOOMSDK@@QAEXPAVIScheduleMeetingItem@2@@Z 1001aea0 f   zoom_native_sdk_wrap_core.obj
 0001:00019ec0       ?DestoryScheduleMeetingItem@IPreMeetingServiceWrap@ZOOMSDK@@QAEXPAVIScheduleMeetingItem@2@@Z 1001aec0 f   zoom_native_sdk_wrap_core.obj
 0001:00019ee0       ?DestroyAllShareRender@ICustomizedUIMgrWrap@ZOOMSDK@@QAE?AW4SDKError@2@XZ 1001aee0 f   zoom_native_sdk_wrap_core.obj
 0001:00019f00       ?DestroyAllVideoContainer@ICustomizedUIMgrWrap@ZOOMSDK@@QAE?AW4SDKError@2@XZ 1001af00 f   zoom_native_sdk_wrap_core.obj
 0001:00019f20       ?DestroyAnnoObj@ICustomizedAnnotationControllerWrap@ZOOMSDK@@QAE?AW4SDKError@2@PAVICustomizedAnnotationObj@2@@Z 1001af20 f   zoom_native_sdk_wrap_core.obj
 0001:00019f40       ?DestroyAuthService@CSDKImpl@@UAE?AW4SDKError@ZOOMSDK@@PAVIAuthService@3@@Z 1001af40 f   zoom_native_sdk_wrap_core.obj
 0001:00019f70       ?DestroyCalenderService@CSDKImpl@@UAE?AW4SDKError@ZOOMSDK@@PAVICalenderService@3@@Z 1001af70 f   zoom_native_sdk_wrap_core.obj
 0001:00019fa0       ?DestroyCustomizedUIMgr@CSDKImpl@@UAE?AW4SDKError@ZOOMSDK@@PAVICustomizedUIMgr@3@@Z 1001afa0 f   zoom_native_sdk_wrap_core.obj
 0001:00019fd0       ?DestroyEmbeddedBrowser@CSDKImpl@@UAE?AW4SDKError@ZOOMSDK@@PAVIEmbeddedBrowser@3@@Z 1001afd0 f   zoom_native_sdk_wrap_core.obj
 0001:0001a000       ?DestroyEmbeddedBrowserWrap@CSDKExtWrap@ZOOMSDK@@QAEXPAVIEmbeddedBrowserWrap@2@@Z 1001b000 f   zoom_native_sdk_wrap_core.obj
 0001:0001a070       ?DestroyMeetingService@CSDKImpl@@UAE?AW4SDKError@ZOOMSDK@@PAVIMeetingService@3@@Z 1001b070 f   zoom_native_sdk_wrap_core.obj
 0001:0001a0a0       ?DestroyNetworkConnectionHelper@CSDKImpl@@UAE?AW4SDKError@ZOOMSDK@@PAVINetworkConnectionHelper@3@@Z 1001b0a0 f   zoom_native_sdk_wrap_core.obj
 0001:0001a0d0       ?DestroyPreMeetingService@CSDKImpl@@UAE?AW4SDKError@ZOOMSDK@@PAVIPreMeetingService@3@@Z 1001b0d0 f   zoom_native_sdk_wrap_core.obj
 0001:0001a100       ?DestroySettingService@CSDKImpl@@UAE?AW4SDKError@ZOOMSDK@@PAVISettingService@3@@Z 1001b100 f   zoom_native_sdk_wrap_core.obj
 0001:0001a130       ?DestroyShareRender@ICustomizedUIMgrWrap@ZOOMSDK@@QAE?AW4SDKError@2@PAVICustomizedShareRender@2@@Z 1001b130 f   zoom_native_sdk_wrap_core.obj
 0001:0001a150       ?DestroyVideoContainer@ICustomizedUIMgrWrap@ZOOMSDK@@QAE?AW4SDKError@2@PAVICustomizedVideoContainer@2@@Z 1001b150 f   zoom_native_sdk_wrap_core.obj
 0001:0001a170       ?DisAllowLocalRecording@IMeetingRecordingControllerWrap@ZOOMSDK@@QAE?AW4SDKError@2@I@Z 1001b170 f   zoom_native_sdk_wrap_core.obj
 0001:0001a190       ?DisableAutoShowSelectJoinAudioDlgWhenJoinMeeting@IMeetingConfigurationWrap@ZOOMSDK@@QAEX_N@Z 1001b190 f   zoom_native_sdk_wrap_core.obj
 0001:0001a1b0       ?DisableFreeMeetingRemainTimeNotify@IMeetingConfigurationWrap@ZOOMSDK@@QAEX_N@Z 1001b1b0 f   zoom_native_sdk_wrap_core.obj
 0001:0001a1d0       ?DisablePopupMeetingWrongPSWDlg@IMeetingConfigurationWrap@ZOOMSDK@@QAEX_N@Z 1001b1d0 f   zoom_native_sdk_wrap_core.obj
 0001:0001a1f0       ?DisableRemoteCtrlCopyPasteFeature@IMeetingConfigurationWrap@ZOOMSDK@@QAEX_N@Z 1001b1f0 f   zoom_native_sdk_wrap_core.obj
 0001:0001a210       ?DisableShowJoinMeetingWnd@IMeetingConfigurationWrap@ZOOMSDK@@QAEX_N@Z 1001b210 f   zoom_native_sdk_wrap_core.obj
 0001:0001a230       ?DisableSplitScreenModeUIElements@IMeetingConfigurationWrap@ZOOMSDK@@QAEX_N@Z 1001b230 f   zoom_native_sdk_wrap_core.obj
 0001:0001a250       ?DisableTopMostAttr4SettingDialog@IMeetingConfigurationWrap@ZOOMSDK@@QAE?AW4SDKError@2@_N@Z 1001b250 f   zoom_native_sdk_wrap_core.obj
 0001:0001a270       ?DisableViewerAnnotation@IAnnotationControllerWrap@ZOOMSDK@@QAE?AW4SDKError@2@W4SDKViewType@2@_N@Z 1001b270 f   zoom_native_sdk_wrap_core.obj
 0001:0001a290       ?DisableWaitingForHostDialog@IMeetingConfigurationWrap@ZOOMSDK@@QAEX_N@Z 1001b290 f   zoom_native_sdk_wrap_core.obj
 0001:0001a2b0       ?DisallowAttendeeChat@IMeetingWebinarControllerWrap@ZOOMSDK@@QAE?AW4SDKError@2@XZ 1001b2b0 f   zoom_native_sdk_wrap_core.obj
 0001:0001a2d0       ?DisallowAttendeeTalk@IMeetingWebinarControllerWrap@ZOOMSDK@@QAE?AW4SDKError@2@I@Z 1001b2d0 f   zoom_native_sdk_wrap_core.obj
 0001:0001a2f0       ?DisallowPanelistStartVideo@IMeetingWebinarControllerWrap@ZOOMSDK@@QAE?AW4SDKError@2@XZ 1001b2f0 f   zoom_native_sdk_wrap_core.obj
 0001:0001a310       ?DoRefresh@IEmbeddedBrowserWrap@ZOOMSDK@@QAE?AW4SDKError@2@XZ 1001b310 f   zoom_native_sdk_wrap_core.obj
 0001:0001a330       ?DoStop@IEmbeddedBrowserWrap@ZOOMSDK@@QAE?AW4SDKError@2@XZ 1001b330 f   zoom_native_sdk_wrap_core.obj
 0001:0001a350       ?DummyFunc@@YAXXZ          1001b350 f   zoom_native_sdk_wrap_core.obj
 0001:0001a370       ?EditMeeting@IPreMeetingServiceWrap@ZOOMSDK@@QAE?AW4SDKError@2@AAUtagWndPosition@2@_K@Z 1001b370 f   zoom_native_sdk_wrap_core.obj
 0001:0001a3a0       ?EditMeeting@IPreMeetingServiceWrap@ZOOMSDK@@QAE?AW4SDKError@2@PAVIScheduleMeetingItem@2@@Z 1001b3a0 f   zoom_native_sdk_wrap_core.obj
 0001:0001a3c0       ?Enable49VideoesInGallaryView@IVideoSettingContextWrap@ZOOMSDK@@QAE?AW4SDKError@2@_N@Z 1001b3c0 f   zoom_native_sdk_wrap_core.obj
 0001:0001a3e0       ?EnableAddTimestampWatermark@IRecordingSettingContextWrap@ZOOMSDK@@QAE?AW4SDKError@2@_N@Z 1001b3e0 f   zoom_native_sdk_wrap_core.obj
 0001:0001a400       ?EnableAirplayInstructionWindow@IMeetingConfigurationWrap@ZOOMSDK@@QAEX_N@Z 1001b400 f   zoom_native_sdk_wrap_core.obj
 0001:0001a420       ?EnableAlwaysMuteMicWhenJoinVoip@IAudioSettingContextWrap@ZOOMSDK@@QAE?AW4SDKError@2@_N@Z 1001b420 f   zoom_native_sdk_wrap_core.obj
 0001:0001a440       ?EnableAlwaysShowNameOnVideo@IVideoSettingContextWrap@ZOOMSDK@@QAE?AW4SDKError@2@_N@Z 1001b440 f   zoom_native_sdk_wrap_core.obj
 0001:0001a460       ?EnableAlwaysUse16v9@IVideoSettingContextWrap@ZOOMSDK@@QAE?AW4SDKError@2@_N@Z 1001b460 f   zoom_native_sdk_wrap_core.obj
 0001:0001a480       ?EnableApproveRemoteControlDlg@IMeetingConfigurationWrap@ZOOMSDK@@QAEX_N@Z 1001b480 f   zoom_native_sdk_wrap_core.obj
 0001:0001a4a0       ?EnableAudioButtonOnMeetingUI@IMeetingConfigurationWrap@ZOOMSDK@@QAEX_N@Z 1001b4a0 f   zoom_native_sdk_wrap_core.obj
 0001:0001a4c0       ?EnableAutoAdjustMic@IAudioSettingContextWrap@ZOOMSDK@@QAE?AW4SDKError@2@_N@Z 1001b4c0 f   zoom_native_sdk_wrap_core.obj
 0001:0001a4e0       ?EnableAutoAdjustMicVolumeWhenJoinAudio@IMeetingConfigurationWrap@ZOOMSDK@@QAEX_N@Z 1001b4e0 f   zoom_native_sdk_wrap_core.obj
 0001:0001a500       ?EnableAutoAdjustSpeakerVolumeWhenJoinAudio@IMeetingConfigurationWrap@ZOOMSDK@@QAEX_N@Z 1001b500 f   zoom_native_sdk_wrap_core.obj
 0001:0001a520       ?EnableAutoEndOtherMeetingWhenStartMeeting@IMeetingConfigurationWrap@ZOOMSDK@@QAEX_N@Z 1001b520 f   zoom_native_sdk_wrap_core.obj
 0001:0001a540       ?EnableAutoHideJoinAudioDialog@IMeetingConfigurationWrap@ZOOMSDK@@QAEX_N@Z 1001b540 f   zoom_native_sdk_wrap_core.obj
 0001:0001a560       ?EnableAutoJoinAudio@IAudioSettingContextWrap@ZOOMSDK@@QAE?AW4SDKError@2@_N@Z 1001b560 f   zoom_native_sdk_wrap_core.obj
 0001:0001a580       ?EnableAutoTurnOffVideoWhenJoinMeeting@IVideoSettingContextWrap@ZOOMSDK@@QAE?AW4SDKError@2@_N@Z 1001b580 f   zoom_native_sdk_wrap_core.obj
 0001:0001a5a0       ?EnableClaimHostFeature@IMeetingConfigurationWrap@ZOOMSDK@@QAEX_N@Z 1001b5a0 f   zoom_native_sdk_wrap_core.obj
 0001:0001a5c0       ?EnableDeclineRemoteControlResponseDlg@IMeetingConfigurationWrap@ZOOMSDK@@QAEX_N@Z 1001b5c0 f   zoom_native_sdk_wrap_core.obj
 0001:0001a5e0       ?EnableEchoCancellation@IAudioSettingContextWrap@ZOOMSDK@@QAE?AW4SDKError@2@_N@Z 1001b5e0 f   zoom_native_sdk_wrap_core.obj
 0001:0001a600       ?EnableEnterAndExitFullScreenButtonOnMeetingUI@IMeetingConfigurationWrap@ZOOMSDK@@QAEX_N@Z 1001b600 f   zoom_native_sdk_wrap_core.obj
 0001:0001a620       ?EnableFaceBeautyEffect@IVideoSettingContextWrap@ZOOMSDK@@QAE?AW4SDKError@2@_N@Z 1001b620 f   zoom_native_sdk_wrap_core.obj
 0001:0001a640       ?EnableForceAutoStartMyVideoWhenJoinMeeting@IMeetingConfigurationWrap@ZOOMSDK@@QAEX_N@Z 1001b640 f   zoom_native_sdk_wrap_core.obj
 0001:0001a660       ?EnableForceAutoStopMyVideoWhenJoinMeeting@IMeetingConfigurationWrap@ZOOMSDK@@QAEX_N@Z 1001b660 f   zoom_native_sdk_wrap_core.obj
 0001:0001a680       ?EnableGrabShareWithoutReminder@IMeetingConfigurationWrap@ZOOMSDK@@QAE?AW4SDKError@2@_N@Z 1001b680 f   zoom_native_sdk_wrap_core.obj
 0001:0001a6a0       ?EnableHDVideo@IVideoSettingContextWrap@ZOOMSDK@@QAE?AW4SDKError@2@_N@Z 1001b6a0 f   zoom_native_sdk_wrap_core.obj
 0001:0001a6c0       ?EnableHardwareEncode@IVideoSettingContextWrap@ZOOMSDK@@QAE?AW4SDKError@2@_N@Z 1001b6c0 f   zoom_native_sdk_wrap_core.obj
 0001:0001a6e0       ?EnableHideFullPhoneNumber4PureCallinUser@IMeetingConfigurationWrap@ZOOMSDK@@QAEX_N@Z 1001b6e0 f   zoom_native_sdk_wrap_core.obj
 0001:0001a700       ?EnableHideNoVideoUsersOnWallView@IVideoSettingContextWrap@ZOOMSDK@@QAE?AW4SDKError@2@_N@Z 1001b700 f   zoom_native_sdk_wrap_core.obj
 0001:0001a720       ?EnableHoldSpaceKeyToSpeak@IAudioSettingContextWrap@ZOOMSDK@@QAE?AW4SDKError@2@_N@Z 1001b720 f   zoom_native_sdk_wrap_core.obj
 0001:0001a740       ?EnableInputMeetingPasswordDlg@IMeetingConfigurationWrap@ZOOMSDK@@QAEX_N@Z 1001b740 f   zoom_native_sdk_wrap_core.obj
 0001:0001a760       ?EnableInputMeetingScreenNameDlg@IMeetingConfigurationWrap@ZOOMSDK@@QAEX_N@Z 1001b760 f   zoom_native_sdk_wrap_core.obj
 0001:0001a780       ?EnableInviteButtonOnMeetingUI@IMeetingConfigurationWrap@ZOOMSDK@@QAEX_N@Z 1001b780 f   zoom_native_sdk_wrap_core.obj
 0001:0001a7a0       ?EnableLButtonDBClick4SwitchFullScreenMode@IMeetingConfigurationWrap@ZOOMSDK@@QAEX_N@Z 1001b7a0 f   zoom_native_sdk_wrap_core.obj
 0001:0001a7c0       ?EnableLeaveMeetingOptionForHost@IMeetingConfigurationWrap@ZOOMSDK@@QAEX_N@Z 1001b7c0 f   zoom_native_sdk_wrap_core.obj
 0001:0001a7e0       ?EnableLengthLimitationOfMeetingNumber@IMeetingConfigurationWrap@ZOOMSDK@@QAEX_N@Z 1001b7e0 f   zoom_native_sdk_wrap_core.obj
 0001:0001a800       ?EnableLocalRecordingConvertProgressBarDialog@IMeetingConfigurationWrap@ZOOMSDK@@QAEX_N@Z 1001b800 f   zoom_native_sdk_wrap_core.obj
 0001:0001a820       ?EnableMicOriginalInput@IAudioSettingContextWrap@ZOOMSDK@@QAE?AW4SDKError@2@_N@Z 1001b820 f   zoom_native_sdk_wrap_core.obj
 0001:0001a840       ?EnableMultiAudioStreamRecord@IRecordingSettingContextWrap@ZOOMSDK@@QAE?AW4SDKError@2@_N@Z 1001b840 f   zoom_native_sdk_wrap_core.obj
 0001:0001a860       ?EnableMuteOnEntry@IMeetingAudioControllerWrap@ZOOMSDK@@QAE?AW4SDKError@2@_N@Z 1001b860 f   zoom_native_sdk_wrap_core.obj
 0001:0001a880       ?EnableOptimizeFor3rdPartyVideoEditor@IRecordingSettingContextWrap@ZOOMSDK@@QAE?AW4SDKError@2@_N@Z 1001b880 f   zoom_native_sdk_wrap_core.obj
 0001:0001a8a0       ?EnableOptimizeForFullScreenVideoClip@IMeetingShareControllerWrap@ZOOMSDK@@QAE?AW4SDKError@2@_N@Z 1001b8a0 f   zoom_native_sdk_wrap_core.obj
 0001:0001a8c0       ?EnablePlaceVideoNextToShareInRecord@IRecordingSettingContextWrap@ZOOMSDK@@QAE?AW4SDKError@2@_N@Z 1001b8c0 f   zoom_native_sdk_wrap_core.obj
 0001:0001a8e0       ?EnablePlayChimeWhenEnterOrExit@IMeetingAudioControllerWrap@ZOOMSDK@@QAE?AW4SDKError@2@_N@Z 1001b8e0 f   zoom_native_sdk_wrap_core.obj
 0001:0001a900       ?EnableSelectRecordFileLocationAfterMeeting@IRecordingSettingContextWrap@ZOOMSDK@@QAE?AW4SDKError@2@_N@Z 1001b900 f   zoom_native_sdk_wrap_core.obj
 0001:0001a920       ?EnableShareComputerSound@IMeetingShareControllerWrap@ZOOMSDK@@QAE?AW4SDKError@2@_N@Z 1001b920 f   zoom_native_sdk_wrap_core.obj
 0001:0001a940       ?EnableShareIOSDevice@IMeetingConfigurationWrap@ZOOMSDK@@QAEX_N@Z 1001b940 f   zoom_native_sdk_wrap_core.obj
 0001:0001a960       ?EnableShareWhiteBoard@IMeetingConfigurationWrap@ZOOMSDK@@QAEX_N@Z 1001b960 f   zoom_native_sdk_wrap_core.obj
 0001:0001a980       ?EnableShowShareSwitchMultiToSingleConfirmDlg@IMeetingConfigurationWrap@ZOOMSDK@@QAEX_N@Z 1001b980 f   zoom_native_sdk_wrap_core.obj
 0001:0001a9a0       ?EnableShowVideoThumbnailWhenShare@IRecordingSettingContextWrap@ZOOMSDK@@QAE?AW4SDKError@2@_N@Z 1001b9a0 f   zoom_native_sdk_wrap_core.obj
 0001:0001a9c0       ?EnableSpotlightSelf@IVideoSettingContextWrap@ZOOMSDK@@QAE?AW4SDKError@2@_N@Z 1001b9c0 f   zoom_native_sdk_wrap_core.obj
 0001:0001a9e0       ?EnableStereoAudio@IAudioSettingContextWrap@ZOOMSDK@@QAE?AW4SDKError@2@_N@Z 1001b9e0 f   zoom_native_sdk_wrap_core.obj
 0001:0001aa00       ?EnableSuppressAudioNotify@IAudioSettingContextWrap@ZOOMSDK@@QAE?AW4SDKError@2@_N@Z 1001ba00 f   zoom_native_sdk_wrap_core.obj
 0001:0001aa20       ?EnableToolTipsShow@IMeetingConfigurationWrap@ZOOMSDK@@QAEX_N@Z 1001ba20 f   zoom_native_sdk_wrap_core.obj
 0001:0001aa40       ?EnableVideoButtonOnMeetingUI@IMeetingConfigurationWrap@ZOOMSDK@@QAEX_N@Z 1001ba40 f   zoom_native_sdk_wrap_core.obj
 0001:0001aa60       ?EnableVideoMirrorEffect@IVideoSettingContextWrap@ZOOMSDK@@QAE?AW4SDKError@2@_N@Z 1001ba60 f   zoom_native_sdk_wrap_core.obj
 0001:0001aa80       ?EnableWaitingRoomOnEntry@IMeetingWaitingRoomControllerWrap@ZOOMSDK@@QAE?AW4SDKError@2@_N@Z 1001ba80 f   zoom_native_sdk_wrap_core.obj
 0001:0001aaa0       ?EnableZoomAuthRealNameMeetingUIShown@IZoomRealNameAuthMeetingHelperWrap@ZOOMSDK@@QAE_N_N@Z 1001baa0 f   zoom_native_sdk_wrap_core.obj
 0001:0001aac0       ?EndTurnDown@ICameraControllerWrap@ZOOMSDK@@QAE?AW4SDKError@2@XZ 1001bac0 f   zoom_native_sdk_wrap_core.obj
 0001:0001aae0       ?EndTurnLeft@ICameraControllerWrap@ZOOMSDK@@QAE?AW4SDKError@2@XZ 1001bae0 f   zoom_native_sdk_wrap_core.obj
 0001:0001ab00       ?EndTurnRight@ICameraControllerWrap@ZOOMSDK@@QAE?AW4SDKError@2@XZ 1001bb00 f   zoom_native_sdk_wrap_core.obj
 0001:0001ab20       ?EndTurnUp@ICameraControllerWrap@ZOOMSDK@@QAE?AW4SDKError@2@XZ 1001bb20 f   zoom_native_sdk_wrap_core.obj
 0001:0001ab40       ?EndZoomIn@ICameraControllerWrap@ZOOMSDK@@QAE?AW4SDKError@2@XZ 1001bb40 f   zoom_native_sdk_wrap_core.obj
 0001:0001ab60       ?EndZoomOut@ICameraControllerWrap@ZOOMSDK@@QAE?AW4SDKError@2@XZ 1001bb60 f   zoom_native_sdk_wrap_core.obj
 0001:0001ab80       ?EnterFullScreen@IMeetingUIControllerWrap@ZOOMSDK@@QAE?AW4SDKError@2@_N0@Z 1001bb80 f   zoom_native_sdk_wrap_core.obj
 0001:0001aba0       ?EnterRemoteControllingStatus@IMeetingRemoteControllerWrap@ZOOMSDK@@QAE?AW4SDKError@2@I@Z 1001bba0 f   zoom_native_sdk_wrap_core.obj
 0001:0001abc0       ?ExitFullScreen@IMeetingUIControllerWrap@ZOOMSDK@@QAE?AW4SDKError@2@_N0@Z 1001bbc0 f   zoom_native_sdk_wrap_core.obj
 0001:0001abe0       ?ExpelUser@IMeetingParticipantsControllerWrap@ZOOMSDK@@QAE?AW4SDKError@2@I@Z 1001bbe0 f   zoom_native_sdk_wrap_core.obj
 0001:0001ac00       ?ForceDisableMultiShare@IMeetingConfigurationWrap@ZOOMSDK@@QAEX_N@Z 1001bc00 f   zoom_native_sdk_wrap_core.obj
 0001:0001ac20       ?GetAccessibilitySettings@ISettingServiceWrap@ZOOMSDK@@QAEPAVIAccessibilitySettingContext@2@XZ 1001bc20 f   zoom_native_sdk_wrap_core.obj
 0001:0001ac40       ?GetAccountInfo@IAuthServiceWrap@ZOOMSDK@@QAEPAVIAccountInfo@2@XZ 1001bc40 f   zoom_native_sdk_wrap_core.obj
 0001:0001ac60       ?GetAnnotationController@IMeetingServiceWrap@ZOOMSDK@@QAEAAVIAnnotationControllerWrap@2@XZ 1001bc60 f   zoom_native_sdk_wrap_core.obj
 0001:0001acb0       ?GetAudioConnQuality@IMeetingServiceWrap@ZOOMSDK@@QAE?AW4ConnectionQuality@2@XZ 1001bcb0 f   zoom_native_sdk_wrap_core.obj
 0001:0001acd0       ?GetAudioConnQuality@IMeetingServiceWrap@ZOOMSDK@@QAE?AW4ConnectionQuality@2@_N@Z 1001bcd0 f   zoom_native_sdk_wrap_core.obj
 0001:0001acf0       ?GetAudioRawDataChannelWrap@CSDKExtWrap@ZOOMSDK@@QAEAAVIAudioRawDataChannelWrap@2@XZ 1001bcf0 f   zoom_native_sdk_wrap_core.obj
 0001:0001ad00       ?GetAudioSettings@ISettingServiceWrap@ZOOMSDK@@QAEAAVIAudioSettingContextWrap@2@XZ 1001bd00 f   zoom_native_sdk_wrap_core.obj
 0001:0001ad40       ?GetAuthResult@IAuthServiceWrap@ZOOMSDK@@QAE?AW4AuthResult@2@XZ 1001bd40 f   zoom_native_sdk_wrap_core.obj
 0001:0001ad60       ?GetAuthServiceWrap@CSDKWrap@ZOOMSDK@@QAEAAVIAuthServiceWrap@2@XZ 1001bd60 f   zoom_native_sdk_wrap_core.obj
 0001:0001ad70       ?GetAuthServiceWrap@ZNativeSDKWrap@@QAEAAVZAuthServiceWrap@@XZ 1001bd70 f   zoom_native_sdk_wrap_core.obj
 0001:0001ad80       ?GetBreakoutRoomsInfoList@IMeetingBreakoutRoomsControllerWrap@ZOOMSDK@@QAEPAV?$IList@PAVIBreakoutRoomsInfo@ZOOMSDK@@@2@XZ 1001bd80 f   zoom_native_sdk_wrap_core.obj
 0001:0001ada0       ?GetCalenderServiceWrap@CSDKWrap@ZOOMSDK@@QAEAAVICalenderServiceWrap@2@XZ 1001bda0 f   zoom_native_sdk_wrap_core.obj
 0001:0001adb0       ?GetCallMeStatus@IMeetingPhoneHelperWrap@ZOOMSDK@@QAE?AW4PhoneStatus@2@XZ 1001bdb0 f   zoom_native_sdk_wrap_core.obj
 0001:0001add0       ?GetCalloutH323DviceList@IMeetingH323HelperWrap@ZOOMSDK@@QAEPAV?$IList@PAVIH323Device@ZOOMSDK@@@2@XZ 1001bdd0 f   zoom_native_sdk_wrap_core.obj
 0001:0001adf0       ?GetCameraList@IVideoSettingContextWrap@ZOOMSDK@@QAEPAV?$IList@PAVICameraInfo@ZOOMSDK@@@2@XZ 1001bdf0 f   zoom_native_sdk_wrap_core.obj
 0001:0001ae10       ?GetChatStatus@IMeetingChatControllerWrap@ZOOMSDK@@QAEPBUtagChatStatus@2@XZ 1001be10 f   zoom_native_sdk_wrap_core.obj
 0001:0001ae30       ?GetClosedCaptionHistorySavedPath@IClosedCaptionControllerWrap@ZOOMSDK@@QAEPB_WXZ 1001be30 f   zoom_native_sdk_wrap_core.obj
 0001:0001ae50       ?GetClosedCaptionUrlFor3rdParty@IClosedCaptionControllerWrap@ZOOMSDK@@QAEPB_WXZ 1001be50 f   zoom_native_sdk_wrap_core.obj
 0001:0001ae70       ?GetCloudRecordingStorageInfo@IRecordingSettingContextWrap@ZOOMSDK@@QAE?AW4SDKError@2@XZ 1001be70 f   zoom_native_sdk_wrap_core.obj
 0001:0001ae90       ?GetCurrentLiveStreamStatus@IMeetingLiveStreamControllerWrap@ZOOMSDK@@QAE?AW4LiveStreamStatus@2@XZ 1001be90 f   zoom_native_sdk_wrap_core.obj
 0001:0001aeb0       ?GetCurrentMeetingCallinNumber@IMeetingPhoneHelperWrap@ZOOMSDK@@QAEPAV?$IList@PAVIMeetingCallInPhoneNumberInfo@ZOOMSDK@@@2@XZ 1001beb0 f   zoom_native_sdk_wrap_core.obj
 0001:0001aed0       ?GetCurrentMeetingCallinParticipantID@IMeetingPhoneHelperWrap@ZOOMSDK@@QAEIXZ 1001bed0 f   zoom_native_sdk_wrap_core.obj
 0001:0001aef0       ?GetCurrentRemoteController@IMeetingRemoteControllerWrap@ZOOMSDK@@QAE?AW4SDKError@2@AAI@Z 1001bef0 f   zoom_native_sdk_wrap_core.obj
 0001:0001af10       ?GetCurrentSplitScreenModeInfo@IMeetingUIControllerWrap@ZOOMSDK@@QAE?AW4SDKError@2@AAUtagSplitScreenInfo@2@@Z 1001bf10 f   zoom_native_sdk_wrap_core.obj
 0001:0001af30       ?GetCustomizedResourceHelperWrap@CSDKExtWrap@ZOOMSDK@@QAEAAVICustomizedResourceHelperWrap@2@XZ 1001bf30 f   zoom_native_sdk_wrap_core.obj
 0001:0001af40       ?GetCustomizedResourceWrap@ZNativeSDKWrap@@QAEAAVZCustomizedResourceWrap@@XZ 1001bf40 f   zoom_native_sdk_wrap_core.obj
 0001:0001af50       ?GetCustomizedUIMgrWrap@CSDKCustomizedUIWrap@ZOOMSDK@@QAEAAVICustomizedUIMgrWrap@2@XZ 1001bf50 f   zoom_native_sdk_wrap_core.obj
 0001:0001af60       ?GetDirectShareServiceHeler@IAuthServiceWrap@ZOOMSDK@@QAEAAVIDirectShareServiceHelperWrap@2@XZ 1001bf60 f   zoom_native_sdk_wrap_core.obj
 0001:0001afb0       ?GetDisplayName@IScheduleForUserImpl@ZOOMSDK@@UAEPB_WXZ 1001bfb0 f   zoom_native_sdk_wrap_core.obj
 0001:0001afc0       ?GetEmail@IScheduleForUserImpl@ZOOMSDK@@UAEPB_WXZ 1001bfc0 f   zoom_native_sdk_wrap_core.obj
 0001:0001afd0       ?GetGeneralSettings@ISettingServiceWrap@ZOOMSDK@@QAEPAVIGeneralSettingContext@2@XZ 1001bfd0 f   zoom_native_sdk_wrap_core.obj
 0001:0001aff0       ?GetH323Address@IMeetingH323HelperWrap@ZOOMSDK@@QAEPAV?$IList@PB_W@2@XZ 1001bff0 f   zoom_native_sdk_wrap_core.obj
 0001:0001b010       ?GetH323Helper@IMeetingServiceWrap@ZOOMSDK@@QAEAAVIMeetingH323HelperWrap@2@XZ 1001c010 f   zoom_native_sdk_wrap_core.obj
 0001:0001b060       ?GetH323Password@IMeetingH323HelperWrap@ZOOMSDK@@QAEPB_WXZ 1001c060 f   zoom_native_sdk_wrap_core.obj
 0001:0001b080       ?GetInst@CSDKCustomizedUIWrap@ZOOMSDK@@SAAAV12@XZ 1001c080 f   zoom_native_sdk_wrap_core.obj
 0001:0001b0e0       ?GetInst@CSDKExtWrap@ZOOMSDK@@SAAAV12@XZ 1001c0e0 f   zoom_native_sdk_wrap_core.obj
 0001:0001b140       ?GetInst@CSDKImpl@@SAAAV1@XZ 1001c140 f   zoom_native_sdk_wrap_core.obj
 0001:0001b1c0       ?GetInst@CSDKWrap@ZOOMSDK@@SAAAV12@XZ 1001c1c0 f   zoom_native_sdk_wrap_core.obj
 0001:0001b220       ?GetInst@IAudioRawDataChannelWrap@ZOOMSDK@@CAAAV12@XZ 1001c220 f i zoom_native_sdk_wrap_core.obj
 0001:0001b2d0       ?GetInst@IAuthServiceWrap@ZOOMSDK@@CAAAV12@XZ 1001c2d0 f i zoom_native_sdk_wrap_core.obj
 0001:0001b340       ?GetInst@ICalenderServiceWrap@ZOOMSDK@@CAAAV12@XZ 1001c340 f i zoom_native_sdk_wrap_core.obj
 0001:0001b3e0       ?GetInst@ICustomizedResourceHelperWrap@ZOOMSDK@@SAAAV12@XZ 1001c3e0 f i zoom_native_sdk_wrap_core.obj
 0001:0001b450       ?GetInst@ICustomizedUIMgrWrap@ZOOMSDK@@CAAAV12@XZ 1001c450 f i zoom_native_sdk_wrap_core.obj
 0001:0001b500       ?GetInst@IMeetingServiceWrap@ZOOMSDK@@CAAAV12@XZ 1001c500 f i zoom_native_sdk_wrap_core.obj
 0001:0001b570       ?GetInst@INetworkConnectionHelperWrap@ZOOMSDK@@CAAAV12@XZ 1001c570 f i zoom_native_sdk_wrap_core.obj
 0001:0001b620       ?GetInst@IPreMeetingServiceWrap@ZOOMSDK@@CAAAV12@XZ 1001c620 f i zoom_native_sdk_wrap_core.obj
 0001:0001b6d0       ?GetInst@ISettingServiceWrap@ZOOMSDK@@CAAAV12@XZ 1001c6d0 f i zoom_native_sdk_wrap_core.obj
 0001:0001b740       ?GetInst@IShareRawDataChannelWrap@ZOOMSDK@@CAAAV12@XZ 1001c740 f i zoom_native_sdk_wrap_core.obj
 0001:0001b800       ?GetInst@IUIHookerWrap@ZOOMSDK@@CAAAV12@XZ 1001c800 f i zoom_native_sdk_wrap_core.obj
 0001:0001b8a0       ?GetInst@IVideoRawDataChannelWrap@ZOOMSDK@@CAAAV12@XZ 1001c8a0 f i zoom_native_sdk_wrap_core.obj
 0001:0001b910       ?GetInviteCalloutUserStatus@IMeetingPhoneHelperWrap@ZOOMSDK@@QAE?AW4PhoneStatus@2@XZ 1001c910 f   zoom_native_sdk_wrap_core.obj
 0001:0001b930       ?GetLiveStreamURL@IMeetingLiveStreamItemImpl@ZOOMSDK@@UAEPB_WXZ 1001c930 f   zoom_native_sdk_wrap_core.obj
 0001:0001b940       ?GetLiveStreamURLDescription@IMeetingLiveStreamItemImpl@ZOOMSDK@@UAEPB_WXZ 1001c940 f   zoom_native_sdk_wrap_core.obj
 0001:0001b950       ?GetLoginStatus@IAuthServiceWrap@ZOOMSDK@@QAE?AW4LOGINSTATUS@2@XZ 1001c950 f   zoom_native_sdk_wrap_core.obj
 0001:0001b970       ?GetMeeingItem@IPreMeetingServiceWrap@ZOOMSDK@@QAEPAVIMeetingItemInfo@2@_K@Z 1001c970 f   zoom_native_sdk_wrap_core.obj
 0001:0001b9a0       ?GetMeetingAudioController@IMeetingServiceWrap@ZOOMSDK@@QAEAAVIMeetingAudioControllerWrap@2@XZ 1001c9a0 f   zoom_native_sdk_wrap_core.obj
 0001:0001b9f0       ?GetMeetingBreakoutRoomsController@IMeetingServiceWrap@ZOOMSDK@@QAEAAVIMeetingBreakoutRoomsControllerWrap@2@XZ 1001c9f0 f   zoom_native_sdk_wrap_core.obj
 0001:0001ba40       ?GetMeetingChatController@IMeetingServiceWrap@ZOOMSDK@@QAEAAVIMeetingChatControllerWrap@2@XZ 1001ca40 f   zoom_native_sdk_wrap_core.obj
 0001:0001ba90       ?GetMeetingClosedCaptionController@IMeetingServiceWrap@ZOOMSDK@@QAEAAVIClosedCaptionControllerWrap@2@XZ 1001ca90 f   zoom_native_sdk_wrap_core.obj
 0001:0001bae0       ?GetMeetingConfiguration@IMeetingServiceWrap@ZOOMSDK@@QAEAAVIMeetingConfigurationWrap@2@XZ 1001cae0 f   zoom_native_sdk_wrap_core.obj
 0001:0001bb30       ?GetMeetingInfo@IMeetingServiceWrap@ZOOMSDK@@QAEPAVIMeetingInfo@2@XZ 1001cb30 f   zoom_native_sdk_wrap_core.obj
 0001:0001bb50       ?GetMeetingLiveStreamController@IMeetingServiceWrap@ZOOMSDK@@QAEAAVIMeetingLiveStreamControllerWrap@2@XZ 1001cb50 f   zoom_native_sdk_wrap_core.obj
 0001:0001bba0       ?GetMeetingParticipantsController@IMeetingServiceWrap@ZOOMSDK@@QAEAAVIMeetingParticipantsControllerWrap@2@XZ 1001cba0 f   zoom_native_sdk_wrap_core.obj
 0001:0001bbf0       ?GetMeetingPhoneHelper@IMeetingServiceWrap@ZOOMSDK@@QAEAAVIMeetingPhoneHelperWrap@2@XZ 1001cbf0 f   zoom_native_sdk_wrap_core.obj
 0001:0001bc40       ?GetMeetingRealNameAuthController@IMeetingServiceWrap@ZOOMSDK@@QAEAAVIZoomRealNameAuthMeetingHelperWrap@2@XZ 1001cc40 f   zoom_native_sdk_wrap_core.obj
 0001:0001bc90       ?GetMeetingRecordingController@IMeetingServiceWrap@ZOOMSDK@@QAEAAVIMeetingRecordingControllerWrap@2@XZ 1001cc90 f   zoom_native_sdk_wrap_core.obj
 0001:0001bce0       ?GetMeetingRemoteController@IMeetingServiceWrap@ZOOMSDK@@QAEAAVIMeetingRemoteControllerWrap@2@XZ 1001cce0 f   zoom_native_sdk_wrap_core.obj
 0001:0001bd30       ?GetMeetingServiceWrap@CSDKWrap@ZOOMSDK@@QAEAAVIMeetingServiceWrap@2@XZ 1001cd30 f   zoom_native_sdk_wrap_core.obj
 0001:0001bd40       ?GetMeetingServiceWrap@ZNativeSDKWrap@@QAEAAVZMeetingServiceWrap@@XZ 1001cd40 f   zoom_native_sdk_wrap_core.obj
 0001:0001bd50       ?GetMeetingShareController@IMeetingServiceWrap@ZOOMSDK@@QAEAAVIMeetingShareControllerWrap@2@XZ 1001cd50 f   zoom_native_sdk_wrap_core.obj
 0001:0001bda0       ?GetMeetingStatus@IMeetingServiceWrap@ZOOMSDK@@QAE?AW4MeetingStatus@2@XZ 1001cda0 f   zoom_native_sdk_wrap_core.obj
 0001:0001bdc0       ?GetMeetingUIWnd@IMeetingUIControllerWrap@ZOOMSDK@@QAE?AW4SDKError@2@AAPAUHWND__@@0@Z 1001cdc0 f   zoom_native_sdk_wrap_core.obj
 0001:0001bde0       ?GetMeetingVideoController@IMeetingServiceWrap@ZOOMSDK@@QAEAAVIMeetingVideoControllerWrap@2@XZ 1001cde0 f   zoom_native_sdk_wrap_core.obj
 0001:0001be30       ?GetMeetingWaitingRoomController@IMeetingServiceWrap@ZOOMSDK@@QAEAAVIMeetingWaitingRoomControllerWrap@2@XZ 1001ce30 f   zoom_native_sdk_wrap_core.obj
 0001:0001be80       ?GetMeetingWebinarController@IMeetingServiceWrap@ZOOMSDK@@QAEAAVIMeetingWebinarControllerWrap@2@XZ 1001ce80 f   zoom_native_sdk_wrap_core.obj
 0001:0001bed0       ?GetMicList@IAudioSettingContextWrap@ZOOMSDK@@QAEPAV?$IList@PAVIMicInfo@ZOOMSDK@@@2@XZ 1001ced0 f   zoom_native_sdk_wrap_core.obj
 0001:0001bef0       ?GetMicVol@IAudioSettingContextWrap@ZOOMSDK@@QAE?AW4SDKError@2@AAM@Z 1001cef0 f   zoom_native_sdk_wrap_core.obj
 0001:0001bf10       ?GetMultiShareSettingOptions@IMeetingShareControllerWrap@ZOOMSDK@@QAE?AW4SDKError@2@AAW4MultiShareOption@2@@Z 1001cf10 f   zoom_native_sdk_wrap_core.obj
 0001:0001bf30       ?GetMyCameraController@IMeetingVideoControllerWrap@ZOOMSDK@@QAEAAVICameraControllerWrap@2@XZ 1001cf30 f   zoom_native_sdk_wrap_core.obj
 0001:0001bf70       ?GetNetworkConnectionHelperWrap@CSDKWrap@ZOOMSDK@@QAEAAVINetworkConnectionHelperWrap@2@XZ 1001cf70 f   zoom_native_sdk_wrap_core.obj
 0001:0001bf80       ?GetOutlookPluginHeler@IAuthServiceWrap@ZOOMSDK@@QAEAAVIOutlookPluginIntegrationHelperWrap@2@XZ 1001cf80 f   zoom_native_sdk_wrap_core.obj
 0001:0001bfc0       ?GetPMINumber@IScheduleForUserImpl@ZOOMSDK@@UAE_KXZ 1001cfc0 f   zoom_native_sdk_wrap_core.obj
 0001:0001bfd0       ?GetParticipantsList@IMeetingParticipantsControllerWrap@ZOOMSDK@@QAEPAV?$IList@I@2@XZ 1001cfd0 f   zoom_native_sdk_wrap_core.obj
 0001:0001bff0       ?GetPreMeetingServiceWrap@CSDKWrap@ZOOMSDK@@QAEAAVIPreMeetingServiceWrap@2@XZ 1001cff0 f   zoom_native_sdk_wrap_core.obj
 0001:0001c000       ?GetPremeetingServiecWrap@ZNativeSDKWrap@@QAEAAVZPremeetingServiceWrap@@XZ 1001d000 f   zoom_native_sdk_wrap_core.obj
 0001:0001c010       ?GetReVerifySMSVerificationCodeHandler@IZoomRealNameAuthMeetingHelperWrap@ZOOMSDK@@QAEPAVIZoomVerifySMSVerificationCodeHandler@@XZ 1001d010 f   zoom_native_sdk_wrap_core.obj
 0001:0001c030       ?GetRecordingManagementURL@IRecordingSettingContextWrap@ZOOMSDK@@QAEPB_WXZ 1001d030 f   zoom_native_sdk_wrap_core.obj
 0001:0001c050       ?GetRecordingPath@IRecordingSettingContextWrap@ZOOMSDK@@QAEPB_WXZ 1001d050 f   zoom_native_sdk_wrap_core.obj
 0001:0001c070       ?GetRecordingSettings@ISettingServiceWrap@ZOOMSDK@@QAEAAVIRecordingSettingContextWrap@2@XZ 1001d070 f   zoom_native_sdk_wrap_core.obj
 0001:0001c0c0       ?GetResendSMSVerificationCodeHandler@IZoomRealNameAuthMeetingHelperWrap@ZOOMSDK@@QAEPAVIZoomRetrieveSMSVerificationCodeHandler@@XZ 1001d0c0 f   zoom_native_sdk_wrap_core.obj
 0001:0001c0e0       ?GetSDKIdentity@IAuthServiceWrap@ZOOMSDK@@QAEPB_WXZ 1001d0e0 f   zoom_native_sdk_wrap_core.obj
 0001:0001c100       ?GetSettingServiceWrap@CSDKWrap@ZOOMSDK@@QAEAAVISettingServiceWrap@2@XZ 1001d100 f   zoom_native_sdk_wrap_core.obj
 0001:0001c110       ?GetSettingServiceWrap@ZNativeSDKWrap@@QAEAAVZSettingServiceWrap@@XZ 1001d110 f   zoom_native_sdk_wrap_core.obj
 0001:0001c120       ?GetSettingUIStrategy@ISettingServiceWrap@ZOOMSDK@@QAEPAVISettingUIStrategy@2@XZ 1001d120 f   zoom_native_sdk_wrap_core.obj
 0001:0001c140       ?GetShareRawDataChannelWrap@CSDKExtWrap@ZOOMSDK@@QAEAAVIShareRawDataChannelWrap@2@XZ 1001d140 f   zoom_native_sdk_wrap_core.obj
 0001:0001c150       ?GetSharingConnQuality@IMeetingServiceWrap@ZOOMSDK@@QAE?AW4ConnectionQuality@2@XZ 1001d150 f   zoom_native_sdk_wrap_core.obj
 0001:0001c170       ?GetSharingConnQuality@IMeetingServiceWrap@ZOOMSDK@@QAE?AW4ConnectionQuality@2@_N@Z 1001d170 f   zoom_native_sdk_wrap_core.obj
 0001:0001c190       ?GetSpeakerList@IAudioSettingContextWrap@ZOOMSDK@@QAEPAV?$IList@PAVISpeakerInfo@ZOOMSDK@@@2@XZ 1001d190 f   zoom_native_sdk_wrap_core.obj
 0001:0001c1b0       ?GetSpeakerVol@IAudioSettingContextWrap@ZOOMSDK@@QAE?AW4SDKError@2@AAM@Z 1001d1b0 f   zoom_native_sdk_wrap_core.obj
 0001:0001c1d0       ?GetStatisticSettings@ISettingServiceWrap@ZOOMSDK@@QAEPAVIStatisticSettingContext@2@XZ 1001d1d0 f   zoom_native_sdk_wrap_core.obj
 0001:0001c1f0       ?GetSupportCountryInfo@IMeetingPhoneHelperWrap@ZOOMSDK@@QAEPAV?$IList@PAVIMeetingPhoneSupportCountryInfo@ZOOMSDK@@@2@XZ 1001d1f0 f   zoom_native_sdk_wrap_core.obj
 0001:0001c210       ?GetSupportLiveStreamURL@IMeetingLiveStreamControllerWrap@ZOOMSDK@@QAEPAV?$IList@PAVIMeetingLiveStreamItem@ZOOMSDK@@@2@XZ 1001d210 f   zoom_native_sdk_wrap_core.obj
 0001:0001c230       ?GetSupportPhoneNumberCountryList@IZoomRealNameAuthMeetingHelperWrap@ZOOMSDK@@QAEPAV?$IVector@PAVIZoomRealNameAuthCountryInfo@@@@XZ 1001d230 f   zoom_native_sdk_wrap_core.obj
 0001:0001c250       ?GetTestAudioDeviceHelper@IAudioSettingContextWrap@ZOOMSDK@@QAEPAVITestAudioDeviceHelper@2@XZ 1001d250 f   zoom_native_sdk_wrap_core.obj
 0001:0001c270       ?GetTestVideoDeviceHelper@IVideoSettingContextWrap@ZOOMSDK@@QAEPAVITestVideoDeviceHelper@2@XZ 1001d270 f   zoom_native_sdk_wrap_core.obj
 0001:0001c290       ?GetTitle@IEmbeddedBrowserWrap@ZOOMSDK@@QAEPBDXZ 1001d290 f   zoom_native_sdk_wrap_core.obj
 0001:0001c2b0       ?GetUIController@IMeetingServiceWrap@ZOOMSDK@@QAEAAVIMeetingUIControllerWrap@2@XZ 1001d2b0 f   zoom_native_sdk_wrap_core.obj
 0001:0001c300       ?GetUIHookerWrap@CSDKExtWrap@ZOOMSDK@@QAEAAVIUIHookerWrap@2@XZ 1001d300 f   zoom_native_sdk_wrap_core.obj
 0001:0001c310       ?GetURL@IEmbeddedBrowserWrap@ZOOMSDK@@QAEPBDXZ 1001d310 f   zoom_native_sdk_wrap_core.obj
 0001:0001c330       ?GetUserByUserID@IMeetingParticipantsControllerWrap@ZOOMSDK@@QAEPAVIUserInfo@2@I@Z 1001d330 f   zoom_native_sdk_wrap_core.obj
 0001:0001c350       ?GetVersion@CSDKImpl@@UAEPB_WXZ 1001d350 f   zoom_native_sdk_wrap_core.obj
 0001:0001c360       ?GetVersion@CSDKWrap@ZOOMSDK@@QAEPB_WXZ 1001d360 f   zoom_native_sdk_wrap_core.obj
 0001:0001c370       ?GetVersion@ZNativeSDKWrap@@QAE?AV?$basic_string@_WU?$char_traits@_W@std@@V?$allocator@_W@2@@std@@XZ 1001d370 f   zoom_native_sdk_wrap_core.obj
 0001:0001c440       ?GetVideoConnQuality@IMeetingServiceWrap@ZOOMSDK@@QAE?AW4ConnectionQuality@2@XZ 1001d440 f   zoom_native_sdk_wrap_core.obj
 0001:0001c460       ?GetVideoConnQuality@IMeetingServiceWrap@ZOOMSDK@@QAE?AW4ConnectionQuality@2@_N@Z 1001d460 f   zoom_native_sdk_wrap_core.obj
 0001:0001c480       ?GetVideoRawDataChannelWrap@CSDKExtWrap@ZOOMSDK@@QAEAAVIVideoRawDataChannelWrap@2@XZ 1001d480 f   zoom_native_sdk_wrap_core.obj
 0001:0001c490       ?GetVideoSettings@ISettingServiceWrap@ZOOMSDK@@QAEAAVIVideoSettingContextWrap@2@XZ 1001d490 f   zoom_native_sdk_wrap_core.obj
 0001:0001c4e0       ?GetViewableShareSourceList@IMeetingShareControllerWrap@ZOOMSDK@@QAEPAV?$IList@I@2@XZ 1001d4e0 f   zoom_native_sdk_wrap_core.obj
 0001:0001c500       ?GetViewabltShareSourceByUserID@IMeetingShareControllerWrap@ZOOMSDK@@QAE?AW4SDKError@2@IAAUtagViewableShareSource@2@@Z 1001d500 f   zoom_native_sdk_wrap_core.obj
 0001:0001c520       ?GetWaitingRoomLst@IMeetingWaitingRoomControllerWrap@ZOOMSDK@@QAEPAV?$IList@I@2@XZ 1001d520 f   zoom_native_sdk_wrap_core.obj
 0001:0001c540       ?GetWaitingRoomUserInfoByID@IMeetingWaitingRoomControllerWrap@ZOOMSDK@@QAEPAVIUserInfo@2@I@Z 1001d540 f   zoom_native_sdk_wrap_core.obj
 0001:0001c560       ?GetWallViewPageInfo@IMeetingUIControllerWrap@ZOOMSDK@@QAE?AW4SDKError@2@AAUtagVideoWallPageInfoParam@2@@Z 1001d560 f   zoom_native_sdk_wrap_core.obj
 0001:0001c580       ?GetWebinarMeetingStatus@IMeetingWebinarControllerWrap@ZOOMSDK@@QAEPAUtagWebinarMeetingStatus@2@XZ 1001d580 f   zoom_native_sdk_wrap_core.obj
 0001:0001c5a0       ?GiveRemoteControlTo@IMeetingRemoteControllerWrap@ZOOMSDK@@QAE?AW4SDKError@2@I@Z 1001d5a0 f   zoom_native_sdk_wrap_core.obj
 0001:0001c5c0       ?GiveupRemoteControl@IMeetingRemoteControllerWrap@ZOOMSDK@@QAE?AW4SDKError@2@I@Z 1001d5c0 f   zoom_native_sdk_wrap_core.obj
 0001:0001c5e0       ?GoBack@IEmbeddedBrowserWrap@ZOOMSDK@@QAE?AW4SDKError@2@XZ 1001d5e0 f   zoom_native_sdk_wrap_core.obj
 0001:0001c600       ?GoForward@IEmbeddedBrowserWrap@ZOOMSDK@@QAE?AW4SDKError@2@XZ 1001d600 f   zoom_native_sdk_wrap_core.obj
 0001:0001c620       ?HandleZoomWebUriProtocolAction@IMeetingServiceWrap@ZOOMSDK@@QAE?AW4SDKError@2@PB_W@Z 1001d620 f   zoom_native_sdk_wrap_core.obj
 0001:0001c640       ?Hangup@IMeetingPhoneHelperWrap@ZOOMSDK@@QAE?AW4SDKError@2@XZ 1001d640 f   zoom_native_sdk_wrap_core.obj
 0001:0001c660       ?HasLicense@ICustomizedUIMgrWrap@ZOOMSDK@@QAE?AW4SDKError@2@XZ 1001d660 f   zoom_native_sdk_wrap_core.obj
 0001:0001c680       ?HasRawDataLicense@CSDKImpl@@UAE?AW4SDKError@ZOOMSDK@@XZ 1001d680 f   zoom_native_sdk_wrap_core.obj
 0001:0001c6f0       ?HideChatDlg@IMeetingUIControllerWrap@ZOOMSDK@@QAE?AW4SDKError@2@XZ 1001d6f0 f   zoom_native_sdk_wrap_core.obj
 0001:0001c710       ?HideChatItemOnMeetingUI@IMeetingConfigurationWrap@ZOOMSDK@@QAEX_N@Z 1001d710 f   zoom_native_sdk_wrap_core.obj
 0001:0001c730       ?HideCopyInvitationOnInviteWindow@IMeetingConfigurationWrap@ZOOMSDK@@QAEX_N@Z 1001d730 f   zoom_native_sdk_wrap_core.obj
 0001:0001c750       ?HideCopyUrlOnInviteWindow@IMeetingConfigurationWrap@ZOOMSDK@@QAEX_N@Z 1001d750 f   zoom_native_sdk_wrap_core.obj
 0001:0001c770       ?HideJoinAudioDlg@IMeetingUIControllerWrap@ZOOMSDK@@QAE?AW4SDKError@2@XZ 1001d770 f   zoom_native_sdk_wrap_core.obj
 0001:0001c790       ?HideKeypadButtonOnMeetingWindow@IMeetingConfigurationWrap@ZOOMSDK@@QAEX_N@Z 1001d790 f   zoom_native_sdk_wrap_core.obj
 0001:0001c7b0       ?HideMeetingInfoFromMeetingUITitle@IMeetingConfigurationWrap@ZOOMSDK@@QAEX_N@Z 1001d7b0 f   zoom_native_sdk_wrap_core.obj
 0001:0001c7d0       ?HideOrShowNoVideoUserOnVideoWall@IMeetingVideoControllerWrap@ZOOMSDK@@QAE?AW4SDKError@2@_N@Z 1001d7d0 f   zoom_native_sdk_wrap_core.obj
 0001:0001c7f0       ?HidePollOnMeetingUI@IMeetingConfigurationWrap@ZOOMSDK@@QAEX_N@Z 1001d7f0 f   zoom_native_sdk_wrap_core.obj
 0001:0001c810       ?HideQAOnMeetingUI@IMeetingConfigurationWrap@ZOOMSDK@@QAEX_N@Z 1001d810 f   zoom_native_sdk_wrap_core.obj
 0001:0001c830       ?HideRecordItemOnMeetingUI@IMeetingConfigurationWrap@ZOOMSDK@@QAEX_N@Z 1001d830 f   zoom_native_sdk_wrap_core.obj
 0001:0001c850       ?HideRemoteControlOnMeetingUI@IMeetingConfigurationWrap@ZOOMSDK@@QAEX_N@Z 1001d850 f   zoom_native_sdk_wrap_core.obj
 0001:0001c870       ?HideSettingDlg@ISettingServiceWrap@ZOOMSDK@@QAE?AW4SDKError@2@XZ 1001d870 f   zoom_native_sdk_wrap_core.obj
 0001:0001c890       ?HideSwitchCameraButton@IMeetingConfigurationWrap@ZOOMSDK@@QAEX_N@Z 1001d890 f   zoom_native_sdk_wrap_core.obj
 0001:0001c8b0       ?HideUpgradeFreeMeetingButton@IMeetingConfigurationWrap@ZOOMSDK@@QAEX_N@Z 1001d8b0 f   zoom_native_sdk_wrap_core.obj
 0001:0001c8d0       ?HideUpgradeWarningMsgForFreeUserWhenSchedule@IMeetingConfigurationWrap@ZOOMSDK@@QAEX_N@Z 1001d8d0 f   zoom_native_sdk_wrap_core.obj
 0001:0001c8f0       ?Init@IEmbeddedBrowserWrap@ZOOMSDK@@QAEXPAUHWND__@@@Z 1001d8f0 f   zoom_native_sdk_wrap_core.obj
 0001:0001c930       ?InitIAnnotationControllerFunc@ZOOMSDK@@YAPAVIAnnotationController@1@PAVIMeetingAnnotationSupportEvent@1@PAVIMeetingServiceWrap@1@@Z 1001d930 f   zoom_native_sdk_wrap_core.obj
 0001:0001c970       ?InitIAudioSettingContextFunc@ZOOMSDK@@YAPAVIAudioSettingContext@1@PAVIAudioSettingContextEvent@1@PAVISettingServiceWrap@1@@Z 1001d970 f   zoom_native_sdk_wrap_core.obj
 0001:0001c9b0       ?InitIAuthServiceFunc@ZOOMSDK@@YAPAVIAuthService@1@PAVIAuthServiceEvent@1@@Z 1001d9b0 f   zoom_native_sdk_wrap_core.obj
 0001:0001c9f0       ?InitICalenderServiceFunc@ZOOMSDK@@YAPAVICalenderService@1@PAVICalenderServiceEvent@1@@Z 1001d9f0 f   zoom_native_sdk_wrap_core.obj
 0001:0001ca30       ?InitICameraControllerFunc@ZOOMSDK@@YAPAVICameraController@1@PAVICameraControllerEvent@1@PAVIMeetingVideoControllerWrap@1@@Z 1001da30 f   zoom_native_sdk_wrap_core.obj
 0001:0001ca70       ?InitIClosedCaptionControllerFunc@ZOOMSDK@@YAPAVIClosedCaptionController@1@PAVIClosedCaptionControllerEvent@1@PAVIMeetingServiceWrap@1@@Z 1001da70 f   zoom_native_sdk_wrap_core.obj
 0001:0001cab0       ?InitICustomizedAnnotationControllerFunc@ZOOMSDK@@YAPAVICustomizedAnnotationController@1@PAVICustomizedAnnotationControllerEvent@1@PAVIAnnotationControllerWrap@1@@Z 1001dab0 f   zoom_native_sdk_wrap_core.obj
 0001:0001caf0       ?InitICustomizedUIMgrFunc@ZOOMSDK@@YAPAVICustomizedUIMgr@1@PAVICustomizedUIMgrEvent@1@@Z 1001daf0 f   zoom_native_sdk_wrap_core.obj
 0001:0001cb30       ?InitIDirectShareServiceHelperFunc@ZOOMSDK@@YAPAVIDirectShareServiceHelper@1@PAVIDirectShareServiceHelperEvent@1@PAVIAuthServiceWrap@1@@Z 1001db30 f   zoom_native_sdk_wrap_core.obj
 0001:0001cb70       ?InitIMeetingAudioControllerFunc@ZOOMSDK@@YAPAVIMeetingAudioController@1@PAVIMeetingAudioCtrlEvent@1@PAVIMeetingServiceWrap@1@@Z 1001db70 f   zoom_native_sdk_wrap_core.obj
 0001:0001cbb0       ?InitIMeetingBreakoutRoomsControllerFunc@ZOOMSDK@@YAPAVIMeetingBreakoutRoomsController@1@PAVIMeetingBreakoutRoomsEvent@1@PAVIMeetingServiceWrap@1@@Z 1001dbb0 f   zoom_native_sdk_wrap_core.obj
 0001:0001cbf0       ?InitIMeetingChatControllerFunc@ZOOMSDK@@YAPAVIMeetingChatController@1@PAVIMeetingChatCtrlEvent@1@PAVIMeetingServiceWrap@1@@Z 1001dbf0 f   zoom_native_sdk_wrap_core.obj
 0001:0001cc30       ?InitIMeetingConfigurationFunc@ZOOMSDK@@YAPAVIMeetingConfiguration@1@PAVIMeetingConfigurationEvent@1@PAVIMeetingServiceWrap@1@@Z 1001dc30 f   zoom_native_sdk_wrap_core.obj
 0001:0001cc70       ?InitIMeetingH323HelperFunc@ZOOMSDK@@YAPAVIMeetingH323Helper@1@PAVIMeetingH323HelperEvent@1@PAVIMeetingServiceWrap@1@@Z 1001dc70 f   zoom_native_sdk_wrap_core.obj
 0001:0001ccb0       ?InitIMeetingLiveStreamControllerFunc@ZOOMSDK@@YAPAVIMeetingLiveStreamController@1@PAVIMeetingLiveStreamCtrlEvent@1@PAVIMeetingServiceWrap@1@@Z 1001dcb0 f   zoom_native_sdk_wrap_core.obj
 0001:0001ccf0       ?InitIMeetingParticipantsControllerFunc@ZOOMSDK@@YAPAVIMeetingParticipantsController@1@PAVIMeetingParticipantsCtrlEvent@1@PAVIMeetingServiceWrap@1@@Z 1001dcf0 f   zoom_native_sdk_wrap_core.obj
 0001:0001cd30       ?InitIMeetingPhoneHelperFunc@ZOOMSDK@@YAPAVIMeetingPhoneHelper@1@PAVIMeetingPhoneHelperEvent@1@PAVIMeetingServiceWrap@1@@Z 1001dd30 f   zoom_native_sdk_wrap_core.obj
 0001:0001cd70       ?InitIMeetingRecordingControllerFunc@ZOOMSDK@@YAPAVIMeetingRecordingController@1@PAVIMeetingRecordingCtrlEvent@1@PAVIMeetingServiceWrap@1@@Z 1001dd70 f   zoom_native_sdk_wrap_core.obj
 0001:0001cdb0       ?InitIMeetingRemoteControllerFunc@ZOOMSDK@@YAPAVIMeetingRemoteController@1@PAVIMeetingRemoteCtrlEvent@1@PAVIMeetingServiceWrap@1@@Z 1001ddb0 f   zoom_native_sdk_wrap_core.obj
 0001:0001cdf0       ?InitIMeetingServiceFunc@ZOOMSDK@@YAPAVIMeetingService@1@PAVIMeetingServiceEvent@1@@Z 1001ddf0 f   zoom_native_sdk_wrap_core.obj
 0001:0001ce30       ?InitIMeetingShareControllerFunc@ZOOMSDK@@YAPAVIMeetingShareController@1@PAVIMeetingShareCtrlEvent@1@PAVIMeetingServiceWrap@1@@Z 1001de30 f   zoom_native_sdk_wrap_core.obj
 0001:0001ce70       ?InitIMeetingUIControllerFunc@ZOOMSDK@@YAPAVIMeetingUIController@1@PAVIMeetingUIControllerEvent@1@PAVIMeetingServiceWrap@1@@Z 1001de70 f   zoom_native_sdk_wrap_core.obj
 0001:0001ceb0       ?InitIMeetingVideoControllerFunc@ZOOMSDK@@YAPAVIMeetingVideoController@1@PAVIMeetingVideoCtrlEvent@1@PAVIMeetingServiceWrap@1@@Z 1001deb0 f   zoom_native_sdk_wrap_core.obj
 0001:0001cef0       ?InitIMeetingWaitingRoomControllerFunc@ZOOMSDK@@YAPAVIMeetingWaitingRoomController@1@PAVIMeetingWaitingRoomEvent@1@PAVIMeetingServiceWrap@1@@Z 1001def0 f   zoom_native_sdk_wrap_core.obj
 0001:0001cf30       ?InitIMeetingWebinarControllerFunc@ZOOMSDK@@YAPAVIMeetingWebinarController@1@PAVIMeetingWebinarCtrlEvent@1@PAVIMeetingServiceWrap@1@@Z 1001df30 f   zoom_native_sdk_wrap_core.obj
 0001:0001cf70       ?InitINetworkConnectionHelperFunc@ZOOMSDK@@YAPAVINetworkConnectionHelper@1@PAVINetworkConnectionHandler@1@@Z 1001df70 f   zoom_native_sdk_wrap_core.obj
 0001:0001cfb0       ?InitIOutlookPluginIntegrationHelperFunc@ZOOMSDK@@YAPAVIOutlookPluginIntegrationHelper@1@PAVIOutlookPluginIntegrationHelperEvent@1@PAVIAuthServiceWrap@1@@Z 1001dfb0 f   zoom_native_sdk_wrap_core.obj
 0001:0001cff0       ?InitIPreMeetingServiceFunc@ZOOMSDK@@YAPAVIPreMeetingService@1@PAVIPreMeetingServiceEvent@1@@Z 1001dff0 f   zoom_native_sdk_wrap_core.obj
 0001:0001d030       ?InitIRecordingSettingContextFunc@ZOOMSDK@@YAPAVIRecordingSettingContext@1@PAVIRecordingSettingContextEvent@1@PAVISettingServiceWrap@1@@Z 1001e030 f   zoom_native_sdk_wrap_core.obj
 0001:0001d070       ?InitISettingServiceFunc@ZOOMSDK@@YAPAVISettingService@1@XZ 1001e070 f   zoom_native_sdk_wrap_core.obj
 0001:0001d0a0       ?InitIUIHookerFunc@ZOOMSDK@@YAPAVIUIHooker@1@PAVIUIHookerEvent@1@@Z 1001e0a0 f   zoom_native_sdk_wrap_core.obj
 0001:0001d0e0       ?InitIVideoSettingContextFunc@ZOOMSDK@@YAPAVIVideoSettingContext@1@PAVIVideoSettingContextEvent@1@PAVISettingServiceWrap@1@@Z 1001e0e0 f   zoom_native_sdk_wrap_core.obj
 0001:0001d120       ?InitIZoomRealNameAuthMeetingHelperFunc@ZOOMSDK@@YAPAVIZoomRealNameAuthMeetingHelper@@PAVIZoomRealNameAuthMeetingEvent@@PAVIMeetingServiceWrap@1@@Z 1001e120 f   zoom_native_sdk_wrap_core.obj
 0001:0001d160       ?InitSDK@CSDKImpl@@UAE?AW4SDKError@ZOOMSDK@@AAUtagInitParam@3@@Z 1001e160 f   zoom_native_sdk_wrap_core.obj
 0001:0001d190       ?InitSDK@CSDKWrap@ZOOMSDK@@QAE?AW4SDKError@2@PB_WAAUtagInitParam@2@@Z 1001e190 f   zoom_native_sdk_wrap_core.obj
 0001:0001d470       ?InitSDK@ZNativeSDKWrap@@QAE?AW4ZNSDKError@@AAU_ZNInitParam@@@Z 1001e470 f   zoom_native_sdk_wrap_core.obj
 0001:0001d680       ?InviteCallOutUser@IMeetingPhoneHelperWrap@ZOOMSDK@@QAE?AW4SDKError@2@PB_W00@Z 1001e680 f   zoom_native_sdk_wrap_core.obj
 0001:0001d6a0       ?Is49VideoesInGallaryViewEnabled@IVideoSettingContextWrap@ZOOMSDK@@QAE_NXZ 1001e6a0 f   zoom_native_sdk_wrap_core.obj
 0001:0001d6c0       ?IsAddTimestampWatermarkEnabled@IRecordingSettingContextWrap@ZOOMSDK@@QAE_NXZ 1001e6c0 f   zoom_native_sdk_wrap_core.obj
 0001:0001d6e0       ?IsAlwaysMuteMicWhenJoinVoipEnabled@IAudioSettingContextWrap@ZOOMSDK@@QAE_NXZ 1001e6e0 f   zoom_native_sdk_wrap_core.obj
 0001:0001d700       ?IsAlwaysShowNameOnVideoEnabled@IVideoSettingContextWrap@ZOOMSDK@@QAE_NXZ 1001e700 f   zoom_native_sdk_wrap_core.obj
 0001:0001d720       ?IsAlwaysUse16v9@IVideoSettingContextWrap@ZOOMSDK@@QAE_NXZ 1001e720 f   zoom_native_sdk_wrap_core.obj
 0001:0001d740       ?IsAnnoataionDisable@IAnnotationControllerWrap@ZOOMSDK@@QAE_NXZ 1001e740 f   zoom_native_sdk_wrap_core.obj
 0001:0001d760       ?IsAutoAdjustMicEnabled@IAudioSettingContextWrap@ZOOMSDK@@QAE_NXZ 1001e760 f   zoom_native_sdk_wrap_core.obj
 0001:0001d780       ?IsAutoJoinAudioEnabled@IAudioSettingContextWrap@ZOOMSDK@@QAE_NXZ 1001e780 f   zoom_native_sdk_wrap_core.obj
 0001:0001d7a0       ?IsAutoTurnOffVideoWhenJoinMeetingEnabled@IVideoSettingContextWrap@ZOOMSDK@@QAE_NXZ 1001e7a0 f   zoom_native_sdk_wrap_core.obj
 0001:0001d7c0       ?IsDirectShareInProgress@IDirectShareServiceHelperWrap@ZOOMSDK@@QAE_NXZ 1001e7c0 f   zoom_native_sdk_wrap_core.obj
 0001:0001d7e0       ?IsDisplayingShareViewOrVideo@IMeetingUIControllerWrap@ZOOMSDK@@QAE?AW4SDKError@2@AA_N@Z 1001e7e0 f   zoom_native_sdk_wrap_core.obj
 0001:0001d800       ?IsEchoCancellationEnabled@IAudioSettingContextWrap@ZOOMSDK@@QAE_NXZ 1001e800 f   zoom_native_sdk_wrap_core.obj
 0001:0001d820       ?IsFaceBeautyEffectEnabled@IVideoSettingContextWrap@ZOOMSDK@@QAE_NXZ 1001e820 f   zoom_native_sdk_wrap_core.obj
 0001:0001d840       ?IsHDVideoEnabled@IVideoSettingContextWrap@ZOOMSDK@@QAE_NXZ 1001e840 f   zoom_native_sdk_wrap_core.obj
 0001:0001d860       ?IsHardwareEncodeEnabled@IVideoSettingContextWrap@ZOOMSDK@@QAE_NXZ 1001e860 f   zoom_native_sdk_wrap_core.obj
 0001:0001d880       ?IsHaveRemoteControlRight@IMeetingRemoteControllerWrap@ZOOMSDK@@QAE?AW4SDKError@2@I@Z 1001e880 f   zoom_native_sdk_wrap_core.obj
 0001:0001d8a0       ?IsHideNoVideoUsersOnWallViewEnabled@IVideoSettingContextWrap@ZOOMSDK@@QAE_NXZ 1001e8a0 f   zoom_native_sdk_wrap_core.obj
 0001:0001d8c0       ?IsHoldSpaceKeyToSpeakEnabled@IAudioSettingContextWrap@ZOOMSDK@@QAE_NXZ 1001e8c0 f   zoom_native_sdk_wrap_core.obj
 0001:0001d8e0       ?IsInRemoteControllingStatus@IMeetingRemoteControllerWrap@ZOOMSDK@@QAE?AW4SDKError@2@I@Z 1001e8e0 f   zoom_native_sdk_wrap_core.obj
 0001:0001d900       ?IsMeetingLocked@IMeetingServiceWrap@ZOOMSDK@@QAE_NXZ 1001e900 f   zoom_native_sdk_wrap_core.obj
 0001:0001d920       ?IsMeetingSupportCC@IClosedCaptionControllerWrap@ZOOMSDK@@QAE_NXZ 1001e920 f   zoom_native_sdk_wrap_core.obj
 0001:0001d940       ?IsMicOriginalInputEnable@IAudioSettingContextWrap@ZOOMSDK@@QAE_NXZ 1001e940 f   zoom_native_sdk_wrap_core.obj
 0001:0001d960       ?IsMinimizeModeOfFristScreenMeetingUIWnd@IMeetingUIControllerWrap@ZOOMSDK@@QAE_NAAW4SDKMinimizeUIMode@2@@Z 1001e960 f   zoom_native_sdk_wrap_core.obj
 0001:0001d980       ?IsMultiAudioStreamRecordEnabled@IRecordingSettingContextWrap@ZOOMSDK@@QAE_NXZ 1001e980 f   zoom_native_sdk_wrap_core.obj
 0001:0001d9a0       ?IsOptimizeFor3rdPartyVideoEditorEnabled@IRecordingSettingContextWrap@ZOOMSDK@@QAE_NXZ 1001e9a0 f   zoom_native_sdk_wrap_core.obj
 0001:0001d9c0       ?IsPlaceVideoNextToShareInRecordEnabled@IRecordingSettingContextWrap@ZOOMSDK@@QAE_NXZ 1001e9c0 f   zoom_native_sdk_wrap_core.obj
 0001:0001d9e0       ?IsSaveCCEnabled@IClosedCaptionControllerWrap@ZOOMSDK@@QAE_NXZ 1001e9e0 f   zoom_native_sdk_wrap_core.obj
 0001:0001da00       ?IsSelectRecordFileLocationAfterMeetingEnabled@IRecordingSettingContextWrap@ZOOMSDK@@QAE_NXZ 1001ea00 f   zoom_native_sdk_wrap_core.obj
 0001:0001da20       ?IsShareLocked@IMeetingShareControllerWrap@ZOOMSDK@@QAE?AW4SDKError@2@AA_N@Z 1001ea20 f   zoom_native_sdk_wrap_core.obj
 0001:0001da40       ?IsShowVideoThumbnailWhenShareEnabled@IRecordingSettingContextWrap@ZOOMSDK@@QAE_NXZ 1001ea40 f   zoom_native_sdk_wrap_core.obj
 0001:0001da60       ?IsSpotlightSelfEnabled@IVideoSettingContextWrap@ZOOMSDK@@QAE_NXZ 1001ea60 f   zoom_native_sdk_wrap_core.obj
 0001:0001da80       ?IsStereoAudioEnable@IAudioSettingContextWrap@ZOOMSDK@@QAE_NXZ 1001ea80 f   zoom_native_sdk_wrap_core.obj
 0001:0001daa0       ?IsSupportAdvanceShareOption@IMeetingShareControllerWrap@ZOOMSDK@@QAE?AW4SDKError@2@W4AdvanceShareOption@2@@Z 1001eaa0 f   zoom_native_sdk_wrap_core.obj
 0001:0001dac0       ?IsSupportAttendeeTalk@IMeetingWebinarControllerWrap@ZOOMSDK@@QAE?AW4SDKError@2@XZ 1001eac0 f   zoom_native_sdk_wrap_core.obj
 0001:0001dae0       ?IsSupportEnableOptimizeForFullScreenVideoClip@IMeetingShareControllerWrap@ZOOMSDK@@QAE_NAA_N@Z 1001eae0 f   zoom_native_sdk_wrap_core.obj
 0001:0001db00       ?IsSupportEnableShareComputerSound@IMeetingShareControllerWrap@ZOOMSDK@@QAE_NAA_N@Z 1001eb00 f   zoom_native_sdk_wrap_core.obj
 0001:0001db20       ?IsSupportLocalRecording@IMeetingRecordingControllerWrap@ZOOMSDK@@QAE?AW4SDKError@2@I@Z 1001eb20 f   zoom_native_sdk_wrap_core.obj
 0001:0001db40       ?IsSupportPhoneFeature@IMeetingPhoneHelperWrap@ZOOMSDK@@QAE_NXZ 1001eb40 f   zoom_native_sdk_wrap_core.obj
 0001:0001db60       ?IsSupportWaitingRoom@IMeetingWaitingRoomControllerWrap@ZOOMSDK@@QAE_NXZ 1001eb60 f   zoom_native_sdk_wrap_core.obj
 0001:0001db80       ?IsSuppressAudioNotifyEnabled@IAudioSettingContextWrap@ZOOMSDK@@QAE_NXZ 1001eb80 f   zoom_native_sdk_wrap_core.obj
 0001:0001dba0       ?IsValid@ICameraControllerWrap@ZOOMSDK@@QAE_NXZ 1001eba0 f   zoom_native_sdk_wrap_core.obj
 0001:0001dbc0       ?IsVideoMirrorEffectEnabled@IVideoSettingContextWrap@ZOOMSDK@@QAE_NXZ 1001ebc0 f   zoom_native_sdk_wrap_core.obj
 0001:0001dbe0       ?IsViewerAnnotationDisabled@IAnnotationControllerWrap@ZOOMSDK@@QAE?AW4SDKError@2@W4SDKViewType@2@AA_N@Z 1001ebe0 f   zoom_native_sdk_wrap_core.obj
 0001:0001dc00       ?IsWaitingRoomOnEntryFlagOn@IMeetingWaitingRoomControllerWrap@ZOOMSDK@@QAE_NXZ 1001ec00 f   zoom_native_sdk_wrap_core.obj
 0001:0001dc20       ?Join@IMeetingServiceWrap@ZOOMSDK@@QAE?AW4SDKError@2@AAUtagJoinParam@2@@Z 1001ec20 f   zoom_native_sdk_wrap_core.obj
 0001:0001dc40       ?JoinBreakoutRoom@IMeetingBreakoutRoomsControllerWrap@ZOOMSDK@@QAE?AW4SDKError@2@PB_W@Z 1001ec40 f   zoom_native_sdk_wrap_core.obj
 0001:0001dc60       ?JoinVoip@IMeetingAudioControllerWrap@ZOOMSDK@@QAE?AW4SDKError@2@XZ 1001ec60 f   zoom_native_sdk_wrap_core.obj
 0001:0001dc80       ?Leave@IMeetingServiceWrap@ZOOMSDK@@QAE?AW4SDKError@2@W4LeaveMeetingCmd@2@@Z 1001ec80 f   zoom_native_sdk_wrap_core.obj
 0001:0001dca0       ?LeaveBreakoutRoom@IMeetingBreakoutRoomsControllerWrap@ZOOMSDK@@QAE?AW4SDKError@2@XZ 1001eca0 f   zoom_native_sdk_wrap_core.obj
 0001:0001dcc0       ?LeaveRemoteControllingStatus@IMeetingRemoteControllerWrap@ZOOMSDK@@QAE?AW4SDKError@2@I@Z 1001ecc0 f   zoom_native_sdk_wrap_core.obj
 0001:0001dce0       ?LeaveVoip@IMeetingAudioControllerWrap@ZOOMSDK@@QAE?AW4SDKError@2@XZ 1001ece0 f   zoom_native_sdk_wrap_core.obj
 0001:0001dd00       ?ListMeeting@IPreMeetingServiceWrap@ZOOMSDK@@QAE?AW4SDKError@2@XZ 1001ed00 f   zoom_native_sdk_wrap_core.obj
 0001:0001dd20       ?LockMeeting@IMeetingServiceWrap@ZOOMSDK@@QAE?AW4SDKError@2@XZ 1001ed20 f   zoom_native_sdk_wrap_core.obj
 0001:0001dd40       ?LockShare@IMeetingShareControllerWrap@ZOOMSDK@@QAE?AW4SDKError@2@XZ 1001ed40 f   zoom_native_sdk_wrap_core.obj
 0001:0001dd60       ?LogOut@IAuthServiceWrap@ZOOMSDK@@QAE?AW4SDKError@2@XZ 1001ed60 f   zoom_native_sdk_wrap_core.obj
 0001:0001dd80       ?Login@IAuthServiceWrap@ZOOMSDK@@QAE?AW4SDKError@2@AAUtagLoginParam@2@@Z 1001ed80 f   zoom_native_sdk_wrap_core.obj
 0001:0001dda0       ?LowerAllHands@IMeetingParticipantsControllerWrap@ZOOMSDK@@QAE?AW4SDKError@2@XZ 1001eda0 f   zoom_native_sdk_wrap_core.obj
 0001:0001ddc0       ?LowerHand@IMeetingParticipantsControllerWrap@ZOOMSDK@@QAE?AW4SDKError@2@I@Z 1001edc0 f   zoom_native_sdk_wrap_core.obj
 0001:0001dde0       ?MakeHost@IMeetingParticipantsControllerWrap@ZOOMSDK@@QAE?AW4SDKError@2@I@Z 1001ede0 f   zoom_native_sdk_wrap_core.obj
 0001:0001de00       ?MonitorWnd@IUIHookerWrap@ZOOMSDK@@QAE?AW4SDKError@2@PB_W_N@Z 1001ee00 f   zoom_native_sdk_wrap_core.obj
 0001:0001de20       ?MonitorWndMessage@IUIHookerWrap@ZOOMSDK@@QAE?AW4SDKError@2@I_N@Z 1001ee20 f   zoom_native_sdk_wrap_core.obj
 0001:0001de40       ?MoveFloatVideoWnd@IMeetingUIControllerWrap@ZOOMSDK@@QAE?AW4SDKError@2@HH@Z 1001ee40 f   zoom_native_sdk_wrap_core.obj
 0001:0001de60       ?MuteAudio@IMeetingAudioControllerWrap@ZOOMSDK@@QAE?AW4SDKError@2@I_N@Z 1001ee60 f   zoom_native_sdk_wrap_core.obj
 0001:0001de80       ?MuteVideo@IMeetingVideoControllerWrap@ZOOMSDK@@QAE?AW4SDKError@2@XZ 1001ee80 f   zoom_native_sdk_wrap_core.obj
 0001:0001dea0       ?Navigate@IEmbeddedBrowserWrap@ZOOMSDK@@QAE?AW4SDKError@2@PBD@Z 1001eea0 f   zoom_native_sdk_wrap_core.obj
 0001:0001dec0       ?NotifyBeforeNavigate@IEmbeddedBrowserWrap@ZOOMSDK@@UAEXPBD@Z 1001eec0 f i zoom_native_sdk_wrap_core.obj
 0001:0001df10       ?NotifyDocumentComplete@IEmbeddedBrowserWrap@ZOOMSDK@@UAEXPBD@Z 1001ef10 f i zoom_native_sdk_wrap_core.obj
 0001:0001df60       ?NotifyNavigateError@IEmbeddedBrowserWrap@ZOOMSDK@@UAEXPBDW4NavigateError@2@H@Z 1001ef60 f i zoom_native_sdk_wrap_core.obj
 0001:0001dfe0       ?OnBreakoutRoomsStartedNotification@IMeetingBreakoutRoomsControllerWrap@ZOOMSDK@@UAEXPB_W@Z 1001efe0 f i zoom_native_sdk_wrap_core.obj
 0001:0001e030       ?OnDirectShareStatusUpdate@IDirectShareServiceHelperWrap@ZOOMSDK@@UAEXW4DirectShareStatusStatus_Enum@2@PAVIDirectShareViaMeetingIDOrPairingCodeHandler@2@@Z 1001f030 f i zoom_native_sdk_wrap_core.obj
 0001:0001e090       ?PauseCurrentSharing@IMeetingShareControllerWrap@ZOOMSDK@@QAE?AW4SDKError@2@XZ 1001f090 f   zoom_native_sdk_wrap_core.obj
 0001:0001e0b0       ?PinVideo@IMeetingVideoControllerWrap@ZOOMSDK@@QAE?AW4SDKError@2@_N0I@Z 1001f0b0 f   zoom_native_sdk_wrap_core.obj
 0001:0001e0d0       ?PrePopulateWebinarRegistrationInfo@IMeetingConfigurationWrap@ZOOMSDK@@QAEXPB_W0@Z 1001f0d0 f   zoom_native_sdk_wrap_core.obj
 0001:0001e0f0       ?PromptAttendee2Panelist@IMeetingWebinarControllerWrap@ZOOMSDK@@QAE?AW4SDKError@2@I@Z 1001f0f0 f   zoom_native_sdk_wrap_core.obj
 0001:0001e110       ?PutInWaitingRoom@IMeetingWaitingRoomControllerWrap@ZOOMSDK@@QAE?AW4SDKError@2@I@Z 1001f110 f   zoom_native_sdk_wrap_core.obj
 0001:0001e130       ?RaiseHand@IMeetingParticipantsControllerWrap@ZOOMSDK@@QAE?AW4SDKError@2@XZ 1001f130 f   zoom_native_sdk_wrap_core.obj
 0001:0001e150       ?ReclaimHost@IMeetingParticipantsControllerWrap@ZOOMSDK@@QAE?AW4SDKError@2@XZ 1001f150 f   zoom_native_sdk_wrap_core.obj
 0001:0001e170       ?ReclaimHostByHostKey@IMeetingParticipantsControllerWrap@ZOOMSDK@@QAE?AW4SDKError@2@PB_W@Z 1001f170 f   zoom_native_sdk_wrap_core.obj
 0001:0001e190       ?RedirectClickAudioBTNEvent@IMeetingConfigurationWrap@ZOOMSDK@@QAEX_N@Z 1001f190 f   zoom_native_sdk_wrap_core.obj
 0001:0001e1b0       ?RedirectClickAudioMenuBTNEvent@IMeetingConfigurationWrap@ZOOMSDK@@QAEX_N@Z 1001f1b0 f   zoom_native_sdk_wrap_core.obj
 0001:0001e1d0       ?RedirectClickCCBTNEvent@IMeetingConfigurationWrap@ZOOMSDK@@QAEX_N@Z 1001f1d0 f   zoom_native_sdk_wrap_core.obj
 0001:0001e1f0       ?RedirectClickCustomLiveStreamMenuEvent@IMeetingConfigurationWrap@ZOOMSDK@@QAEX_N@Z 1001f1f0 f   zoom_native_sdk_wrap_core.obj
 0001:0001e210       ?RedirectClickEndMeetingBTNEvent@IMeetingConfigurationWrap@ZOOMSDK@@QAEX_N@Z 1001f210 f   zoom_native_sdk_wrap_core.obj
 0001:0001e230       ?RedirectClickParticipantListBTNEvent@IMeetingConfigurationWrap@ZOOMSDK@@QAEX_N@Z 1001f230 f   zoom_native_sdk_wrap_core.obj
 0001:0001e250       ?RedirectClickShareBTNEvent@IMeetingConfigurationWrap@ZOOMSDK@@QAEX_N@Z 1001f250 f   zoom_native_sdk_wrap_core.obj
 0001:0001e270       ?RedirectEndOtherMeeting@IMeetingConfigurationWrap@ZOOMSDK@@QAEX_N@Z 1001f270 f   zoom_native_sdk_wrap_core.obj
 0001:0001e290       ?RedirectFreeMeetingEndingReminderDlg@IMeetingConfigurationWrap@ZOOMSDK@@QAEX_N@Z 1001f290 f   zoom_native_sdk_wrap_core.obj
 0001:0001e2b0       ?RedirectMeetingWarningMsg@IMeetingConfigurationWrap@ZOOMSDK@@QAEXUtagRedirectWarningMsgOption@2@@Z 1001f2b0 f   zoom_native_sdk_wrap_core.obj
 0001:0001e2d0       ?RedirectWebinarNeedRegister@IMeetingConfigurationWrap@ZOOMSDK@@QAEX_N@Z 1001f2d0 f   zoom_native_sdk_wrap_core.obj
 0001:0001e2f0       ?Redo@IAnnotationControllerWrap@ZOOMSDK@@QAE?AW4SDKError@2@W4SDKViewType@2@@Z 1001f2f0 f   zoom_native_sdk_wrap_core.obj
 0001:0001e310       ?RegisterNetworkConnectionHandler@INetworkConnectionHelperWrap@ZOOMSDK@@UAE?AW4SDKError@2@PAVINetworkConnectionHandler@2@@Z 1001f310 f i zoom_native_sdk_wrap_core.obj
 0001:0001e360       ?RequestCustomizedLocalRecordingSource@IMeetingRecordingControllerWrap@ZOOMSDK@@QAE?AW4SDKError@2@XZ 1001f360 f   zoom_native_sdk_wrap_core.obj
 0001:0001e380       ?RequestRemoteControl@IMeetingRemoteControllerWrap@ZOOMSDK@@QAE?AW4SDKError@2@I@Z 1001f380 f   zoom_native_sdk_wrap_core.obj
 0001:0001e3a0       ?Reset@CSDKImpl@@AAEXXZ    1001f3a0 f   zoom_native_sdk_wrap_core.obj
 0001:0001e490       ?Reset@IMeetingConfigurationWrap@ZOOMSDK@@QAEXXZ 1001f490 f   zoom_native_sdk_wrap_core.obj
 0001:0001e4b0       ?Resize@IEmbeddedBrowserWrap@ZOOMSDK@@QAE?AW4SDKError@2@XZ 1001f4b0 f   zoom_native_sdk_wrap_core.obj
 0001:0001e4d0       ?ResumeCurrentSharing@IMeetingShareControllerWrap@ZOOMSDK@@QAE?AW4SDKError@2@XZ 1001f4d0 f   zoom_native_sdk_wrap_core.obj
 0001:0001e4f0       ?RetrieveAudioRawDataChannel@CSDKImpl@@UAE?AW4SDKError@ZOOMSDK@@PAPAVIAudioRawDataChannel@ZOOMSDKRAWDATA@@@Z 1001f4f0 f   zoom_native_sdk_wrap_core.obj
 0001:0001e570       ?RetrieveCalEvents@ICalenderServiceWrap@ZOOMSDK@@QAE?AW4SDKError@2@W4CalenderAuthType@2@@Z 1001f570 f   zoom_native_sdk_wrap_core.obj
 0001:0001e590       ?RetrieveCustomizedResourceHelper@CSDKImpl@@UAE?AW4SDKError@ZOOMSDK@@PAPAVICustomizedResourceHelper@3@@Z 1001f590 f   zoom_native_sdk_wrap_core.obj
 0001:0001e5c0       ?RetrieveShareRawDataChannel@CSDKImpl@@UAE?AW4SDKError@ZOOMSDK@@PAPAVIShareRawDataChannel@ZOOMSDKRAWDATA@@@Z 1001f5c0 f   zoom_native_sdk_wrap_core.obj
 0001:0001e640       ?RetrieveUIHooker@CSDKImpl@@UAE?AW4SDKError@ZOOMSDK@@PAPAVIUIHooker@3@@Z 1001f640 f   zoom_native_sdk_wrap_core.obj
 0001:0001e670       ?RetrieveVideoRawDataChannel@CSDKImpl@@UAE?AW4SDKError@ZOOMSDK@@PAPAVIVideoRawDataChannel@ZOOMSDKRAWDATA@@@Z 1001f670 f   zoom_native_sdk_wrap_core.obj
 0001:0001e6f0       ?RevokeCoHost@IMeetingParticipantsControllerWrap@ZOOMSDK@@QAE?AW4SDKError@2@I@Z 1001f6f0 f   zoom_native_sdk_wrap_core.obj
 0001:0001e710       ?RevokeRemoteControl@IMeetingRemoteControllerWrap@ZOOMSDK@@QAE?AW4SDKError@2@XZ 1001f710 f   zoom_native_sdk_wrap_core.obj
 0001:0001e730       ?SDKAuth@IAuthServiceWrap@ZOOMSDK@@QAE?AW4SDKError@2@AAUtagAuthContext@2@@Z 1001f730 f   zoom_native_sdk_wrap_core.obj
 0001:0001e750       ?SDKAuth@IAuthServiceWrap@ZOOMSDK@@QAE?AW4SDKError@2@AAUtagAuthParam@2@@Z 1001f750 f   zoom_native_sdk_wrap_core.obj
 0001:0001e770       ?SaveCCHistory@IClosedCaptionControllerWrap@ZOOMSDK@@QAE?AW4SDKError@2@XZ 1001f770 f   zoom_native_sdk_wrap_core.obj
 0001:0001e790       ?ScheduleMeeting@IPreMeetingServiceWrap@ZOOMSDK@@QAE?AW4SDKError@2@AAUtagWndPosition@2@@Z 1001f790 f   zoom_native_sdk_wrap_core.obj
 0001:0001e7b0       ?ScheduleMeeting@IPreMeetingServiceWrap@ZOOMSDK@@QAE?AW4SDKError@2@PAVIScheduleMeetingItem@2@@Z 1001f7b0 f   zoom_native_sdk_wrap_core.obj
 0001:0001e7d0       ?SelectCamera@IVideoSettingContextWrap@ZOOMSDK@@QAE?AW4SDKError@2@PB_W@Z 1001f7d0 f   zoom_native_sdk_wrap_core.obj
 0001:0001e7f0       ?SelectMic@IAudioSettingContextWrap@ZOOMSDK@@QAE?AW4SDKError@2@PB_W0@Z 1001f7f0 f   zoom_native_sdk_wrap_core.obj
 0001:0001e810       ?SelectSpeaker@IAudioSettingContextWrap@ZOOMSDK@@QAE?AW4SDKError@2@PB_W0@Z 1001f810 f   zoom_native_sdk_wrap_core.obj
 0001:0001e830       ?SendChat4WebinarMeeting@IMeetingChatControllerWrap@ZOOMSDK@@QAE?AW4SDKError@2@AAUtagSendChatItem4Webinar@2@@Z 1001f830 f   zoom_native_sdk_wrap_core.obj
 0001:0001e850       ?SendChatTo@IMeetingChatControllerWrap@ZOOMSDK@@QAE?AW4SDKError@2@IPA_W@Z 1001f850 f   zoom_native_sdk_wrap_core.obj
 0001:0001e870       ?SendClosedCaption@IClosedCaptionControllerWrap@ZOOMSDK@@QAE?AW4SDKError@2@PB_W@Z 1001f870 f   zoom_native_sdk_wrap_core.obj
 0001:0001e890       ?SendMeetingParingCode@IMeetingH323HelperWrap@ZOOMSDK@@QAE?AW4SDKError@2@_KPA_W@Z 1001f890 f   zoom_native_sdk_wrap_core.obj
 0001:0001e8c0       ?SetAlwaysShowMeetingIDOnTitle@IMeetingConfigurationWrap@ZOOMSDK@@QAEX_N@Z 1001f8c0 f   zoom_native_sdk_wrap_core.obj
 0001:0001e8e0       ?SetAudioDeviceEvent@IAudioSettingContextWrap@ZOOMSDK@@UAE?AW4SDKError@2@PAVIAudioSettingContextEvent@2@@Z 1001f8e0 f i zoom_native_sdk_wrap_core.obj
 0001:0001e8f0       ?SetBottomFloatToolbarWndVisibility@IMeetingConfigurationWrap@ZOOMSDK@@QAEX_N@Z 1001f8f0 f   zoom_native_sdk_wrap_core.obj
 0001:0001e910       ?SetColor@IAnnotationControllerWrap@ZOOMSDK@@QAE?AW4SDKError@2@W4SDKViewType@2@K@Z 1001f910 f   zoom_native_sdk_wrap_core.obj
 0001:0001e930       ?SetDefaultCellPhoneInfo@IZoomRealNameAuthMeetingHelperWrap@ZOOMSDK@@QAE_NPBD0@Z 1001f930 f   zoom_native_sdk_wrap_core.obj
 0001:0001e950       ?SetDirectShareMonitorID@IMeetingConfigurationWrap@ZOOMSDK@@QAEXPB_W@Z 1001f950 f   zoom_native_sdk_wrap_core.obj
 0001:0001e970       ?SetDisplayName@IScheduleForUserImpl@ZOOMSDK@@UAEXPB_W@Z 1001f970 f   zoom_native_sdk_wrap_core.obj
 0001:0001e9d0       ?SetEmail@IScheduleForUserImpl@ZOOMSDK@@UAEXPB_W@Z 1001f9d0 f   zoom_native_sdk_wrap_core.obj
 0001:0001ea30       ?SetEvent@IAnnotationControllerWrap@ZOOMSDK@@UAE?AW4SDKError@2@PAVIMeetingAnnotationSupportEvent@2@@Z 1001fa30 f i zoom_native_sdk_wrap_core.obj
 0001:0001ea40       ?SetEvent@IAuthServiceWrap@ZOOMSDK@@UAE?AW4SDKError@2@PAVIAuthServiceEvent@2@@Z 1001fa40 f i zoom_native_sdk_wrap_core.obj
 0001:0001ea50       ?SetEvent@ICameraControllerWrap@ZOOMSDK@@UAE?AW4SDKError@2@PAVICameraControllerEvent@2@@Z 1001fa50 f i zoom_native_sdk_wrap_core.obj
 0001:0001ea60       ?SetEvent@IClosedCaptionControllerWrap@ZOOMSDK@@UAE?AW4SDKError@2@PAVIClosedCaptionControllerEvent@2@@Z 1001fa60 f i zoom_native_sdk_wrap_core.obj
 0001:0001ea70       ?SetEvent@ICustomizedUIMgrWrap@ZOOMSDK@@QAE?AW4SDKError@2@PAVICustomizedUIMgrEvent@2@@Z 1001fa70 f   zoom_native_sdk_wrap_core.obj
 0001:0001ea90       ?SetEvent@IDirectShareServiceHelperWrap@ZOOMSDK@@UAE?AW4SDKError@2@PAVIDirectShareServiceHelperEvent@2@@Z 1001fa90 f i zoom_native_sdk_wrap_core.obj
 0001:0001eaa0       ?SetEvent@IEmbeddedBrowserWrap@ZOOMSDK@@UAE?AW4SDKError@2@PAVIEmbeddedBrowserEvent@2@@Z 1001faa0 f i zoom_native_sdk_wrap_core.obj
 0001:0001eab0       ?SetEvent@IMeetingAudioControllerWrap@ZOOMSDK@@UAE?AW4SDKError@2@PAVIMeetingAudioCtrlEvent@2@@Z 1001fab0 f i zoom_native_sdk_wrap_core.obj
 0001:0001eac0       ?SetEvent@IMeetingBreakoutRoomsControllerWrap@ZOOMSDK@@UAE?AW4SDKError@2@PAVIMeetingBreakoutRoomsEvent@2@@Z 1001fac0 f i zoom_native_sdk_wrap_core.obj
 0001:0001ead0       ?SetEvent@IMeetingChatControllerWrap@ZOOMSDK@@UAE?AW4SDKError@2@PAVIMeetingChatCtrlEvent@2@@Z 1001fad0 f i zoom_native_sdk_wrap_core.obj
 0001:0001eae0       ?SetEvent@IMeetingConfigurationWrap@ZOOMSDK@@UAEXPAVIMeetingConfigurationEvent@2@@Z 1001fae0 f i zoom_native_sdk_wrap_core.obj
 0001:0001eaf0       ?SetEvent@IMeetingH323HelperWrap@ZOOMSDK@@UAEXPAVIMeetingH323HelperEvent@2@@Z 1001faf0 f i zoom_native_sdk_wrap_core.obj
 0001:0001eb00       ?SetEvent@IMeetingLiveStreamControllerWrap@ZOOMSDK@@UAE?AW4SDKError@2@PAVIMeetingLiveStreamCtrlEvent@2@@Z 1001fb00 f i zoom_native_sdk_wrap_core.obj
 0001:0001eb10       ?SetEvent@IMeetingParticipantsControllerWrap@ZOOMSDK@@UAE?AW4SDKError@2@PAVIMeetingParticipantsCtrlEvent@2@@Z 1001fb10 f i zoom_native_sdk_wrap_core.obj
 0001:0001eb20       ?SetEvent@IMeetingPhoneHelperWrap@ZOOMSDK@@UAE?AW4SDKError@2@PAVIMeetingPhoneHelperEvent@2@@Z 1001fb20 f i zoom_native_sdk_wrap_core.obj
 0001:0001eb30       ?SetEvent@IMeetingRecordingControllerWrap@ZOOMSDK@@UAE?AW4SDKError@2@PAVIMeetingRecordingCtrlEvent@2@@Z 1001fb30 f i zoom_native_sdk_wrap_core.obj
 0001:0001eb40       ?SetEvent@IMeetingRemoteControllerWrap@ZOOMSDK@@UAE?AW4SDKError@2@PAVIMeetingRemoteCtrlEvent@2@@Z 1001fb40 f i zoom_native_sdk_wrap_core.obj
 0001:0001eb50       ?SetEvent@IMeetingServiceWrap@ZOOMSDK@@UAE?AW4SDKError@2@PAVIMeetingServiceEvent@2@@Z 1001fb50 f i zoom_native_sdk_wrap_core.obj
 0001:0001eb60       ?SetEvent@IMeetingShareControllerWrap@ZOOMSDK@@UAE?AW4SDKError@2@PAVIMeetingShareCtrlEvent@2@@Z 1001fb60 f i zoom_native_sdk_wrap_core.obj
 0001:0001eb70       ?SetEvent@IMeetingUIControllerWrap@ZOOMSDK@@UAE?AW4SDKError@2@PAVIMeetingUIControllerEvent@2@@Z 1001fb70 f i zoom_native_sdk_wrap_core.obj
 0001:0001eb80       ?SetEvent@IMeetingVideoControllerWrap@ZOOMSDK@@UAE?AW4SDKError@2@PAVIMeetingVideoCtrlEvent@2@@Z 1001fb80 f i zoom_native_sdk_wrap_core.obj
 0001:0001eb90       ?SetEvent@IMeetingWaitingRoomControllerWrap@ZOOMSDK@@UAE?AW4SDKError@2@PAVIMeetingWaitingRoomEvent@2@@Z 1001fb90 f i zoom_native_sdk_wrap_core.obj
 0001:0001eba0       ?SetEvent@IMeetingWebinarControllerWrap@ZOOMSDK@@UAE?AW4SDKError@2@PAVIMeetingWebinarCtrlEvent@2@@Z 1001fba0 f i zoom_native_sdk_wrap_core.obj
 0001:0001ebb0       ?SetEvent@IOutlookPluginIntegrationHelperWrap@ZOOMSDK@@UAE?AW4SDKError@2@PAVIOutlookPluginIntegrationHelperEvent@2@@Z 1001fbb0 f i zoom_native_sdk_wrap_core.obj
 0001:0001ebc0       ?SetEvent@IPreMeetingServiceWrap@ZOOMSDK@@UAE?AW4SDKError@2@PAVIPreMeetingServiceEvent@2@@Z 1001fbc0 f i zoom_native_sdk_wrap_core.obj
 0001:0001ebd0       ?SetEvent@IUIHookerWrap@ZOOMSDK@@UAE?AW4SDKError@2@PAVIUIHookerEvent@2@@Z 1001fbd0 f i zoom_native_sdk_wrap_core.obj
 0001:0001ebe0       ?SetFloatVideoPos@IMeetingConfigurationWrap@ZOOMSDK@@QAEXUtagWndPosition@2@@Z 1001fbe0 f   zoom_native_sdk_wrap_core.obj
 0001:0001ec10       ?SetFloatVideoWndVisibility@IMeetingConfigurationWrap@ZOOMSDK@@QAEX_N@Z 1001fc10 f   zoom_native_sdk_wrap_core.obj
 0001:0001ec30       ?SetLineWidth@IAnnotationControllerWrap@ZOOMSDK@@QAE?AW4SDKError@2@W4SDKViewType@2@J@Z 1001fc30 f   zoom_native_sdk_wrap_core.obj
 0001:0001ec50       ?SetLiveStreamURL@IMeetingLiveStreamItemImpl@ZOOMSDK@@UAEXPB_W@Z 1001fc50 f   zoom_native_sdk_wrap_core.obj
 0001:0001ecb0       ?SetLiveStreamURLDescription@IMeetingLiveStreamItemImpl@ZOOMSDK@@UAEXPB_W@Z 1001fcb0 f   zoom_native_sdk_wrap_core.obj
 0001:0001ed10       ?SetMaxDurationForOnlyHostInMeeting@IMeetingConfigurationWrap@ZOOMSDK@@QAEXH@Z 1001fd10 f   zoom_native_sdk_wrap_core.obj
 0001:0001ed30       ?SetMeetingIDForMeetingUITitle@IMeetingConfigurationWrap@ZOOMSDK@@QAEX_K@Z 1001fd30 f   zoom_native_sdk_wrap_core.obj
 0001:0001ed50       ?SetMeetingUIPos@IMeetingConfigurationWrap@ZOOMSDK@@QAEXUtagWndPosition@2@@Z 1001fd50 f   zoom_native_sdk_wrap_core.obj
 0001:0001ed80       ?SetMicVol@IAudioSettingContextWrap@ZOOMSDK@@QAE?AW4SDKError@2@AAM@Z 1001fd80 f   zoom_native_sdk_wrap_core.obj
 0001:0001eda0       ?SetMultiShareSettingOptions@IMeetingShareControllerWrap@ZOOMSDK@@QAE?AW4SDKError@2@W4MultiShareOption@2@@Z 1001fda0 f   zoom_native_sdk_wrap_core.obj
 0001:0001edc0       ?SetPMINumber@IScheduleForUserImpl@ZOOMSDK@@UAEX_K@Z 1001fdc0 f   zoom_native_sdk_wrap_core.obj
 0001:0001ede0       ?SetRecordingPath@IRecordingSettingContextWrap@ZOOMSDK@@QAE?AW4SDKError@2@PB_W@Z 1001fde0 f   zoom_native_sdk_wrap_core.obj
 0001:0001ee00       ?SetRecordingSettingEvent@IRecordingSettingContextWrap@ZOOMSDK@@UAE?AW4SDKError@2@PAVIRecordingSettingContextEvent@2@@Z 1001fe00 f i zoom_native_sdk_wrap_core.obj
 0001:0001ee10       ?SetSharingToolbarVisibility@IMeetingConfigurationWrap@ZOOMSDK@@QAEX_N@Z 1001fe10 f   zoom_native_sdk_wrap_core.obj
 0001:0001ee30       ?SetShowAudioUseComputerSoundChkbox@IMeetingConfigurationWrap@ZOOMSDK@@QAEX_N@Z 1001fe30 f   zoom_native_sdk_wrap_core.obj
 0001:0001ee50       ?SetShowCallInTab@IMeetingConfigurationWrap@ZOOMSDK@@QAEX_N@Z 1001fe50 f   zoom_native_sdk_wrap_core.obj
 0001:0001ee70       ?SetShowCallMeTab@IMeetingConfigurationWrap@ZOOMSDK@@QAEX_N@Z 1001fe70 f   zoom_native_sdk_wrap_core.obj
 0001:0001ee90       ?SetShowH323SubTabPage@IMeetingConfigurationWrap@ZOOMSDK@@QAEXW4SDKH323TabPage@2@_N@Z 1001fe90 f   zoom_native_sdk_wrap_core.obj
 0001:0001eeb0       ?SetShowInviteDlgTabPage@IMeetingConfigurationWrap@ZOOMSDK@@QAEXW4SDKInviteDlgTabPage@2@_N@Z 1001feb0 f   zoom_native_sdk_wrap_core.obj
 0001:0001eed0       ?SetShowVideoOptimizeChkbox@IMeetingConfigurationWrap@ZOOMSDK@@QAEX_N@Z 1001fed0 f   zoom_native_sdk_wrap_core.obj
 0001:0001eef0       ?SetSpeakerVol@IAudioSettingContextWrap@ZOOMSDK@@QAE?AW4SDKError@2@AAM@Z 1001fef0 f   zoom_native_sdk_wrap_core.obj
 0001:0001ef10       ?SetTool@IAnnotationControllerWrap@ZOOMSDK@@QAE?AW4SDKError@2@W4SDKViewType@2@W4AnnotationToolType@2@@Z 1001ff10 f   zoom_native_sdk_wrap_core.obj
 0001:0001ef30       ?SetUICustomizedString@IMeetingConfigurationWrap@ZOOMSDK@@QAE?AW4SDKError@2@W4SDKCustomizedStringType@2@PB_W@Z 1001ff30 f   zoom_native_sdk_wrap_core.obj
 0001:0001ef50       ?SetVideoDeviceEvent@IVideoSettingContextWrap@ZOOMSDK@@UAE?AW4SDKError@2@PAVIVideoSettingContextEvent@2@@Z 1001ff50 f i zoom_native_sdk_wrap_core.obj
 0001:0001ef60       ?ShowBottomFloatToolbarWnd@IMeetingUIControllerWrap@ZOOMSDK@@QAE?AW4SDKError@2@_N@Z 1001ff60 f   zoom_native_sdk_wrap_core.obj
 0001:0001ef80       ?ShowChatDlg@IMeetingUIControllerWrap@ZOOMSDK@@QAE?AW4SDKError@2@AAUtagShowChatDlgParam@2@@Z 1001ff80 f   zoom_native_sdk_wrap_core.obj
 0001:0001efa0       ?ShowJoinAudioDlg@IMeetingUIControllerWrap@ZOOMSDK@@QAE?AW4SDKError@2@XZ 1001ffa0 f   zoom_native_sdk_wrap_core.obj
 0001:0001efc0       ?ShowParticipantsListWnd@IMeetingUIControllerWrap@ZOOMSDK@@QAE?AW4SDKError@2@_NAAPAUHWND__@@@Z 1001ffc0 f   zoom_native_sdk_wrap_core.obj
 0001:0001efe0       ?ShowPreOrNextPageVideo@IMeetingUIControllerWrap@ZOOMSDK@@QAE?AW4SDKError@2@_N@Z 1001ffe0 f   zoom_native_sdk_wrap_core.obj
 0001:0001f000       ?ShowSettingDlg@ISettingServiceWrap@ZOOMSDK@@QAE?AW4SDKError@2@AAUtagShowSettingDlgParam@2@@Z 10020000 f   zoom_native_sdk_wrap_core.obj
 0001:0001f020       ?ShowShareOptionDialog@IMeetingShareControllerWrap@ZOOMSDK@@QAE?AW4SDKError@2@XZ 10020020 f   zoom_native_sdk_wrap_core.obj
 0001:0001f040       ?ShowSharingAppSelectWnd@IMeetingShareControllerWrap@ZOOMSDK@@QAE?AW4SDKError@2@XZ 10020040 f   zoom_native_sdk_wrap_core.obj
 0001:0001f060       ?ShowSharingFrameWindows@IMeetingUIControllerWrap@ZOOMSDK@@QAE?AW4SDKError@2@_N@Z 10020060 f   zoom_native_sdk_wrap_core.obj
 0001:0001f080       ?ShowSharingToolbar@IMeetingUIControllerWrap@ZOOMSDK@@QAE?AW4SDKError@2@_N@Z 10020080 f   zoom_native_sdk_wrap_core.obj
 0001:0001f0a0       ?SpotlightVideo@IMeetingVideoControllerWrap@ZOOMSDK@@QAE?AW4SDKError@2@_NI@Z 100200a0 f   zoom_native_sdk_wrap_core.obj
 0001:0001f0c0       ?Start@IMeetingServiceWrap@ZOOMSDK@@QAE?AW4SDKError@2@AAUtagStartParam@2@@Z 100200c0 f   zoom_native_sdk_wrap_core.obj
 0001:0001f0e0       ?Start@IOutlookPluginIntegrationHelperWrap@ZOOMSDK@@QAE?AW4SDKError@2@PB_W@Z 100200e0 f   zoom_native_sdk_wrap_core.obj
 0001:0001f100       ?Start@IUIHookerWrap@ZOOMSDK@@QAE?AW4SDKError@2@XZ 10020100 f   zoom_native_sdk_wrap_core.obj
 0001:0001f120       ?StartAirPlayShare@IMeetingShareControllerWrap@ZOOMSDK@@QAE?AW4SDKError@2@XZ 10020120 f   zoom_native_sdk_wrap_core.obj
 0001:0001f140       ?StartAnnotation@IAnnotationControllerWrap@ZOOMSDK@@QAE?AW4SDKError@2@W4SDKViewType@2@HH@Z 10020140 f   zoom_native_sdk_wrap_core.obj
 0001:0001f160       ?StartAppShare@IMeetingShareControllerWrap@ZOOMSDK@@QAE?AW4SDKError@2@PAUHWND__@@@Z 10020160 f   zoom_native_sdk_wrap_core.obj
 0001:0001f180       ?StartCloudRecording@IMeetingRecordingControllerWrap@ZOOMSDK@@QAE?AW4SDKError@2@XZ 10020180 f   zoom_native_sdk_wrap_core.obj
 0001:0001f1a0       ?StartDirectShare@IDirectShareServiceHelperWrap@ZOOMSDK@@QAE?AW4SDKError@2@XZ 100201a0 f   zoom_native_sdk_wrap_core.obj
 0001:0001f1c0       ?StartLiveStream@IMeetingLiveStreamControllerWrap@ZOOMSDK@@QAE?AW4SDKError@2@PAVIMeetingLiveStreamItem@2@@Z 100201c0 f   zoom_native_sdk_wrap_core.obj
 0001:0001f1e0       ?StartLiveStreamWithSteamingURL@IMeetingLiveStreamControllerWrap@ZOOMSDK@@QAE?AW4SDKError@2@PB_W00@Z 100201e0 f   zoom_native_sdk_wrap_core.obj
 0001:0001f200       ?StartMonitorShare@IMeetingShareControllerWrap@ZOOMSDK@@QAE?AW4SDKError@2@PB_W@Z 10020200 f   zoom_native_sdk_wrap_core.obj
 0001:0001f220       ?StartOutlookExchangeCalender@ICalenderServiceWrap@ZOOMSDK@@QAE?AW4SDKError@2@AAUtagOutlookExchageAuth@2@@Z 10020220 f   zoom_native_sdk_wrap_core.obj
 0001:0001f240       ?StartRecording@IMeetingRecordingControllerWrap@ZOOMSDK@@QAE?AW4SDKError@2@AA_JPA_W@Z 10020240 f   zoom_native_sdk_wrap_core.obj
 0001:0001f260       ?StartShareCamera@IMeetingShareControllerWrap@ZOOMSDK@@QAE?AW4SDKError@2@XZ 10020260 f   zoom_native_sdk_wrap_core.obj
 0001:0001f280       ?StartShareFrame@IMeetingShareControllerWrap@ZOOMSDK@@QAE?AW4SDKError@2@XZ 10020280 f   zoom_native_sdk_wrap_core.obj
 0001:0001f2a0       ?StartSharePureComputerAudio@IMeetingShareControllerWrap@ZOOMSDK@@QAE?AW4SDKError@2@XZ 100202a0 f   zoom_native_sdk_wrap_core.obj
 0001:0001f2c0       ?StartWhiteBoardShare@IMeetingShareControllerWrap@ZOOMSDK@@QAE?AW4SDKError@2@XZ 100202c0 f   zoom_native_sdk_wrap_core.obj
 0001:0001f2e0       ?Stop@IOutlookPluginIntegrationHelperWrap@ZOOMSDK@@QAE?AW4SDKError@2@XZ 100202e0 f   zoom_native_sdk_wrap_core.obj
 0001:0001f300       ?Stop@IUIHookerWrap@ZOOMSDK@@QAE?AW4SDKError@2@XZ 10020300 f   zoom_native_sdk_wrap_core.obj
 0001:0001f320       ?StopAnnotation@IAnnotationControllerWrap@ZOOMSDK@@QAE?AW4SDKError@2@W4SDKViewType@2@@Z 10020320 f   zoom_native_sdk_wrap_core.obj
 0001:0001f340       ?StopAttendeeVideo@IMeetingVideoControllerWrap@ZOOMSDK@@QAE?AW4SDKError@2@I@Z 10020340 f   zoom_native_sdk_wrap_core.obj
 0001:0001f360       ?StopCloudRecording@IMeetingRecordingControllerWrap@ZOOMSDK@@QAE?AW4SDKError@2@XZ 10020360 f   zoom_native_sdk_wrap_core.obj
 0001:0001f380       ?StopDirectShare@IDirectShareServiceHelperWrap@ZOOMSDK@@QAE?AW4SDKError@2@XZ 10020380 f   zoom_native_sdk_wrap_core.obj
 0001:0001f3a0       ?StopLiveStream@IMeetingLiveStreamControllerWrap@ZOOMSDK@@QAE?AW4SDKError@2@XZ 100203a0 f   zoom_native_sdk_wrap_core.obj
 0001:0001f3c0       ?StopOutlookExchangeCalender@ICalenderServiceWrap@ZOOMSDK@@QAE?AW4SDKError@2@XZ 100203c0 f   zoom_native_sdk_wrap_core.obj
 0001:0001f3e0       ?StopRecording@IMeetingRecordingControllerWrap@ZOOMSDK@@QAE?AW4SDKError@2@AA_J@Z 100203e0 f   zoom_native_sdk_wrap_core.obj
 0001:0001f400       ?StopShare@IMeetingShareControllerWrap@ZOOMSDK@@QAE?AW4SDKError@2@XZ 10020400 f   zoom_native_sdk_wrap_core.obj
 0001:0001f420       ?SwapToShowShareViewOrVideo@IMeetingUIControllerWrap@ZOOMSDK@@QAE?AW4SDKError@2@_N@Z 10020420 f   zoom_native_sdk_wrap_core.obj
 0001:0001f440       ?SwitchFloatVideoToActiveSpkMod@IMeetingUIControllerWrap@ZOOMSDK@@QAE?AW4SDKError@2@XZ 10020440 f   zoom_native_sdk_wrap_core.obj
 0001:0001f460       ?SwitchFloatVideoToGalleryMod@IMeetingUIControllerWrap@ZOOMSDK@@QAE?AW4SDKError@2@XZ 10020460 f   zoom_native_sdk_wrap_core.obj
 0001:0001f480       ?SwitchMinimizeUIMode4FristScreenMeetingUIWnd@IMeetingUIControllerWrap@ZOOMSDK@@QAE?AW4SDKError@2@W4SDKMinimizeUIMode@2@@Z 10020480 f   zoom_native_sdk_wrap_core.obj
 0001:0001f4a0       ?SwitchSplitScreenMode@IMeetingUIControllerWrap@ZOOMSDK@@QAE?AW4SDKError@2@_N@Z 100204a0 f   zoom_native_sdk_wrap_core.obj
 0001:0001f4c0       ?SwitchToFitWindowModeWhenViewShare@IMeetingShareControllerWrap@ZOOMSDK@@QAE?AW4SDKError@2@W4SDKViewType@2@@Z 100204c0 f   zoom_native_sdk_wrap_core.obj
 0001:0001f4e0       ?SwitchToOriginalSizeModeWhenViewShare@IMeetingShareControllerWrap@ZOOMSDK@@QAE?AW4SDKError@2@W4SDKViewType@2@@Z 100204e0 f   zoom_native_sdk_wrap_core.obj
 0001:0001f500       ?SwitchToVideoWall@IMeetingUIControllerWrap@ZOOMSDK@@QAE?AW4SDKError@2@XZ 10020500 f   zoom_native_sdk_wrap_core.obj
 0001:0001f520       ?SwtichToAcitveSpeaker@IMeetingUIControllerWrap@ZOOMSDK@@QAE?AW4SDKError@2@XZ 10020520 f   zoom_native_sdk_wrap_core.obj
 0001:0001f540       ?UnMuteAudio@IMeetingAudioControllerWrap@ZOOMSDK@@QAE?AW4SDKError@2@I@Z 10020540 f   zoom_native_sdk_wrap_core.obj
 0001:0001f560       ?UnRegisterNetworkConnectionHandler@INetworkConnectionHelperWrap@ZOOMSDK@@UAE?AW4SDKError@2@XZ 10020560 f i zoom_native_sdk_wrap_core.obj
 0001:0001f570       ?Undo@IAnnotationControllerWrap@ZOOMSDK@@QAE?AW4SDKError@2@W4SDKViewType@2@@Z 10020570 f   zoom_native_sdk_wrap_core.obj
 0001:0001f590       ?Uninit@CSDKImpl@@QAEXXZ   10020590 f   zoom_native_sdk_wrap_core.obj
 0001:0001f5c0       ?Uninit@IEmbeddedBrowserWrap@ZOOMSDK@@QAEXXZ 100205c0 f   zoom_native_sdk_wrap_core.obj
 0001:0001f600       ?UninitIAnnotationControllerFunc@ZOOMSDK@@YAXPAVIAnnotationController@1@@Z 10020600 f   zoom_native_sdk_wrap_core.obj
 0001:0001f620       ?UninitIAudioSettingContextFunc@ZOOMSDK@@YAXPAVIAudioSettingContext@1@@Z 10020620 f   zoom_native_sdk_wrap_core.obj
 0001:0001f640       ?UninitIAuthServiceFunc@ZOOMSDK@@YAXPAVIAuthService@1@@Z 10020640 f   zoom_native_sdk_wrap_core.obj
 0001:0001f660       ?UninitICalenderServiceFunc@ZOOMSDK@@YAXPAVICalenderService@1@@Z 10020660 f   zoom_native_sdk_wrap_core.obj
 0001:0001f690       ?UninitICameraControllerFunc@ZOOMSDK@@YAXPAVICameraController@1@@Z 10020690 f   zoom_native_sdk_wrap_core.obj
 0001:0001f6b0       ?UninitIClosedCaptionControllerFunc@ZOOMSDK@@YAXPAVIClosedCaptionController@1@@Z 100206b0 f   zoom_native_sdk_wrap_core.obj
 0001:0001f6d0       ?UninitICustomizedUIMgrFunc@ZOOMSDK@@YAXPAVICustomizedUIMgr@1@@Z 100206d0 f   zoom_native_sdk_wrap_core.obj
 0001:0001f6f0       ?UninitIDirectShareServiceHelperFunc@ZOOMSDK@@YAXPAVIDirectShareServiceHelper@1@@Z 100206f0 f   zoom_native_sdk_wrap_core.obj
 0001:0001f710       ?UninitIMeetingAudioControllerFunc@ZOOMSDK@@YAXPAVIMeetingAudioController@1@@Z 10020710 f   zoom_native_sdk_wrap_core.obj
 0001:0001f730       ?UninitIMeetingBreakoutRoomsControllerFunc@ZOOMSDK@@YAXPAVIMeetingBreakoutRoomsController@1@@Z 10020730 f   zoom_native_sdk_wrap_core.obj
 0001:0001f750       ?UninitIMeetingChatControllerFunc@ZOOMSDK@@YAXPAVIMeetingChatController@1@@Z 10020750 f   zoom_native_sdk_wrap_core.obj
 0001:0001f770       ?UninitIMeetingConfigurationFunc@ZOOMSDK@@YAXPAVIMeetingConfiguration@1@@Z 10020770 f   zoom_native_sdk_wrap_core.obj
 0001:0001f790       ?UninitIMeetingH323HelperFunc@ZOOMSDK@@YAXPAVIMeetingH323Helper@1@@Z 10020790 f   zoom_native_sdk_wrap_core.obj
 0001:0001f7b0       ?UninitIMeetingLiveStreamControllerFunc@ZOOMSDK@@YAXPAVIMeetingLiveStreamController@1@@Z 100207b0 f   zoom_native_sdk_wrap_core.obj
 0001:0001f7d0       ?UninitIMeetingParticipantsControllerFunc@ZOOMSDK@@YAXPAVICustomizedAnnotationController@1@@Z 100207d0 f   zoom_native_sdk_wrap_core.obj
 0001:0001f7f0       ?UninitIMeetingParticipantsControllerFunc@ZOOMSDK@@YAXPAVIMeetingParticipantsController@1@@Z 100207f0 f   zoom_native_sdk_wrap_core.obj
 0001:0001f810       ?UninitIMeetingPhoneHelperFunc@ZOOMSDK@@YAXPAVIMeetingPhoneHelper@1@@Z 10020810 f   zoom_native_sdk_wrap_core.obj
 0001:0001f830       ?UninitIMeetingRecordingControllerFunc@ZOOMSDK@@YAXPAVIMeetingRecordingController@1@@Z 10020830 f   zoom_native_sdk_wrap_core.obj
 0001:0001f850       ?UninitIMeetingRemoteControllerFunc@ZOOMSDK@@YAXPAVIMeetingRemoteController@1@@Z 10020850 f   zoom_native_sdk_wrap_core.obj
 0001:0001f870       ?UninitIMeetingServiceFunc@ZOOMSDK@@YAXPAVIMeetingService@1@@Z 10020870 f   zoom_native_sdk_wrap_core.obj
 0001:0001f890       ?UninitIMeetingShareControllerFunc@ZOOMSDK@@YAXPAVIMeetingShareController@1@@Z 10020890 f   zoom_native_sdk_wrap_core.obj
 0001:0001f8b0       ?UninitIMeetingUIControllerFunc@ZOOMSDK@@YAXPAVIMeetingUIController@1@@Z 100208b0 f   zoom_native_sdk_wrap_core.obj
 0001:0001f8d0       ?UninitIMeetingVideoControllerFunc@ZOOMSDK@@YAXPAVIMeetingVideoController@1@@Z 100208d0 f   zoom_native_sdk_wrap_core.obj
 0001:0001f8f0       ?UninitIMeetingWaitingRoomControllerFunc@ZOOMSDK@@YAXPAVIMeetingWaitingRoomController@1@@Z 100208f0 f   zoom_native_sdk_wrap_core.obj
 0001:0001f910       ?UninitIMeetingWebinarControllerFunc@ZOOMSDK@@YAXPAVIMeetingWebinarController@1@@Z 10020910 f   zoom_native_sdk_wrap_core.obj
 0001:0001f930       ?UninitINetworkConnectionHelperFunc@ZOOMSDK@@YAXPAVINetworkConnectionHelper@1@@Z 10020930 f   zoom_native_sdk_wrap_core.obj
 0001:0001f960       ?UninitIOutlookPluginIntegrationHelperFunc@ZOOMSDK@@YAXPAVIOutlookPluginIntegrationHelper@1@@Z 10020960 f   zoom_native_sdk_wrap_core.obj
 0001:0001f980       ?UninitIPreMeetingServiceFunc@ZOOMSDK@@YAXPAVIPreMeetingService@1@@Z 10020980 f   zoom_native_sdk_wrap_core.obj
 0001:0001f9a0       ?UninitIRecordingSettingContextFunc@ZOOMSDK@@YAXPAVIRecordingSettingContext@1@@Z 100209a0 f   zoom_native_sdk_wrap_core.obj
 0001:0001f9c0       ?UninitISettingServiceFunc@ZOOMSDK@@YAXPAVISettingService@1@@Z 100209c0 f   zoom_native_sdk_wrap_core.obj
 0001:0001f9e0       ?UninitIUIHookerFunc@ZOOMSDK@@YAXPAVIUIHooker@1@@Z 100209e0 f   zoom_native_sdk_wrap_core.obj
 0001:0001fa10       ?UninitIVideoSettingContextFunc@ZOOMSDK@@YAXPAVIVideoSettingContext@1@@Z 10020a10 f   zoom_native_sdk_wrap_core.obj
 0001:0001fa30       ?UninitIZoomRealNameAuthMeetingHelperFunc@ZOOMSDK@@YAXPAVIZoomRealNameAuthMeetingHelper@@@Z 10020a30 f   zoom_native_sdk_wrap_core.obj
 0001:0001fa50       ?UnlockMeeting@IMeetingServiceWrap@ZOOMSDK@@QAE?AW4SDKError@2@XZ 10020a50 f   zoom_native_sdk_wrap_core.obj
 0001:0001fa70       ?UnlockShare@IMeetingShareControllerWrap@ZOOMSDK@@QAE?AW4SDKError@2@XZ 10020a70 f   zoom_native_sdk_wrap_core.obj
 0001:0001fa90       ?UnmuteVideo@IMeetingVideoControllerWrap@ZOOMSDK@@QAE?AW4SDKError@2@XZ 10020a90 f   zoom_native_sdk_wrap_core.obj
 0001:0001fab0       ?ViewShare@IMeetingShareControllerWrap@ZOOMSDK@@QAE?AW4SDKError@2@IW4SDKViewType@2@@Z 10020ab0 f   zoom_native_sdk_wrap_core.obj
 0001:0001fad0       ?_Chassign@?$basic_string@_WU?$char_traits@_W@std@@V?$allocator@_W@2@@std@@QAEXII_W@Z 10020ad0 f i zoom_native_sdk_wrap_core.obj
 0001:0001fb40       ?_Copy@?$basic_string@DU?$char_traits@D@std@@V?$allocator@D@2@@std@@QAEXII@Z 10020b40 f i zoom_native_sdk_wrap_core.obj
 0001:0001fc20       ?_Copy@?$basic_string@_WU?$char_traits@_W@std@@V?$allocator@_W@2@@std@@QAEXII@Z 10020c20 f i zoom_native_sdk_wrap_core.obj
 0001:0001fd00       ?_Destroy_if_not_nil@?$_Tree@V?$_Tmap_traits@V?$basic_string@_WU?$char_traits@_W@std@@V?$allocator@_W@2@@std@@V12@U?$less@V?$basic_string@_WU?$char_traits@_W@std@@V?$allocator@_W@2@@std@@@2@V?$allocator@U?$pair@$$CBV?$basic_string@_WU?$char_traits@_W@std@@V?$allocator@_W@2@@std@@V12@@std@@@2@$0A@@std@@@std@@IAEXPAU?$_Tree_node@U?$pair@$$CBV?$basic_string@_WU?$char_traits@_W@std@@V?$allocator@_W@2@@std@@V12@@std@@PAX@2@@Z 10020d00 f i zoom_native_sdk_wrap_core.obj
 0001:0001fd90       ?_Destroy_if_not_nil@?$_Tree@V?$_Tmap_traits@W4SDKCustomizedStringType@ZOOMSDK@@V?$basic_string@_WU?$char_traits@_W@std@@V?$allocator@_W@2@@std@@U?$less@W4SDKCustomizedStringType@ZOOMSDK@@@4@V?$allocator@U?$pair@$$CBW4SDKCustomizedStringType@ZOOMSDK@@V?$basic_string@_WU?$char_traits@_W@std@@V?$allocator@_W@2@@std@@@std@@@4@$0A@@std@@@std@@IAEXPAU?$_Tree_node@U?$pair@$$CBW4SDKCustomizedStringType@ZOOMSDK@@V?$basic_string@_WU?$char_traits@_W@std@@V?$allocator@_W@2@@std@@@std@@PAX@2@@Z 10020d90 f i zoom_native_sdk_wrap_core.obj
 0001:0001fde0       ?_Destroy_if_not_nil@?$_Tree@V?$_Tmap_traits@W4SDKCustomizedURLType@ZOOMSDK@@V?$basic_string@_WU?$char_traits@_W@std@@V?$allocator@_W@2@@std@@U?$less@W4SDKCustomizedURLType@ZOOMSDK@@@4@V?$allocator@U?$pair@$$CBW4SDKCustomizedURLType@ZOOMSDK@@V?$basic_string@_WU?$char_traits@_W@std@@V?$allocator@_W@2@@std@@@std@@@4@$0A@@std@@@std@@IAEXPAU?$_Tree_node@U?$pair@$$CBW4SDKCustomizedURLType@ZOOMSDK@@V?$basic_string@_WU?$char_traits@_W@std@@V?$allocator@_W@2@@std@@@std@@PAX@2@@Z 10020de0 f i zoom_native_sdk_wrap_core.obj
 0001:0001fe30       ?_Erase@?$_Tree@V?$_Tmap_traits@V?$basic_string@_WU?$char_traits@_W@std@@V?$allocator@_W@2@@std@@V12@U?$less@V?$basic_string@_WU?$char_traits@_W@std@@V?$allocator@_W@2@@std@@@2@V?$allocator@U?$pair@$$CBV?$basic_string@_WU?$char_traits@_W@std@@V?$allocator@_W@2@@std@@V12@@std@@@2@$0A@@std@@@std@@IAEXPAU?$_Tree_node@U?$pair@$$CBV?$basic_string@_WU?$char_traits@_W@std@@V?$allocator@_W@2@@std@@V12@@std@@PAX@2@@Z 10020e30 f i zoom_native_sdk_wrap_core.obj
 0001:0001ff70       ?_Erase@?$_Tree@V?$_Tmap_traits@W4SDKCustomizedStringType@ZOOMSDK@@V?$basic_string@_WU?$char_traits@_W@std@@V?$allocator@_W@2@@std@@U?$less@W4SDKCustomizedStringType@ZOOMSDK@@@4@V?$allocator@U?$pair@$$CBW4SDKCustomizedStringType@ZOOMSDK@@V?$basic_string@_WU?$char_traits@_W@std@@V?$allocator@_W@2@@std@@@std@@@4@$0A@@std@@@std@@IAEXPAU?$_Tree_node@U?$pair@$$CBW4SDKCustomizedStringType@ZOOMSDK@@V?$basic_string@_WU?$char_traits@_W@std@@V?$allocator@_W@2@@std@@@std@@PAX@2@@Z 10020f70 f i zoom_native_sdk_wrap_core.obj
 0001:00020030       ?_Erase@?$_Tree@V?$_Tmap_traits@W4SDKCustomizedURLType@ZOOMSDK@@V?$basic_string@_WU?$char_traits@_W@std@@V?$allocator@_W@2@@std@@U?$less@W4SDKCustomizedURLType@ZOOMSDK@@@4@V?$allocator@U?$pair@$$CBW4SDKCustomizedURLType@ZOOMSDK@@V?$basic_string@_WU?$char_traits@_W@std@@V?$allocator@_W@2@@std@@@std@@@4@$0A@@std@@@std@@IAEXPAU?$_Tree_node@U?$pair@$$CBW4SDKCustomizedURLType@ZOOMSDK@@V?$basic_string@_WU?$char_traits@_W@std@@V?$allocator@_W@2@@std@@@std@@PAX@2@@Z 10021030 f i zoom_native_sdk_wrap_core.obj
 0001:000200f0       ?_Lrotate@?$_Tree@V?$_Tmap_traits@V?$basic_string@_WU?$char_traits@_W@std@@V?$allocator@_W@2@@std@@V12@U?$less@V?$basic_string@_WU?$char_traits@_W@std@@V?$allocator@_W@2@@std@@@2@V?$allocator@U?$pair@$$CBV?$basic_string@_WU?$char_traits@_W@std@@V?$allocator@_W@2@@std@@V12@@std@@@2@$0A@@std@@@std@@IAEXPAU?$_Tree_node@U?$pair@$$CBV?$basic_string@_WU?$char_traits@_W@std@@V?$allocator@_W@2@@std@@V12@@std@@PAX@2@@Z 100210f0 f i zoom_native_sdk_wrap_core.obj
 0001:00020160       ?_Lrotate@?$_Tree@V?$_Tmap_traits@W4SDKCustomizedStringType@ZOOMSDK@@V?$basic_string@_WU?$char_traits@_W@std@@V?$allocator@_W@2@@std@@U?$less@W4SDKCustomizedStringType@ZOOMSDK@@@4@V?$allocator@U?$pair@$$CBW4SDKCustomizedStringType@ZOOMSDK@@V?$basic_string@_WU?$char_traits@_W@std@@V?$allocator@_W@2@@std@@@std@@@4@$0A@@std@@@std@@IAEXPAU?$_Tree_node@U?$pair@$$CBW4SDKCustomizedStringType@ZOOMSDK@@V?$basic_string@_WU?$char_traits@_W@std@@V?$allocator@_W@2@@std@@@std@@PAX@2@@Z 10021160 f i zoom_native_sdk_wrap_core.obj
 0001:000201d0       ?_Lrotate@?$_Tree@V?$_Tmap_traits@W4SDKCustomizedURLType@ZOOMSDK@@V?$basic_string@_WU?$char_traits@_W@std@@V?$allocator@_W@2@@std@@U?$less@W4SDKCustomizedURLType@ZOOMSDK@@@4@V?$allocator@U?$pair@$$CBW4SDKCustomizedURLType@ZOOMSDK@@V?$basic_string@_WU?$char_traits@_W@std@@V?$allocator@_W@2@@std@@@std@@@4@$0A@@std@@@std@@IAEXPAU?$_Tree_node@U?$pair@$$CBW4SDKCustomizedURLType@ZOOMSDK@@V?$basic_string@_WU?$char_traits@_W@std@@V?$allocator@_W@2@@std@@@std@@PAX@2@@Z 100211d0 f i zoom_native_sdk_wrap_core.obj
 0001:00020240       ?_Rrotate@?$_Tree@V?$_Tmap_traits@V?$basic_string@_WU?$char_traits@_W@std@@V?$allocator@_W@2@@std@@V12@U?$less@V?$basic_string@_WU?$char_traits@_W@std@@V?$allocator@_W@2@@std@@@2@V?$allocator@U?$pair@$$CBV?$basic_string@_WU?$char_traits@_W@std@@V?$allocator@_W@2@@std@@V12@@std@@@2@$0A@@std@@@std@@IAEXPAU?$_Tree_node@U?$pair@$$CBV?$basic_string@_WU?$char_traits@_W@std@@V?$allocator@_W@2@@std@@V12@@std@@PAX@2@@Z 10021240 f i zoom_native_sdk_wrap_core.obj
 0001:000202b0       ?_Rrotate@?$_Tree@V?$_Tmap_traits@W4SDKCustomizedStringType@ZOOMSDK@@V?$basic_string@_WU?$char_traits@_W@std@@V?$allocator@_W@2@@std@@U?$less@W4SDKCustomizedStringType@ZOOMSDK@@@4@V?$allocator@U?$pair@$$CBW4SDKCustomizedStringType@ZOOMSDK@@V?$basic_string@_WU?$char_traits@_W@std@@V?$allocator@_W@2@@std@@@std@@@4@$0A@@std@@@std@@IAEXPAU?$_Tree_node@U?$pair@$$CBW4SDKCustomizedStringType@ZOOMSDK@@V?$basic_string@_WU?$char_traits@_W@std@@V?$allocator@_W@2@@std@@@std@@PAX@2@@Z 100212b0 f i zoom_native_sdk_wrap_core.obj
 0001:00020320       ?_Rrotate@?$_Tree@V?$_Tmap_traits@W4SDKCustomizedURLType@ZOOMSDK@@V?$basic_string@_WU?$char_traits@_W@std@@V?$allocator@_W@2@@std@@U?$less@W4SDKCustomizedURLType@ZOOMSDK@@@4@V?$allocator@U?$pair@$$CBW4SDKCustomizedURLType@ZOOMSDK@@V?$basic_string@_WU?$char_traits@_W@std@@V?$allocator@_W@2@@std@@@std@@@4@$0A@@std@@@std@@IAEXPAU?$_Tree_node@U?$pair@$$CBW4SDKCustomizedURLType@ZOOMSDK@@V?$basic_string@_WU?$char_traits@_W@std@@V?$allocator@_W@2@@std@@@std@@PAX@2@@Z 10021320 f i zoom_native_sdk_wrap_core.obj
 0001:00020390       ?allocate@?$allocator@D@std@@QAEPADI@Z 10021390 f i zoom_native_sdk_wrap_core.obj
 0001:00020410       ?allocate@?$allocator@_W@std@@QAEPA_WI@Z 10021410 f i zoom_native_sdk_wrap_core.obj
 0001:00020490       ?append@?$basic_string@_WU?$char_traits@_W@std@@V?$allocator@_W@2@@std@@QAEAAV12@I_W@Z 10021490 f i zoom_native_sdk_wrap_core.obj
 0001:00020570       ?assign@?$basic_string@DU?$char_traits@D@std@@V?$allocator@D@2@@std@@QAEAAV12@ID@Z 10021570 f i zoom_native_sdk_wrap_core.obj
 0001:00020670       ?assign@?$basic_string@_WU?$char_traits@_W@std@@V?$allocator@_W@2@@std@@QAEAAV12@ABV12@II@Z 10021670 f i zoom_native_sdk_wrap_core.obj
 0001:000207d0       ?assign@?$basic_string@_WU?$char_traits@_W@std@@V?$allocator@_W@2@@std@@QAEAAV12@PB_WI@Z 100217d0 f i zoom_native_sdk_wrap_core.obj
 0001:00020910       ?compare@?$basic_string@_WU?$char_traits@_W@std@@V?$allocator@_W@2@@std@@QBEHIIPB_WI@Z 10021910 f i zoom_native_sdk_wrap_core.obj
 0001:000209c0       ?deallocate@?$_Wrap_alloc@V?$allocator@D@std@@@std@@QAEXPADI@Z 100219c0 f i zoom_native_sdk_wrap_core.obj
 0001:00020a30       ?deallocate@?$_Wrap_alloc@V?$allocator@_W@std@@@std@@QAEXPA_WI@Z 10021a30 f i zoom_native_sdk_wrap_core.obj
 0001:00020aa0       ?dummyproc@@YAXXZ          10021aa0 f   zoom_native_sdk_wrap_core.obj
 0001:00020ac0       ?erase@?$_Tree@V?$_Tmap_traits@V?$basic_string@_WU?$char_traits@_W@std@@V?$allocator@_W@2@@std@@V12@U?$less@V?$basic_string@_WU?$char_traits@_W@std@@V?$allocator@_W@2@@std@@@2@V?$allocator@U?$pair@$$CBV?$basic_string@_WU?$char_traits@_W@std@@V?$allocator@_W@2@@std@@V12@@std@@@2@$0A@@std@@@std@@QAE?AV?$_Tree_iterator@V?$_Tree_val@U?$_Tree_simple_types@U?$pair@$$CBV?$basic_string@_WU?$char_traits@_W@std@@V?$allocator@_W@2@@std@@V12@@std@@@std@@@std@@@2@V?$_Tree_const_iterator@V?$_Tree_val@U?$_Tree_simple_types@U?$pair@$$CBV?$basic_string@_WU?$char_traits@_W@std@@V?$allocator@_W@2@@std@@V12@@std@@@std@@@std@@@2@0@Z 10021ac0 f i zoom_native_sdk_wrap_core.obj
 0001:00020ba0       ?erase@?$_Tree@V?$_Tmap_traits@V?$basic_string@_WU?$char_traits@_W@std@@V?$allocator@_W@2@@std@@V12@U?$less@V?$basic_string@_WU?$char_traits@_W@std@@V?$allocator@_W@2@@std@@@2@V?$allocator@U?$pair@$$CBV?$basic_string@_WU?$char_traits@_W@std@@V?$allocator@_W@2@@std@@V12@@std@@@2@$0A@@std@@@std@@QAE?AV?$_Tree_iterator@V?$_Tree_val@U?$_Tree_simple_types@U?$pair@$$CBV?$basic_string@_WU?$char_traits@_W@std@@V?$allocator@_W@2@@std@@V12@@std@@@std@@@std@@@2@V?$_Tree_const_iterator@V?$_Tree_val@U?$_Tree_simple_types@U?$pair@$$CBV?$basic_string@_WU?$char_traits@_W@std@@V?$allocator@_W@2@@std@@V12@@std@@@std@@@std@@@2@@Z 10021ba0 f i zoom_native_sdk_wrap_core.obj
 0001:00020fa0       ?erase@?$_Tree@V?$_Tmap_traits@W4SDKCustomizedStringType@ZOOMSDK@@V?$basic_string@_WU?$char_traits@_W@std@@V?$allocator@_W@2@@std@@U?$less@W4SDKCustomizedStringType@ZOOMSDK@@@4@V?$allocator@U?$pair@$$CBW4SDKCustomizedStringType@ZOOMSDK@@V?$basic_string@_WU?$char_traits@_W@std@@V?$allocator@_W@2@@std@@@std@@@4@$0A@@std@@@std@@QAE?AV?$_Tree_iterator@V?$_Tree_val@U?$_Tree_simple_types@U?$pair@$$CBW4SDKCustomizedStringType@ZOOMSDK@@V?$basic_string@_WU?$char_traits@_W@std@@V?$allocator@_W@2@@std@@@std@@@std@@@std@@@2@V?$_Tree_const_iterator@V?$_Tree_val@U?$_Tree_simple_types@U?$pair@$$CBW4SDKCustomizedStringType@ZOOMSDK@@V?$basic_string@_WU?$char_traits@_W@std@@V?$allocator@_W@2@@std@@@std@@@std@@@std@@@2@0@Z 10021fa0 f i zoom_native_sdk_wrap_core.obj
 0001:00021080       ?erase@?$_Tree@V?$_Tmap_traits@W4SDKCustomizedStringType@ZOOMSDK@@V?$basic_string@_WU?$char_traits@_W@std@@V?$allocator@_W@2@@std@@U?$less@W4SDKCustomizedStringType@ZOOMSDK@@@4@V?$allocator@U?$pair@$$CBW4SDKCustomizedStringType@ZOOMSDK@@V?$basic_string@_WU?$char_traits@_W@std@@V?$allocator@_W@2@@std@@@std@@@4@$0A@@std@@@std@@QAE?AV?$_Tree_iterator@V?$_Tree_val@U?$_Tree_simple_types@U?$pair@$$CBW4SDKCustomizedStringType@ZOOMSDK@@V?$basic_string@_WU?$char_traits@_W@std@@V?$allocator@_W@2@@std@@@std@@@std@@@std@@@2@V?$_Tree_const_iterator@V?$_Tree_val@U?$_Tree_simple_types@U?$pair@$$CBW4SDKCustomizedStringType@ZOOMSDK@@V?$basic_string@_WU?$char_traits@_W@std@@V?$allocator@_W@2@@std@@@std@@@std@@@std@@@2@@Z 10022080 f i zoom_native_sdk_wrap_core.obj
 0001:000213e0       ?erase@?$_Tree@V?$_Tmap_traits@W4SDKCustomizedURLType@ZOOMSDK@@V?$basic_string@_WU?$char_traits@_W@std@@V?$allocator@_W@2@@std@@U?$less@W4SDKCustomizedURLType@ZOOMSDK@@@4@V?$allocator@U?$pair@$$CBW4SDKCustomizedURLType@ZOOMSDK@@V?$basic_string@_WU?$char_traits@_W@std@@V?$allocator@_W@2@@std@@@std@@@4@$0A@@std@@@std@@QAE?AV?$_Tree_iterator@V?$_Tree_val@U?$_Tree_simple_types@U?$pair@$$CBW4SDKCustomizedURLType@ZOOMSDK@@V?$basic_string@_WU?$char_traits@_W@std@@V?$allocator@_W@2@@std@@@std@@@std@@@std@@@2@V?$_Tree_const_iterator@V?$_Tree_val@U?$_Tree_simple_types@U?$pair@$$CBW4SDKCustomizedURLType@ZOOMSDK@@V?$basic_string@_WU?$char_traits@_W@std@@V?$allocator@_W@2@@std@@@std@@@std@@@std@@@2@0@Z 100223e0 f i zoom_native_sdk_wrap_core.obj
 0001:000214c0       ?erase@?$_Tree@V?$_Tmap_traits@W4SDKCustomizedURLType@ZOOMSDK@@V?$basic_string@_WU?$char_traits@_W@std@@V?$allocator@_W@2@@std@@U?$less@W4SDKCustomizedURLType@ZOOMSDK@@@4@V?$allocator@U?$pair@$$CBW4SDKCustomizedURLType@ZOOMSDK@@V?$basic_string@_WU?$char_traits@_W@std@@V?$allocator@_W@2@@std@@@std@@@4@$0A@@std@@@std@@QAE?AV?$_Tree_iterator@V?$_Tree_val@U?$_Tree_simple_types@U?$pair@$$CBW4SDKCustomizedURLType@ZOOMSDK@@V?$basic_string@_WU?$char_traits@_W@std@@V?$allocator@_W@2@@std@@@std@@@std@@@std@@@2@V?$_Tree_const_iterator@V?$_Tree_val@U?$_Tree_simple_types@U?$pair@$$CBW4SDKCustomizedURLType@ZOOMSDK@@V?$basic_string@_WU?$char_traits@_W@std@@V?$allocator@_W@2@@std@@@std@@@std@@@std@@@2@@Z 100224c0 f i zoom_native_sdk_wrap_core.obj
 0001:00021820       ?erase@?$basic_string@_WU?$char_traits@_W@std@@V?$allocator@_W@2@@std@@QAEAAV12@II@Z 10022820 f i zoom_native_sdk_wrap_core.obj
 0001:000218f0       ?myOutputDebugString@@YAXPBDZZ 100228f0 f i zoom_native_sdk_wrap_core.obj
 0001:00021990       ?myOutputDebugStringW@@YAXPB_WZZ 10022990 f i zoom_native_sdk_wrap_core.obj
 0001:00021a30       ?onActiveSpeakerVideoUserChanged@IMeetingVideoControllerWrap@ZOOMSDK@@UAEXI@Z 10022a30 f i zoom_native_sdk_wrap_core.obj
 0001:00021a90       ?onActiveVideoUserChanged@IMeetingVideoControllerWrap@ZOOMSDK@@UAEXI@Z 10022a90 f i zoom_native_sdk_wrap_core.obj
 0001:00021af0       ?onAirPlayInstructionWndNotification@IMeetingConfigurationWrap@ZOOMSDK@@UAEX_NPB_W@Z 10022af0 f i zoom_native_sdk_wrap_core.obj
 0001:00021b50       ?onAllowAttendeeChatNotification@IMeetingWebinarControllerWrap@ZOOMSDK@@UAEXXZ 10022b50 f i zoom_native_sdk_wrap_core.obj
 0001:00021b90       ?onAllowPanelistStartVideoNotification@IMeetingWebinarControllerWrap@ZOOMSDK@@UAEXXZ 10022b90 f i zoom_native_sdk_wrap_core.obj
 0001:00021bd0       ?onAssignedToSendCC@IClosedCaptionControllerWrap@ZOOMSDK@@UAEX_N@Z 10022bd0 f i zoom_native_sdk_wrap_core.obj
 0001:00021c20       ?onAttendeeAudioStatusNotification@IMeetingWebinarControllerWrap@ZOOMSDK@@UAEXI_N0@Z 10022c20 f i zoom_native_sdk_wrap_core.obj
 0001:00021ca0       ?onAudioBtnClicked@IMeetingUIControllerWrap@ZOOMSDK@@UAEXUtagAudioBtnClickedCallbackInfo@2@@Z 10022ca0 f i zoom_native_sdk_wrap_core.obj
 0001:00021d10       ?onAudioMenuBtnClicked@IMeetingUIControllerWrap@ZOOMSDK@@UAEXXZ 10022d10 f i zoom_native_sdk_wrap_core.obj
 0001:00021d50       ?onAuthenticationReturn@IAuthServiceWrap@ZOOMSDK@@UAEXW4AuthResult@2@@Z 10022d50 f i zoom_native_sdk_wrap_core.obj
 0001:00021da0       ?onCCBTNClicked@IMeetingUIControllerWrap@ZOOMSDK@@UAEXXZ 10022da0 f i zoom_native_sdk_wrap_core.obj
 0001:00021de0       ?onCalenderEventsNotifcation@ICalenderServiceWrap@ZOOMSDK@@UAEXW4CalenderAuthType@2@W4CalenderResult@2@PAV?$IList@PAVICalenderEvent@ZOOMSDK@@@2@@Z 10022de0 f i zoom_native_sdk_wrap_core.obj
 0001:00021e50       ?onCallMeStatus@IMeetingPhoneHelperWrap@ZOOMSDK@@UAEXW4PhoneStatus@2@W4PhoneFailedReason@2@@Z 10022e50 f i zoom_native_sdk_wrap_core.obj
 0001:00021eb0       ?onCalloutStatusNotify@IMeetingH323HelperWrap@ZOOMSDK@@UAEXW4H323CalloutStatus@2@@Z 10022eb0 f i zoom_native_sdk_wrap_core.obj
 0001:00021f00       ?onChatMsgNotifcation@IMeetingChatControllerWrap@ZOOMSDK@@UAEXPAVIChatMsgInfo@2@PB_W@Z 10022f00 f i zoom_native_sdk_wrap_core.obj
 0001:00021f60       ?onChatStautsChangedNotification@IMeetingChatControllerWrap@ZOOMSDK@@UAEXPAUtagChatStatus@2@@Z 10022f60 f i zoom_native_sdk_wrap_core.obj
 0001:00021fb0       ?onClosedCaptionMsgReceived@IClosedCaptionControllerWrap@ZOOMSDK@@UAEXPB_W_J@Z 10022fb0 f i zoom_native_sdk_wrap_core.obj
 0001:00022020       ?onCloudRecordingStatus@IMeetingRecordingControllerWrap@ZOOMSDK@@UAEXW4RecordingStatus@2@@Z 10023020 f i zoom_native_sdk_wrap_core.obj
 0001:00022080       ?onCloudRecordingStorageInfo@IRecordingSettingContextWrap@ZOOMSDK@@UAEX_J0_N@Z 10023080 f i zoom_native_sdk_wrap_core.obj
 0001:00022120       ?onCoHostChangeNotification@IMeetingParticipantsControllerWrap@ZOOMSDK@@UAEXI_N@Z 10023120 f i zoom_native_sdk_wrap_core.obj
 0001:00022190       ?onComputerCamDeviceChanged@IVideoSettingContextWrap@ZOOMSDK@@UAEXPAV?$IList@PAVICameraInfo@ZOOMSDK@@@2@@Z 10023190 f i zoom_native_sdk_wrap_core.obj
 0001:000221e0       ?onComputerMicDeviceChanged@IAudioSettingContextWrap@ZOOMSDK@@UAEXPAV?$IList@PAVIMicInfo@ZOOMSDK@@@2@@Z 100231e0 f i zoom_native_sdk_wrap_core.obj
 0001:00022230       ?onComputerSpeakerDeviceChanged@IAudioSettingContextWrap@ZOOMSDK@@UAEXPAV?$IList@PAVISpeakerInfo@ZOOMSDK@@@2@@Z 10023230 f i zoom_native_sdk_wrap_core.obj
 0001:00022280       ?onControllerStatusChanged@ICameraControllerWrap@ZOOMSDK@@UAEX_N@Z 10023280 f i zoom_native_sdk_wrap_core.obj
 0001:000222d0       ?onCustomLiveStreamMenuClicked@IMeetingUIControllerWrap@ZOOMSDK@@UAEXXZ 100232d0 f i zoom_native_sdk_wrap_core.obj
 0001:00022310       ?onCustomizedLocalRecordingSourceNotification@IMeetingRecordingControllerWrap@ZOOMSDK@@UAEXPAVICustomizedLocalRecordingLayoutHelper@2@@Z 10023310 f i zoom_native_sdk_wrap_core.obj
 0001:00022370       ?onDefaultCamDeviceChanged@IVideoSettingContextWrap@ZOOMSDK@@UAEXPB_W0@Z 10023370 f i zoom_native_sdk_wrap_core.obj
 0001:000223d0       ?onDefaultMicDeviceChanged@IAudioSettingContextWrap@ZOOMSDK@@UAEXPB_W0@Z 100233d0 f i zoom_native_sdk_wrap_core.obj
 0001:00022430       ?onDefaultSpeakerDeviceChanged@IAudioSettingContextWrap@ZOOMSDK@@UAEXPB_W0@Z 10023430 f i zoom_native_sdk_wrap_core.obj
 0001:000224a0       ?onDeleteMeeting@IPreMeetingServiceWrap@ZOOMSDK@@UAEXW4PremeetingAPIResult@2@@Z 100234a0 f i zoom_native_sdk_wrap_core.obj
 0001:000224f0       ?onDepromptPanelist2AttendeeResult@IMeetingWebinarControllerWrap@ZOOMSDK@@UAEXH@Z 100234f0 f i zoom_native_sdk_wrap_core.obj
 0001:00022540       ?onDeviceRunning@IVideoRawDataChannelWrap@ZOOMSDK@@UAEXPAX@Z 10023540 f i zoom_native_sdk_wrap_core.obj
 0001:00022590       ?onDeviceStop@IVideoRawDataChannelWrap@ZOOMSDK@@UAEXPAX@Z 10023590 f i zoom_native_sdk_wrap_core.obj
 0001:000225e0       ?onDisallowAttendeeChatNotification@IMeetingWebinarControllerWrap@ZOOMSDK@@UAEXXZ 100235e0 f i zoom_native_sdk_wrap_core.obj
 0001:00022620       ?onDisallowPanelistStartVideoNotification@IMeetingWebinarControllerWrap@ZOOMSDK@@UAEXXZ 10023620 f i zoom_native_sdk_wrap_core.obj
 0001:00022660       ?onEndMeetingBtnClicked@IMeetingUIControllerWrap@ZOOMSDK@@UAEXXZ 10023660 f i zoom_native_sdk_wrap_core.obj
 0001:000226a0       ?onEndOtherMeetingToJoinMeetingNotification@IMeetingConfigurationWrap@ZOOMSDK@@UAEXPAVIEndOtherMeetingToJoinMeetingHandler@2@@Z 100236a0 f i zoom_native_sdk_wrap_core.obj
 0001:00022700       ?onFreeMeetingEndingReminderNotification@IMeetingConfigurationWrap@ZOOMSDK@@UAEXPAVIFreeMeetingEndingReminderHandler@2@@Z 10023700 f i zoom_native_sdk_wrap_core.obj
 0001:00022760       ?onFreeMeetingNeedToUpgrade@IMeetingConfigurationWrap@ZOOMSDK@@UAEXW4FreeMeetingNeedUpgradeType@IMeetingConfigurationFreeMeetingEvent@2@PB_W@Z 10023760 f i zoom_native_sdk_wrap_core.obj
 0001:000227d0       ?onFreeMeetingRemainTime@IMeetingConfigurationWrap@ZOOMSDK@@UAEXI@Z 100237d0 f i zoom_native_sdk_wrap_core.obj
 0001:00022820       ?onFreeMeetingRemainTimeStopCountDown@IMeetingConfigurationWrap@ZOOMSDK@@UAEXXZ 10023820 f i zoom_native_sdk_wrap_core.obj
 0001:00022860       ?onFreeMeetingUpgradeToGiftFreeTrialStart@IMeetingConfigurationWrap@ZOOMSDK@@UAEXXZ 10023860 f i zoom_native_sdk_wrap_core.obj
 0001:000228a0       ?onFreeMeetingUpgradeToGiftFreeTrialStop@IMeetingConfigurationWrap@ZOOMSDK@@UAEXXZ 100238a0 f i zoom_native_sdk_wrap_core.obj
 0001:000228e0       ?onFreeMeetingUpgradeToProMeeting@IMeetingConfigurationWrap@ZOOMSDK@@UAEXXZ 100238e0 f i zoom_native_sdk_wrap_core.obj
 0001:00022920       ?onHostChangeNotification@IMeetingParticipantsControllerWrap@ZOOMSDK@@UAEXI@Z 10023920 f i zoom_native_sdk_wrap_core.obj
 0001:00022970       ?onHostRequestStartAudio@IMeetingAudioControllerWrap@ZOOMSDK@@UAEXPAVIRequestStartAudioHandler@2@@Z 10023970 f i zoom_native_sdk_wrap_core.obj
 0001:000229c0       ?onHostRequestStartVideo@IMeetingVideoControllerWrap@ZOOMSDK@@UAEXPAVIRequestStartVideoHandler@2@@Z 100239c0 f i zoom_native_sdk_wrap_core.obj
 0001:00022a20       ?onInputMeetingPasswordAndScreenNameNotification@IMeetingConfigurationWrap@ZOOMSDK@@UAEXPAVIMeetingPasswordAndScreenNameHandler@2@@Z 10023a20 f i zoom_native_sdk_wrap_core.obj
 0001:00022a70       ?onInviteBtnClicked@IMeetingUIControllerWrap@ZOOMSDK@@UAEXAA_N@Z 10023a70 f i zoom_native_sdk_wrap_core.obj
 0001:00022ab0       ?onInviteCallOutUserStatus@IMeetingPhoneHelperWrap@ZOOMSDK@@UAEXW4PhoneStatus@2@W4PhoneFailedReason@2@@Z 10023ab0 f i zoom_native_sdk_wrap_core.obj
 0001:00022b10       ?onListMeeting@IPreMeetingServiceWrap@ZOOMSDK@@UAEXW4PremeetingAPIResult@2@PAV?$IList@_K@2@@Z 10023b10 f i zoom_native_sdk_wrap_core.obj
 0001:00022b70       ?onLiveStreamStatusChange@IMeetingLiveStreamControllerWrap@ZOOMSDK@@UAEXW4LiveStreamStatus@2@@Z 10023b70 f i zoom_native_sdk_wrap_core.obj
 0001:00022bc0       ?onLockShareStatus@IMeetingShareControllerWrap@ZOOMSDK@@UAEX_N@Z 10023bc0 f i zoom_native_sdk_wrap_core.obj
 0001:00022c10       ?onLoginRet@IAuthServiceWrap@ZOOMSDK@@UAEXW4LOGINSTATUS@2@PAVIAccountInfo@2@@Z 10023c10 f i zoom_native_sdk_wrap_core.obj
 0001:00022c80       ?onLogout@IAuthServiceWrap@ZOOMSDK@@UAEXXZ 10023c80 f i zoom_native_sdk_wrap_core.obj
 0001:00022cc0       ?onLowOrRaiseHandStatusChanged@IMeetingParticipantsControllerWrap@ZOOMSDK@@UAEX_NI@Z 10023cc0 f i zoom_native_sdk_wrap_core.obj
 0001:00022d30       ?onMeetingParameterNotification@IMeetingServiceWrap@ZOOMSDK@@UAEXPBUtagMeetingParameter@2@@Z 10023d30 f i zoom_native_sdk_wrap_core.obj
 0001:00022d90       ?onMeetingSecureKeyNotification@IMeetingServiceWrap@ZOOMSDK@@UAEXPBDHPAVIMeetingExternalSecureKeyHandler@2@@Z 10023d90 f i zoom_native_sdk_wrap_core.obj
 0001:00022e10       ?onMeetingStatisticsWarningNotification@IMeetingServiceWrap@ZOOMSDK@@UAEXW4StatisticsWarningType@2@@Z 10023e10 f i zoom_native_sdk_wrap_core.obj
 0001:00022e70       ?onMeetingStatusChanged@IMeetingServiceWrap@ZOOMSDK@@UAEXW4MeetingStatus@2@H@Z 10023e70 f i zoom_native_sdk_wrap_core.obj
 0001:00022ee0       ?onMixedAudioRawDataReceived@IAudioRawDataChannelWrap@ZOOMSDK@@UAEXPAVAudioRawData@ZOOMSDKRAWDATA@@@Z 10023ee0 f i zoom_native_sdk_wrap_core.obj
 0001:00022f30       ?onMultiShareSwitchToSingleShareNeedConfirm@IMeetingShareControllerWrap@ZOOMSDK@@UAEXPAVIShareSwitchMultiToSingleConfirmHandler@2@@Z 10023f30 f i zoom_native_sdk_wrap_core.obj
 0001:00022f90       ?onNeedRealNameAuthMeetingNotification@IZoomRealNameAuthMeetingHelperWrap@ZOOMSDK@@UAEXPAV?$IVector@PAVIZoomRealNameAuthCountryInfo@@@@PBDPAVIZoomRetrieveSMSVerificationCodeHandler@@@Z 10023f90 f i zoom_native_sdk_wrap_core.obj
 0001:00023000       ?onOneWayAudioRawDataReceived@IAudioRawDataChannelWrap@ZOOMSDK@@UAEXPAVAudioRawData@ZOOMSDKRAWDATA@@I@Z 10024000 f i zoom_native_sdk_wrap_core.obj
 0001:00023060       ?onOutlookPluginDefaultMeetingTopicRequestNotification@IOutlookPluginIntegrationHelperWrap@ZOOMSDK@@UAEXPB_WPAPA_W@Z 10024060 f i zoom_native_sdk_wrap_core.obj
 0001:000230c0       ?onOutlookPluginNeedLoginRequestNotification@IOutlookPluginIntegrationHelperWrap@ZOOMSDK@@UAEXXZ 100240c0 f i zoom_native_sdk_wrap_core.obj
 0001:00023100       ?onOutlookPluginScheduleMeetingRequestNotification@IOutlookPluginIntegrationHelperWrap@ZOOMSDK@@UAEXXZ 10024100 f i zoom_native_sdk_wrap_core.obj
 0001:00023140       ?onParingH323Result@IMeetingH323HelperWrap@ZOOMSDK@@UAEXW4H323ParingResult@2@_K@Z 10024140 f i zoom_native_sdk_wrap_core.obj
 0001:000231b0       ?onParticipantListBtnClicked@IMeetingUIControllerWrap@ZOOMSDK@@UAEXXZ 100241b0 f i zoom_native_sdk_wrap_core.obj
 0001:000231f0       ?onPromptAttendee2PanelistResult@IMeetingWebinarControllerWrap@ZOOMSDK@@UAEXH@Z 100241f0 f i zoom_native_sdk_wrap_core.obj
 0001:00023240       ?onProxyDetectComplete@INetworkConnectionHelperWrap@ZOOMSDK@@UAEXXZ 10024240 f i zoom_native_sdk_wrap_core.obj
 0001:00023280       ?onProxySettingNotification@INetworkConnectionHelperWrap@ZOOMSDK@@UAEXPAVIProxySettingHandler@2@@Z 10024280 f i zoom_native_sdk_wrap_core.obj
 0001:000232d0       ?onRecordPriviligeChanged@IMeetingRecordingControllerWrap@ZOOMSDK@@UAEX_N@Z 100242d0 f i zoom_native_sdk_wrap_core.obj
 0001:00023330       ?onRecording2MP4Done@IMeetingRecordingControllerWrap@ZOOMSDK@@UAEX_NHPB_W@Z 10024330 f i zoom_native_sdk_wrap_core.obj
 0001:000233b0       ?onRecording2MP4Processing@IMeetingRecordingControllerWrap@ZOOMSDK@@UAEXH@Z 100243b0 f i zoom_native_sdk_wrap_core.obj
 0001:00023400       ?onRecordingStatus@IMeetingRecordingControllerWrap@ZOOMSDK@@UAEXW4RecordingStatus@2@@Z 10024400 f i zoom_native_sdk_wrap_core.obj
 0001:00023450       ?onRemoteControlStatus@IMeetingRemoteControllerWrap@ZOOMSDK@@UAEXW4RemoteControlStatus@2@I@Z 10024450 f i zoom_native_sdk_wrap_core.obj
 0001:000234b0       ?onRetrieveSMSVerificationCodeResultNotification@IZoomRealNameAuthMeetingHelperWrap@ZOOMSDK@@UAEXW4SMSVerificationCodeErr@@PAVIZoomVerifySMSVerificationCodeHandler@@@Z 100244b0 f i zoom_native_sdk_wrap_core.obj
 0001:00023510       ?onSSLCertVerifyNotification@INetworkConnectionHelperWrap@ZOOMSDK@@UAEXPAVISSLCertVerificationHandler@2@@Z 10024510 f i zoom_native_sdk_wrap_core.obj
 0001:00023560       ?onScheduleOrEditMeeting@IPreMeetingServiceWrap@ZOOMSDK@@UAEXW4PremeetingAPIResult@2@_K@Z 10024560 f i zoom_native_sdk_wrap_core.obj
 0001:000235d0       ?onSelfAllowTalkNotification@IMeetingWebinarControllerWrap@ZOOMSDK@@UAEXXZ 100245d0 f i zoom_native_sdk_wrap_core.obj
 0001:00023610       ?onSelfDisallowTalkNotification@IMeetingWebinarControllerWrap@ZOOMSDK@@UAEXXZ 10024610 f i zoom_native_sdk_wrap_core.obj
 0001:00023650       ?onShareContentNotification@IMeetingShareControllerWrap@ZOOMSDK@@UAEXAAUtagShareInfo@2@@Z 10024650 f i zoom_native_sdk_wrap_core.obj
 0001:00023690       ?onShareRawDataReceived@IShareRawDataChannelWrap@ZOOMSDK@@UAEXPAVYUVRawDataI420@ZOOMSDKRAWDATA@@PAV?$IVector@_K@@@Z 10024690 f i zoom_native_sdk_wrap_core.obj
 0001:000236f0       ?onShareRenderDestroyed@ICustomizedUIMgrWrap@ZOOMSDK@@UAEXPAVICustomizedShareRender@2@@Z 100246f0 f i zoom_native_sdk_wrap_core.obj
 0001:00023740       ?onSharingStatus@IMeetingShareControllerWrap@ZOOMSDK@@UAEXW4SharingStatus@2@I@Z 10024740 f i zoom_native_sdk_wrap_core.obj
 0001:000237a0       ?onSpotlightVideoChangeNotification@IMeetingVideoControllerWrap@ZOOMSDK@@UAEX_NI@Z 100247a0 f i zoom_native_sdk_wrap_core.obj
 0001:00023810       ?onStartShareBtnClicked@IMeetingUIControllerWrap@ZOOMSDK@@UAEXXZ 10024810 f i zoom_native_sdk_wrap_core.obj
 0001:00023850       ?onSubscribedShareUserDataOff@IShareRawDataChannelWrap@ZOOMSDK@@UAEXPAV?$IVector@_K@@@Z 10024850 f i zoom_native_sdk_wrap_core.obj
 0001:000238a0       ?onSubscribedShareUserDataOn@IShareRawDataChannelWrap@ZOOMSDK@@UAEXPAV?$IVector@_K@@@Z 100248a0 f i zoom_native_sdk_wrap_core.obj
 0001:000238f0       ?onSubscribedShareUserLeft@IShareRawDataChannelWrap@ZOOMSDK@@UAEXPAV?$IVector@_K@@@Z 100248f0 f i zoom_native_sdk_wrap_core.obj
 0001:00023950       ?onSubscribedVideoUserDataOff@IVideoRawDataChannelWrap@ZOOMSDK@@UAEXPAV?$IVector@_K@@@Z 10024950 f i zoom_native_sdk_wrap_core.obj
 0001:000239b0       ?onSubscribedVideoUserDataOn@IVideoRawDataChannelWrap@ZOOMSDK@@UAEXPAV?$IVector@_K@@@Z 100249b0 f i zoom_native_sdk_wrap_core.obj
 0001:00023a10       ?onSubscribedVideoUserLeft@IVideoRawDataChannelWrap@ZOOMSDK@@UAEXPAV?$IVector@_K@@@Z 10024a10 f i zoom_native_sdk_wrap_core.obj
 0001:00023a70       ?onSupportAnnotationStatus@IAnnotationControllerWrap@ZOOMSDK@@UAEXI_N@Z 10024a70 f i zoom_native_sdk_wrap_core.obj
 0001:00023ad0       ?onUIActionNotify@IUIHookerWrap@ZOOMSDK@@UAEXW4UIHOOKHWNDTYPE@2@UtagMSG@@@Z 10024ad0 f i zoom_native_sdk_wrap_core.obj
 0001:00023b80       ?onUserActiveAudioChange@IMeetingAudioControllerWrap@ZOOMSDK@@UAEXPAV?$IList@I@2@@Z 10024b80 f i zoom_native_sdk_wrap_core.obj
 0001:00023bd0       ?onUserAudioStatusChange@IMeetingAudioControllerWrap@ZOOMSDK@@UAEXPAV?$IList@PAVIUserAudioStatus@ZOOMSDK@@@2@PB_W@Z 10024bd0 f i zoom_native_sdk_wrap_core.obj
 0001:00023c30       ?onUserJoin@IMeetingParticipantsControllerWrap@ZOOMSDK@@UAEXPAV?$IList@I@2@PB_W@Z 10024c30 f i zoom_native_sdk_wrap_core.obj
 0001:00023c90       ?onUserLeft@IMeetingParticipantsControllerWrap@ZOOMSDK@@UAEXPAV?$IList@I@2@PB_W@Z 10024c90 f i zoom_native_sdk_wrap_core.obj
 0001:00023cf0       ?onUserNameChanged@IMeetingParticipantsControllerWrap@ZOOMSDK@@UAEXIPB_W@Z 10024cf0 f i zoom_native_sdk_wrap_core.obj
 0001:00023d60       ?onUserVideoStatusChange@IMeetingVideoControllerWrap@ZOOMSDK@@UAEXIW4VideoStatus@2@@Z 10024d60 f i zoom_native_sdk_wrap_core.obj
 0001:00023dc0       ?onVerifySMSVerificationCodeResultNotification@IZoomRealNameAuthMeetingHelperWrap@ZOOMSDK@@UAEXW4SMSVerificationCodeErr@@@Z 10024dc0 f i zoom_native_sdk_wrap_core.obj
 0001:00023e10       ?onVideoContainerDestroyed@ICustomizedUIMgrWrap@ZOOMSDK@@UAEXPAVICustomizedVideoContainer@2@@Z 10024e10 f i zoom_native_sdk_wrap_core.obj
 0001:00023e60       ?onVideoRawDataReceived@IVideoRawDataChannelWrap@ZOOMSDK@@UAEXPAVYUVRawDataI420@ZOOMSDKRAWDATA@@PAV?$IVector@_K@@@Z 10024e60 f i zoom_native_sdk_wrap_core.obj
 0001:00023ec0       ?onWatingRoomUserJoin@IMeetingWaitingRoomControllerWrap@ZOOMSDK@@UAEXI@Z 10024ec0 f i zoom_native_sdk_wrap_core.obj
 0001:00023f10       ?onWatingRoomUserLeft@IMeetingWaitingRoomControllerWrap@ZOOMSDK@@UAEXI@Z 10024f10 f i zoom_native_sdk_wrap_core.obj
 0001:00023f60       ?onWebinarNeedRegisterNotification@IMeetingConfigurationWrap@ZOOMSDK@@UAEXPAVIWebinarNeedRegisterHandler@2@@Z 10024f60 f i zoom_native_sdk_wrap_core.obj
 0001:00023fb0       ?onZoomAuthIdentityExpired@IAuthServiceWrap@ZOOMSDK@@UAEXXZ 10024fb0 f i zoom_native_sdk_wrap_core.obj
 0001:00023ff0       ?onZoomIdentityExpired@IAuthServiceWrap@ZOOMSDK@@UAEXXZ 10024ff0 f i zoom_native_sdk_wrap_core.obj
 0001:00024030       ?onZoomInviteDialogFailed@IMeetingUIControllerWrap@ZOOMSDK@@UAEXXZ 10025030 f i zoom_native_sdk_wrap_core.obj
 0001:00024070       ?wsTOs@@YA?AV?$basic_string@DU?$char_traits@D@std@@V?$allocator@D@2@@std@@ABV?$basic_string@_WU?$char_traits@_W@std@@V?$allocator@_W@2@@2@@Z 10025070 f   zoom_native_sdk_wrap_core.obj
 0001:00024120       _DllMain@12                10025120 f   zoom_native_sdk_wrap_core.obj
 0001:00024170       ___local_stdio_printf_options 10025170 f i zoom_native_sdk_wrap_core.obj
 0001:00024180       _printf                    10025180 f i zoom_native_sdk_wrap_core.obj
 0001:000241c0       ??$_Destroy_range@U?$_Wrap_alloc@V?$allocator@U_ZNCameraInfo@@@std@@@std@@@std@@YAXPAU_ZNCameraInfo@@0AAU?$_Wrap_alloc@V?$allocator@U_ZNCameraInfo@@@std@@@0@U_Nonscalar_ptr_iterator_tag@0@@Z 100251c0 f i auth_service_wrap_core.obj
 0001:000242e0       ??$_Destroy_range@U?$_Wrap_alloc@V?$allocator@U_ZNMicInfo@@@std@@@std@@@std@@YAXPAU_ZNMicInfo@@0AAU?$_Wrap_alloc@V?$allocator@U_ZNMicInfo@@@std@@@0@U_Nonscalar_ptr_iterator_tag@0@@Z 100252e0 f i auth_service_wrap_core.obj
 0001:00024400       ??$_Destroy_range@U?$_Wrap_alloc@V?$allocator@U_ZNSpeakerInfo@@@std@@@std@@@std@@YAXPAU_ZNSpeakerInfo@@0AAU?$_Wrap_alloc@V?$allocator@U_ZNSpeakerInfo@@@std@@@0@U_Nonscalar_ptr_iterator_tag@0@@Z 10025400 f i auth_service_wrap_core.obj
 0001:00024520       ??$_Ucopy@V?$_Vector_const_iterator@V?$_Vector_val@U?$_Simple_types@U_ZNUserAudioStatus@@@std@@@std@@@std@@@?$vector@U_ZNUserAudioStatus@@V?$allocator@U_ZNUserAudioStatus@@@std@@@std@@IAEPAU_ZNUserAudioStatus@@V?$_Vector_const_iterator@V?$_Vector_val@U?$_Simple_types@U_ZNUserAudioStatus@@@std@@@std@@@1@0PAU2@@Z 10025520 f i auth_service_wrap_core.obj
 0001:00024560       ??$_Uninit_copy@PBU_ZNCameraInfo@@PAU1@V?$allocator@U_ZNCameraInfo@@@std@@@std@@YAPAU_ZNCameraInfo@@PBU1@0PAU1@AAU?$_Wrap_alloc@V?$allocator@U_ZNCameraInfo@@@std@@@0@U_Nonscalar_ptr_iterator_tag@0@@Z 10025560 f i auth_service_wrap_core.obj
 0001:00024600       ??$_Uninit_copy@PBU_ZNMicInfo@@PAU1@V?$allocator@U_ZNMicInfo@@@std@@@std@@YAPAU_ZNMicInfo@@PBU1@0PAU1@AAU?$_Wrap_alloc@V?$allocator@U_ZNMicInfo@@@std@@@0@U_Nonscalar_ptr_iterator_tag@0@@Z 10025600 f i auth_service_wrap_core.obj
 0001:000246a0       ??$_Uninit_copy@PBU_ZNSpeakerInfo@@PAU1@V?$allocator@U_ZNSpeakerInfo@@@std@@@std@@YAPAU_ZNSpeakerInfo@@PBU1@0PAU1@AAU?$_Wrap_alloc@V?$allocator@U_ZNSpeakerInfo@@@std@@@0@U_Nonscalar_ptr_iterator_tag@0@@Z 100256a0 f i auth_service_wrap_core.obj
 0001:00024740       ??$_Uninit_move@PAU_ZNCameraInfo@@PAU1@V?$allocator@U_ZNCameraInfo@@@std@@U1@@std@@YAPAU_ZNCameraInfo@@PAU1@00AAU?$_Wrap_alloc@V?$allocator@U_ZNCameraInfo@@@std@@@0@0U_Nonscalar_ptr_iterator_tag@0@@Z 10025740 f i auth_service_wrap_core.obj
 0001:000248a0       ??$_Uninit_move@PAU_ZNMicInfo@@PAU1@V?$allocator@U_ZNMicInfo@@@std@@U1@@std@@YAPAU_ZNMicInfo@@PAU1@00AAU?$_Wrap_alloc@V?$allocator@U_ZNMicInfo@@@std@@@0@0U_Nonscalar_ptr_iterator_tag@0@@Z 100258a0 f i auth_service_wrap_core.obj
 0001:00024a00       ??$_Uninit_move@PAU_ZNSpeakerInfo@@PAU1@V?$allocator@U_ZNSpeakerInfo@@@std@@U1@@std@@YAPAU_ZNSpeakerInfo@@PAU1@00AAU?$_Wrap_alloc@V?$allocator@U_ZNSpeakerInfo@@@std@@@0@0U_Nonscalar_ptr_iterator_tag@0@@Z 10025a00 f i auth_service_wrap_core.obj
 0001:00024b60       ??$_Uninit_move@PAU_ZNZoomRealNameAuthCountryInfo@@PAU1@V?$allocator@U_ZNZoomRealNameAuthCountryInfo@@@std@@U1@@std@@YAPAU_ZNZoomRealNameAuthCountryInfo@@PAU1@00AAU?$_Wrap_alloc@V?$allocator@U_ZNZoomRealNameAuthCountryInfo@@@std@@@0@0U_Nonscalar_ptr_iterator_tag@0@@Z 10025b60 f i auth_service_wrap_core.obj
 0001:00024d20       ??$construct@U_ZNCameraInfo@@AAU1@@?$_Wrap_alloc@V?$allocator@U_ZNCameraInfo@@@std@@@std@@QAEXPAU_ZNCameraInfo@@AAU2@@Z 10025d20 f i auth_service_wrap_core.obj
 0001:00024d90       ??$construct@U_ZNCameraInfo@@ABU1@@?$_Wrap_alloc@V?$allocator@U_ZNCameraInfo@@@std@@@std@@QAEXPAU_ZNCameraInfo@@ABU2@@Z 10025d90 f i auth_service_wrap_core.obj
 0001:00024e00       ??$construct@U_ZNMicInfo@@AAU1@@?$_Wrap_alloc@V?$allocator@U_ZNMicInfo@@@std@@@std@@QAEXPAU_ZNMicInfo@@AAU2@@Z 10025e00 f i auth_service_wrap_core.obj
 0001:00024e70       ??$construct@U_ZNMicInfo@@ABU1@@?$_Wrap_alloc@V?$allocator@U_ZNMicInfo@@@std@@@std@@QAEXPAU_ZNMicInfo@@ABU2@@Z 10025e70 f i auth_service_wrap_core.obj
 0001:00024ee0       ??$construct@U_ZNSpeakerInfo@@AAU1@@?$_Wrap_alloc@V?$allocator@U_ZNSpeakerInfo@@@std@@@std@@QAEXPAU_ZNSpeakerInfo@@AAU2@@Z 10025ee0 f i auth_service_wrap_core.obj
 0001:00024f50       ??$construct@U_ZNSpeakerInfo@@ABU1@@?$_Wrap_alloc@V?$allocator@U_ZNSpeakerInfo@@@std@@@std@@QAEXPAU_ZNSpeakerInfo@@ABU2@@Z 10025f50 f i auth_service_wrap_core.obj
 0001:00024fc0       ??0?$basic_string@_WU?$char_traits@_W@std@@V?$allocator@_W@2@@std@@QAE@PB_W@Z 10025fc0 f i auth_service_wrap_core.obj
 0001:00025030       ??0?$vector@IV?$allocator@I@std@@@std@@QAE@ABV01@@Z 10026030 f i auth_service_wrap_core.obj
 0001:000250e0       ??0?$vector@U_ZNCameraInfo@@V?$allocator@U_ZNCameraInfo@@@std@@@std@@QAE@ABV01@@Z 100260e0 f i auth_service_wrap_core.obj
 0001:00025190       ??0?$vector@U_ZNMicInfo@@V?$allocator@U_ZNMicInfo@@@std@@@std@@QAE@ABV01@@Z 10026190 f i auth_service_wrap_core.obj
 0001:00025240       ??0?$vector@U_ZNSpeakerInfo@@V?$allocator@U_ZNSpeakerInfo@@@std@@@std@@QAE@ABV01@@Z 10026240 f i auth_service_wrap_core.obj
 0001:000252f0       ??0?$vector@U_ZNUserAudioStatus@@V?$allocator@U_ZNUserAudioStatus@@@std@@@std@@QAE@ABV01@@Z 100262f0 f i auth_service_wrap_core.obj
 0001:00025390       ??0?$vector@U_ZNZoomRealNameAuthCountryInfo@@V?$allocator@U_ZNZoomRealNameAuthCountryInfo@@@std@@@std@@QAE@ABV01@@Z 10026390 f i auth_service_wrap_core.obj
 0001:00025460       ??0?$vector@_KV?$allocator@_K@std@@@std@@QAE@ABV01@@Z 10026460 f i auth_service_wrap_core.obj
 0001:00025510       ??0SDKEventWrapMgr@@AAE@XZ 10026510 f i auth_service_wrap_core.obj
 0001:000255a0       ??0ZAuthServiceWrap@@QAE@XZ 100265a0 f   auth_service_wrap_core.obj
 0001:000255d0       ??0_ZNZoomRealNameAuthCountryInfo@@QAE@ABU0@@Z 100265d0 f i auth_service_wrap_core.obj
 0001:00025660       ??1ZAuthServiceWrap@@UAE@XZ 10026660 f   auth_service_wrap_core.obj
 0001:000256e0       ??1_ZNCameraInfo@@QAE@XZ   100266e0 f i auth_service_wrap_core.obj
 0001:00025750       ??1_ZNMicInfo@@QAE@XZ      10026750 f i auth_service_wrap_core.obj
 0001:000257c0       ??1_ZNSpeakerInfo@@QAE@XZ  100267c0 f i auth_service_wrap_core.obj
 0001:00025830       ??1_ZNZoomRealNameAuthCountryInfo@@QAE@XZ 10026830 f i auth_service_wrap_core.obj
 0001:000258d0       ??4?$basic_string@_WU?$char_traits@_W@std@@V?$allocator@_W@2@@std@@QAEAAV01@PB_W@Z 100268d0 f i auth_service_wrap_core.obj
 0001:00025920       ??_GZAuthServiceWrap@@UAEPAXI@Z 10026920 f i auth_service_wrap_core.obj
 0001:00025920       ??_EZAuthServiceWrap@@UAEPAXI@Z 10026920 f i auth_service_wrap_core.obj
 0001:00025950       ??_GZZoomRealNameAuthMeetingWrapEvent@@UAEPAXI@Z 10026950 f i auth_service_wrap_core.obj
 0001:00025950       ??_EZZoomRealNameAuthMeetingWrapEvent@@UAEPAXI@Z 10026950 f i auth_service_wrap_core.obj
 0001:00025980       ?AuthSDK@ZAuthServiceWrap@@QAE?AW4ZNSDKError@@AAU_ZNAuthContext@@@Z 10026980 f   auth_service_wrap_core.obj
 0001:000259e0       ?AuthSDK@ZAuthServiceWrap@@QAE?AW4ZNSDKError@@AAU_ZNAuthParam@@@Z 100269e0 f   auth_service_wrap_core.obj
 0001:00025a40       ?GetAuthResult@ZAuthServiceWrap@@QAE?AW4ZNAuthResult@@XZ 10026a40 f   auth_service_wrap_core.obj
 0001:00025a70       ?GetDirectShareHelper@ZAuthServiceWrap@@QAEAAVZDirectShareHelperWrap@@XZ 10026a70 f   auth_service_wrap_core.obj
 0001:00025a80       ?GetInst@SDKEventWrapMgr@@SAAAV1@XZ 10026a80 f i auth_service_wrap_core.obj
 0001:00025af0       ?GetInst@ZDirectShareViaMeetingIDOrPairingCodeHandler@@SAAAV1@XZ 10026af0 f i auth_service_wrap_core.obj
 0001:00025b60       ?GetInst@ZEndOtherMeetingToJoinMeetingHandler@@SAAAV1@XZ 10026b60 f i auth_service_wrap_core.obj
 0001:00025bd0       ?GetInst@ZMeetingPasswordAndScreenNameHandler@@SAAAV1@XZ 10026bd0 f i auth_service_wrap_core.obj
 0001:00025c40       ?GetInst@ZWebinarNeedRegisterHandler@@SAAAV1@XZ 10026c40 f i auth_service_wrap_core.obj
 0001:00025cb0       ?GetInst@ZoomRetrieveSMSVerificationCodeHandler@@SAAAV1@XZ 10026cb0 f i auth_service_wrap_core.obj
 0001:00025d20       ?GetInst@ZoomVerifySMSVerificationCodeHandler@@SAAAV1@XZ 10026d20 f i auth_service_wrap_core.obj
 0001:00025d90       ?GetLoginStatus@ZAuthServiceWrap@@QAE?AW4ZNLOGINSTATUS@@XZ 10026d90 f   auth_service_wrap_core.obj
 0001:00025dc0       ?Init@ZAuthServiceWrap@@QAEXXZ 10026dc0 f   auth_service_wrap_core.obj
 0001:00025e10       ?Login@ZAuthServiceWrap@@QAE?AW4ZNSDKError@@AAU_ZNLoginParam@@@Z 10026e10 f   auth_service_wrap_core.obj
 0001:00025ea0       ?LoginWithSSOToken@ZAuthServiceWrap@@QAE?AW4ZNSDKError@@AAU_ZNLoginParam@@@Z 10026ea0 f   auth_service_wrap_core.obj
 0001:00025f10       ?Logout@ZAuthServiceWrap@@QAE?AW4ZNSDKError@@XZ 10026f10 f   auth_service_wrap_core.obj
 0001:00025f40       ?OnDirectShareStatusUpdate@ZDirectShareHelperWrapEvent@@UAEXW4DirectShareStatusStatus_Enum@ZOOMSDK@@PAVIDirectShareViaMeetingIDOrPairingCodeHandler@3@@Z 10026f40 f i auth_service_wrap_core.obj
 0001:00025f90       ?SetSink@ZAuthServiceWrap@@QAEXPAVZNativeSDKAuthWrapSink@@@Z 10026f90 f   auth_service_wrap_core.obj
 0001:00025fa0       ?Uninit@ZAuthServiceWrap@@QAEXXZ 10026fa0 f   auth_service_wrap_core.obj
 0001:00025ff0       ?_Reallocate@?$vector@IV?$allocator@I@std@@@std@@IAEXI@Z 10026ff0 f i auth_service_wrap_core.obj
 0001:00026070       ?_Reallocate@?$vector@U_ZNCameraInfo@@V?$allocator@U_ZNCameraInfo@@@std@@@std@@IAEXI@Z 10027070 f i auth_service_wrap_core.obj
 0001:00026130       ?_Reallocate@?$vector@U_ZNMicInfo@@V?$allocator@U_ZNMicInfo@@@std@@@std@@IAEXI@Z 10027130 f i auth_service_wrap_core.obj
 0001:000261f0       ?_Reallocate@?$vector@U_ZNSpeakerInfo@@V?$allocator@U_ZNSpeakerInfo@@@std@@@std@@IAEXI@Z 100271f0 f i auth_service_wrap_core.obj
 0001:000262b0       ?_Reallocate@?$vector@U_ZNUserAudioStatus@@V?$allocator@U_ZNUserAudioStatus@@@std@@@std@@IAEXI@Z 100272b0 f i auth_service_wrap_core.obj
 0001:00026340       ?_Reallocate@?$vector@U_ZNZoomRealNameAuthCountryInfo@@V?$allocator@U_ZNZoomRealNameAuthCountryInfo@@@std@@@std@@IAEXI@Z 10027340 f i auth_service_wrap_core.obj
 0001:00026420       ?_Reallocate@?$vector@_KV?$allocator@_K@std@@@std@@IAEXI@Z 10027420 f i auth_service_wrap_core.obj
 0001:000264a0       ?_Reserve@?$vector@IV?$allocator@I@std@@@std@@IAEXI@Z 100274a0 f i auth_service_wrap_core.obj
 0001:00026520       ?_Reserve@?$vector@U_ZNCameraInfo@@V?$allocator@U_ZNCameraInfo@@@std@@@std@@IAEXI@Z 10027520 f i auth_service_wrap_core.obj
 0001:000265e0       ?_Reserve@?$vector@U_ZNMicInfo@@V?$allocator@U_ZNMicInfo@@@std@@@std@@IAEXI@Z 100275e0 f i auth_service_wrap_core.obj
 0001:000266a0       ?_Reserve@?$vector@U_ZNSpeakerInfo@@V?$allocator@U_ZNSpeakerInfo@@@std@@@std@@IAEXI@Z 100276a0 f i auth_service_wrap_core.obj
 0001:00026760       ?_Reserve@?$vector@U_ZNUserAudioStatus@@V?$allocator@U_ZNUserAudioStatus@@@std@@@std@@IAEXI@Z 10027760 f i auth_service_wrap_core.obj
 0001:000267e0       ?_Reserve@?$vector@U_ZNZoomRealNameAuthCountryInfo@@V?$allocator@U_ZNZoomRealNameAuthCountryInfo@@@std@@@std@@IAEXI@Z 100277e0 f i auth_service_wrap_core.obj
 0001:000268a0       ?_Reserve@?$vector@_KV?$allocator@_K@std@@@std@@IAEXI@Z 100278a0 f i auth_service_wrap_core.obj
 0001:00026920       ?_Tidy@?$vector@U_ZNZoomRealNameAuthCountryInfo@@V?$allocator@U_ZNZoomRealNameAuthCountryInfo@@@std@@@std@@IAEXXZ 10027920 f i auth_service_wrap_core.obj
 0001:00026990       ?allocate@?$allocator@I@std@@QAEPAII@Z 10027990 f i auth_service_wrap_core.obj
 0001:00026a10       ?allocate@?$allocator@U_ZNCameraInfo@@@std@@QAEPAU_ZNCameraInfo@@I@Z 10027a10 f i auth_service_wrap_core.obj
 0001:00026a90       ?allocate@?$allocator@U_ZNMicInfo@@@std@@QAEPAU_ZNMicInfo@@I@Z 10027a90 f i auth_service_wrap_core.obj
 0001:00026b10       ?allocate@?$allocator@U_ZNSpeakerInfo@@@std@@QAEPAU_ZNSpeakerInfo@@I@Z 10027b10 f i auth_service_wrap_core.obj
 0001:00026b90       ?allocate@?$allocator@U_ZNUserAudioStatus@@@std@@QAEPAU_ZNUserAudioStatus@@I@Z 10027b90 f i auth_service_wrap_core.obj
 0001:00026c10       ?allocate@?$allocator@U_ZNZoomRealNameAuthCountryInfo@@@std@@QAEPAU_ZNZoomRealNameAuthCountryInfo@@I@Z 10027c10 f i auth_service_wrap_core.obj
 0001:00026c90       ?allocate@?$allocator@_K@std@@QAEPA_KI@Z 10027c90 f i auth_service_wrap_core.obj
 0001:00026d10       ?deallocate@?$_Wrap_alloc@V?$allocator@I@std@@@std@@QAEXPAII@Z 10027d10 f i auth_service_wrap_core.obj
 0001:00026d80       ?deallocate@?$_Wrap_alloc@V?$allocator@U_ZNCameraInfo@@@std@@@std@@QAEXPAU_ZNCameraInfo@@I@Z 10027d80 f i auth_service_wrap_core.obj
 0001:00026df0       ?deallocate@?$_Wrap_alloc@V?$allocator@U_ZNMicInfo@@@std@@@std@@QAEXPAU_ZNMicInfo@@I@Z 10027df0 f i auth_service_wrap_core.obj
 0001:00026e60       ?deallocate@?$_Wrap_alloc@V?$allocator@U_ZNSpeakerInfo@@@std@@@std@@QAEXPAU_ZNSpeakerInfo@@I@Z 10027e60 f i auth_service_wrap_core.obj
 0001:00026ed0       ?deallocate@?$_Wrap_alloc@V?$allocator@U_ZNUserAudioStatus@@@std@@@std@@QAEXPAU_ZNUserAudioStatus@@I@Z 10027ed0 f i auth_service_wrap_core.obj
 0001:00026f40       ?deallocate@?$_Wrap_alloc@V?$allocator@_K@std@@@std@@QAEXPA_KI@Z 10027f40 f i auth_service_wrap_core.obj
 0001:00026fb0       ?deallocate@?$allocator@U_ZNZoomRealNameAuthCountryInfo@@@std@@QAEXPAU_ZNZoomRealNameAuthCountryInfo@@I@Z 10027fb0 f i auth_service_wrap_core.obj
 0001:00027020       ?onActiveSpeakerVideoUserChanged@ZMeetingVideoCtrlWrapEvent@@UAEXI@Z 10028020 f i auth_service_wrap_core.obj
 0001:00027040       ?onActiveVideoUserChanged@ZMeetingVideoCtrlWrapEvent@@UAEXI@Z 10028040 f i auth_service_wrap_core.obj
 0001:00027060       ?onAirPlayInstructionWndNotification@ZMeetingConfigCtrlWrapFreeMeetingEvent@@UAEX_NPB_W@Z 10028060 f i auth_service_wrap_core.obj
 0001:00027150       ?onAudioBtnClicked@ZMeetingUIControllerWrapEvent@@UAEXUtagAudioBtnClickedCallbackInfo@ZOOMSDK@@@Z 10028150 f i auth_service_wrap_core.obj
 0001:00027190       ?onAudioMenuBtnClicked@ZMeetingUIControllerWrapEvent@@UAEXXZ 10028190 f i auth_service_wrap_core.obj
 0001:000271a0       ?onAuthenticationReturn@ZAuthServiceWrap@@QAEXW4ZNAuthResult@@@Z 100281a0 f   auth_service_wrap_core.obj
 0001:000271c0       ?onAuthenticationReturn@ZAuthServiceWrapEvent@@UAEXW4AuthResult@ZOOMSDK@@@Z 100281c0 f i auth_service_wrap_core.obj
 0001:00027350       ?onBreakoutRoomBtnClicked@ZMeetingUIControllerWrapEvent@@UAEXXZ 10028350 f i auth_service_wrap_core.obj
 0001:00027360       ?onCCBTNClicked@ZMeetingUIControllerWrapEvent@@UAEXXZ 10028360 f i auth_service_wrap_core.obj
 0001:00027370       ?onCalloutStatusNotify@ZMeetingH323CtrlWrapEvent@@UAEXW4H323CalloutStatus@ZOOMSDK@@@Z 10028370 f i auth_service_wrap_core.obj
 0001:000273a0       ?onCloudRecordingStorageInfo@ZRecordingSettingContextWrapEvent@@UAEX_J0_N@Z 100283a0 f i auth_service_wrap_core.obj
 0001:000273d0       ?onCoHostChangeNotification@ZMeetingParticipantsCtrlEvent@@UAEXI_N@Z 100283d0 f i auth_service_wrap_core.obj
 0001:000273e0       ?onComputerCamDeviceChanged@ZVideoSettingContextWrapEvent@@UAEXPAV?$IList@PAVICameraInfo@ZOOMSDK@@@ZOOMSDK@@@Z 100283e0 f i auth_service_wrap_core.obj
 0001:00027620       ?onComputerMicDeviceChanged@ZAudioSettingContextWrapEvent@@UAEXPAV?$IList@PAVIMicInfo@ZOOMSDK@@@ZOOMSDK@@@Z 10028620 f i auth_service_wrap_core.obj
 0001:00027860       ?onComputerSpeakerDeviceChanged@ZAudioSettingContextWrapEvent@@UAEXPAV?$IList@PAVISpeakerInfo@ZOOMSDK@@@ZOOMSDK@@@Z 10028860 f i auth_service_wrap_core.obj
 0001:00027aa0       ?onCustomLiveStreamMenuClicked@ZMeetingUIControllerWrapEvent@@UAEXXZ 10028aa0 f i auth_service_wrap_core.obj
 0001:00027ab0       ?onDefaultCamDeviceChanged@ZVideoSettingContextWrapEvent@@UAEXPB_W0@Z 10028ab0 f i auth_service_wrap_core.obj
 0001:00027c60       ?onDefaultMicDeviceChanged@ZAudioSettingContextWrapEvent@@UAEXPB_W0@Z 10028c60 f i auth_service_wrap_core.obj
 0001:00027e10       ?onDefaultSpeakerDeviceChanged@ZAudioSettingContextWrapEvent@@UAEXPB_W0@Z 10028e10 f i auth_service_wrap_core.obj
 0001:00027fc0       ?onDeleteMeeting@ZPreMeetingServiceWrapEvent@@UAEXW4PremeetingAPIResult@ZOOMSDK@@@Z 10028fc0 f i auth_service_wrap_core.obj
 0001:00027ff0       ?onEndMeetingBtnClicked@ZMeetingUIControllerWrapEvent@@UAEXXZ 10028ff0 f i auth_service_wrap_core.obj
 0001:00028000       ?onEndOtherMeetingToJoinMeetingNotification@ZMeetingConfigCtrlWrapFreeMeetingEvent@@UAEXPAVIEndOtherMeetingToJoinMeetingHandler@ZOOMSDK@@@Z 10029000 f i auth_service_wrap_core.obj
 0001:00028030       ?onFreeMeetingEndingReminderNotification@ZMeetingConfigCtrlWrapFreeMeetingEvent@@UAEXPAVIFreeMeetingEndingReminderHandler@ZOOMSDK@@@Z 10029030 f i auth_service_wrap_core.obj
 0001:00028090       ?onFreeMeetingNeedToUpgrade@ZMeetingConfigCtrlWrapFreeMeetingEvent@@UAEXW4FreeMeetingNeedUpgradeType@IMeetingConfigurationFreeMeetingEvent@ZOOMSDK@@PB_W@Z 10029090 f i auth_service_wrap_core.obj
 0001:00028180       ?onFreeMeetingRemainTime@ZMeetingConfigCtrlWrapFreeMeetingEvent@@UAEXI@Z 10029180 f i auth_service_wrap_core.obj
 0001:000281a0       ?onFreeMeetingRemainTimeStopCountDown@ZMeetingConfigCtrlWrapFreeMeetingEvent@@UAEXXZ 100291a0 f i auth_service_wrap_core.obj
 0001:000281b0       ?onFreeMeetingUpgradeToGiftFreeTrialStart@ZMeetingConfigCtrlWrapFreeMeetingEvent@@UAEXXZ 100291b0 f i auth_service_wrap_core.obj
 0001:000281c0       ?onFreeMeetingUpgradeToGiftFreeTrialStop@ZMeetingConfigCtrlWrapFreeMeetingEvent@@UAEXXZ 100291c0 f i auth_service_wrap_core.obj
 0001:000281d0       ?onFreeMeetingUpgradeToProMeeting@ZMeetingConfigCtrlWrapFreeMeetingEvent@@UAEXXZ 100291d0 f i auth_service_wrap_core.obj
 0001:000281e0       ?onHostChangeNotification@ZMeetingParticipantsCtrlEvent@@UAEXI@Z 100291e0 f i auth_service_wrap_core.obj
 0001:00028200       ?onHostRequestStartAudio@ZMeetingAudioCtrlWrapEvent@@UAEXPAVIRequestStartAudioHandler@ZOOMSDK@@@Z 10029200 f i auth_service_wrap_core.obj
 0001:00028210       ?onHostRequestStartVideo@ZMeetingVideoCtrlWrapEvent@@UAEXPAVIRequestStartVideoHandler@ZOOMSDK@@@Z 10029210 f i auth_service_wrap_core.obj
 0001:00028220       ?onInputMeetingPasswordAndScreenNameNotification@ZMeetingConfigCtrlWrapFreeMeetingEvent@@UAEXPAVIMeetingPasswordAndScreenNameHandler@ZOOMSDK@@@Z 10029220 f i auth_service_wrap_core.obj
 0001:00028250       ?onInviteBtnClicked@ZMeetingUIControllerWrapEvent@@UAEXAA_N@Z 10029250 f i auth_service_wrap_core.obj
 0001:00028270       ?onListMeeting@ZPreMeetingServiceWrapEvent@@UAEXW4PremeetingAPIResult@ZOOMSDK@@PAV?$IList@_K@3@@Z 10029270 f i auth_service_wrap_core.obj
 0001:00028360       ?onLockShareStatus@ZMeetingShareCtrlWrapEvent@@UAEX_N@Z 10029360 f i auth_service_wrap_core.obj
 0001:00028370       ?onLoginRet@ZAuthServiceWrap@@QAEXW4ZNLOGINSTATUS@@@Z 10029370 f   auth_service_wrap_core.obj
 0001:00028390       ?onLoginRet@ZAuthServiceWrapEvent@@UAEXW4LOGINSTATUS@ZOOMSDK@@PAVIAccountInfo@3@@Z 10029390 f i auth_service_wrap_core.obj
 0001:00028400       ?onLogout@ZAuthServiceWrap@@QAEXXZ 10029400 f   auth_service_wrap_core.obj
 0001:00028410       ?onLogout@ZAuthServiceWrapEvent@@UAEXXZ 10029410 f i auth_service_wrap_core.obj
 0001:00028430       ?onLowOrRaiseHandStatusChanged@ZMeetingParticipantsCtrlEvent@@UAEX_NI@Z 10029430 f i auth_service_wrap_core.obj
 0001:00028440       ?onMeetingParameterNotification@ZMeetingServiceWrapEvent@@UAEXPBUtagMeetingParameter@ZOOMSDK@@@Z 10029440 f i auth_service_wrap_core.obj
 0001:00028450       ?onMeetingSecureKeyNotification@ZMeetingServiceWrapEvent@@UAEXPBDHPAVIMeetingExternalSecureKeyHandler@ZOOMSDK@@@Z 10029450 f i auth_service_wrap_core.obj
 0001:00028460       ?onMeetingStatisticsWarningNotification@ZMeetingServiceWrapEvent@@UAEXW4StatisticsWarningType@ZOOMSDK@@@Z 10029460 f i auth_service_wrap_core.obj
 0001:00028470       ?onMeetingStatusChanged@ZMeetingServiceWrapEvent@@UAEXW4MeetingStatus@ZOOMSDK@@H@Z 10029470 f i auth_service_wrap_core.obj
 0001:000284a0       ?onMultiShareSwitchToSingleShareNeedConfirm@ZMeetingShareCtrlWrapEvent@@UAEXPAVIShareSwitchMultiToSingleConfirmHandler@ZOOMSDK@@@Z 100294a0 f i auth_service_wrap_core.obj
 0001:000284b0       ?onNeedRealNameAuthMeetingNotification@ZZoomRealNameAuthMeetingWrapEvent@@UAEXPAV?$IVector@PAVIZoomRealNameAuthCountryInfo@@@@PBDPAVIZoomRetrieveSMSVerificationCodeHandler@@@Z 100294b0 f i auth_service_wrap_core.obj
 0001:000287c0       ?onParingH323Result@ZMeetingH323CtrlWrapEvent@@UAEXW4H323ParingResult@ZOOMSDK@@_K@Z 100297c0 f i auth_service_wrap_core.obj
 0001:000287d0       ?onParticipantListBtnClicked@ZMeetingUIControllerWrapEvent@@UAEXXZ 100297d0 f i auth_service_wrap_core.obj
 0001:000287e0       ?onRetrieveSMSVerificationCodeResultNotification@ZZoomRealNameAuthMeetingWrapEvent@@UAEXW4SMSVerificationCodeErr@@PAVIZoomVerifySMSVerificationCodeHandler@@@Z 100297e0 f i auth_service_wrap_core.obj
 0001:00028830       ?onScheduleOrEditMeeting@ZPreMeetingServiceWrapEvent@@UAEXW4PremeetingAPIResult@ZOOMSDK@@_K@Z 10029830 f i auth_service_wrap_core.obj
 0001:00028870       ?onShareContentNotification@ZMeetingShareCtrlWrapEvent@@UAEXAAUtagShareInfo@ZOOMSDK@@@Z 10029870 f i auth_service_wrap_core.obj
 0001:00028880       ?onSharingStatus@ZMeetingShareCtrlWrapEvent@@UAEXW4SharingStatus@ZOOMSDK@@I@Z 10029880 f i auth_service_wrap_core.obj
 0001:000288b0       ?onSpotlightVideoChangeNotification@ZMeetingVideoCtrlWrapEvent@@UAEX_NI@Z 100298b0 f i auth_service_wrap_core.obj
 0001:000288c0       ?onStartShareBtnClicked@ZMeetingUIControllerWrapEvent@@UAEXXZ 100298c0 f i auth_service_wrap_core.obj
 0001:000288d0       ?onUserActiveAudioChange@ZMeetingAudioCtrlWrapEvent@@UAEXPAV?$IList@I@ZOOMSDK@@@Z 100298d0 f i auth_service_wrap_core.obj
 0001:000289c0       ?onUserAudioStatusChange@ZMeetingAudioCtrlWrapEvent@@UAEXPAV?$IList@PAVIUserAudioStatus@ZOOMSDK@@@ZOOMSDK@@PB_W@Z 100299c0 f i auth_service_wrap_core.obj
 0001:00028b70       ?onUserJoin@ZMeetingParticipantsCtrlEvent@@UAEXPAV?$IList@I@ZOOMSDK@@PB_W@Z 10029b70 f i auth_service_wrap_core.obj
 0001:00028d80       ?onUserLeft@ZMeetingParticipantsCtrlEvent@@UAEXPAV?$IList@I@ZOOMSDK@@PB_W@Z 10029d80 f i auth_service_wrap_core.obj
 0001:00028f90       ?onUserNameChanged@ZMeetingParticipantsCtrlEvent@@UAEXIPB_W@Z 10029f90 f i auth_service_wrap_core.obj
 0001:00028fa0       ?onUserVideoStatusChange@ZMeetingVideoCtrlWrapEvent@@UAEXIW4VideoStatus@ZOOMSDK@@@Z 10029fa0 f i auth_service_wrap_core.obj
 0001:00028fd0       ?onVerifySMSVerificationCodeResultNotification@ZZoomRealNameAuthMeetingWrapEvent@@UAEXW4SMSVerificationCodeErr@@@Z 10029fd0 f i auth_service_wrap_core.obj
 0001:00029000       ?onWebinarNeedRegisterNotification@ZMeetingConfigCtrlWrapFreeMeetingEvent@@UAEXPAVIWebinarNeedRegisterHandler@ZOOMSDK@@@Z 1002a000 f i auth_service_wrap_core.obj
 0001:00029030       ?onZoomAuthIdentityExpired@ZAuthServiceWrap@@QAEXXZ 1002a030 f   auth_service_wrap_core.obj
 0001:00029040       ?onZoomAuthIdentityExpired@ZAuthServiceWrapEvent@@UAEXXZ 1002a040 f i auth_service_wrap_core.obj
 0001:00029060       ?onZoomIdentityExpired@ZAuthServiceWrap@@QAEXXZ 1002a060 f   auth_service_wrap_core.obj
 0001:00029070       ?onZoomIdentityExpired@ZAuthServiceWrapEvent@@UAEXXZ 1002a070 f i auth_service_wrap_core.obj
 0001:00029090       ?onZoomInviteDialogFailed@ZMeetingUIControllerWrapEvent@@UAEXXZ 1002a090 f i auth_service_wrap_core.obj
 0001:000290a0       ?push_back@?$vector@IV?$allocator@I@std@@@std@@QAEXABI@Z 1002a0a0 f i auth_service_wrap_core.obj
 0001:00029120       ?push_back@?$vector@U_ZNCameraInfo@@V?$allocator@U_ZNCameraInfo@@@std@@@std@@QAEXABU_ZNCameraInfo@@@Z 1002a120 f i auth_service_wrap_core.obj
 0001:000291b0       ?push_back@?$vector@U_ZNMicInfo@@V?$allocator@U_ZNMicInfo@@@std@@@std@@QAEXABU_ZNMicInfo@@@Z 1002a1b0 f i auth_service_wrap_core.obj
 0001:00029240       ?push_back@?$vector@U_ZNSpeakerInfo@@V?$allocator@U_ZNSpeakerInfo@@@std@@@std@@QAEXABU_ZNSpeakerInfo@@@Z 1002a240 f i auth_service_wrap_core.obj
 0001:000292d0       ?push_back@?$vector@U_ZNUserAudioStatus@@V?$allocator@U_ZNUserAudioStatus@@@std@@@std@@QAEXABU_ZNUserAudioStatus@@@Z 1002a2d0 f i auth_service_wrap_core.obj
 0001:00029360       ?push_back@?$vector@U_ZNZoomRealNameAuthCountryInfo@@V?$allocator@U_ZNZoomRealNameAuthCountryInfo@@@std@@@std@@QAEXABU_ZNZoomRealNameAuthCountryInfo@@@Z 1002a360 f i auth_service_wrap_core.obj
 0001:00029400       ?push_back@?$vector@_KV?$allocator@_K@std@@@std@@QAEXAB_K@Z 1002a400 f i auth_service_wrap_core.obj
 0001:00029490       ??$__vcrt_va_start_verify_argument_type@QB_W@@YAXXZ 1002a490 f i meeting_service_wrap_core.obj
 0001:000294a0       ??0ZMeetingServiceWrap@@QAE@XZ 1002a4a0 f   meeting_service_wrap_core.obj
 0001:00029540       ??0ZMeetingUICtrlWrap@@QAE@XZ 1002a540 f   meeting_service_wrap_core.obj
 0001:00029570       ??1ZMeetingInfoWrap@@UAE@XZ 1002a570 f i meeting_service_wrap_core.obj
 0001:00029580       ??1ZMeetingServiceWrap@@UAE@XZ 1002a580 f   meeting_service_wrap_core.obj
 0001:00029660       ??1ZMeetingUICtrlWrap@@UAE@XZ 1002a660 f   meeting_service_wrap_core.obj
 0001:000296f0       ??1_ZNJoinParam@@QAE@XZ    1002a6f0 f i meeting_service_wrap_core.obj
 0001:00029920       ??1_ZNShowChatDlgParam@@QAE@XZ 1002a920 f i meeting_service_wrap_core.obj
 0001:00029a70       ??1_ZNStartParam@@QAE@XZ   1002aa70 f i meeting_service_wrap_core.obj
 0001:00029c00       ??_GZMeetingInfoWrap@@UAEPAXI@Z 1002ac00 f i meeting_service_wrap_core.obj
 0001:00029c00       ??_EZMeetingInfoWrap@@UAEPAXI@Z 1002ac00 f i meeting_service_wrap_core.obj
 0001:00029c30       ??_GZMeetingServiceWrap@@UAEPAXI@Z 1002ac30 f i meeting_service_wrap_core.obj
 0001:00029c30       ??_EZMeetingServiceWrap@@UAEPAXI@Z 1002ac30 f i meeting_service_wrap_core.obj
 0001:00029c60       ??_EZMeetingUICtrlWrap@@UAEPAXI@Z 1002ac60 f i meeting_service_wrap_core.obj
 0001:00029c60       ??_GZMeetingUICtrlWrap@@UAEPAXI@Z 1002ac60 f i meeting_service_wrap_core.obj
 0001:00029c90       ?BackToMeeting@ZMeetingUICtrlWrap@@QAE?AW4ZNSDKError@@XZ 1002ac90 f   meeting_service_wrap_core.obj
 0001:00029cc0       ?CanSwapToShowShareViewOrVideo@ZMeetingUICtrlWrap@@QAE?AW4ZNSDKError@@AA_N@Z 1002acc0 f   meeting_service_wrap_core.obj
 0001:00029d00       ?ChangeFloatoActiveSpkVideoSize@ZMeetingUICtrlWrap@@QAE?AW4ZNSDKError@@W4ZNSDKFloatVideoType@@@Z 1002ad00 f   meeting_service_wrap_core.obj
 0001:00029d40       ?CheckingIsInternalMeeting@ZMeetingInfoWrap@@QAE_NXZ 1002ad40 f   meeting_service_wrap_core.obj
 0001:00029d80       ?EnterFullScreen@ZMeetingUICtrlWrap@@QAE?AW4ZNSDKError@@_N0@Z 1002ad80 f   meeting_service_wrap_core.obj
 0001:00029dc0       ?ExitFullScreen@ZMeetingUICtrlWrap@@QAE?AW4ZNSDKError@@_N0@Z 1002adc0 f   meeting_service_wrap_core.obj
 0001:00029e00       ?GetAudioConnQuality@ZMeetingServiceWrap@@QAE?AW4ZNConnectionQuality@@XZ 1002ae00 f   meeting_service_wrap_core.obj
 0001:00029e30       ?GetCurrentSplitScreenModeInfo@ZMeetingUICtrlWrap@@QAE?AW4ZNSDKError@@AAU_ZNSplitScreenInfo@@@Z 1002ae30 f   meeting_service_wrap_core.obj
 0001:00029ea0       ?GetInviteEmailTeamplate@ZMeetingInfoWrap@@QAE?AV?$basic_string@_WU?$char_traits@_W@std@@V?$allocator@_W@2@@std@@XZ 1002aea0 f   meeting_service_wrap_core.obj
 0001:00029f40       ?GetInviteEmailTitle@ZMeetingInfoWrap@@QAE?AV?$basic_string@_WU?$char_traits@_W@std@@V?$allocator@_W@2@@std@@XZ 1002af40 f   meeting_service_wrap_core.obj
 0001:00029fe0       ?GetJoinMeetingUrl@ZMeetingInfoWrap@@QAE?AV?$basic_string@_WU?$char_traits@_W@std@@V?$allocator@_W@2@@std@@XZ 1002afe0 f   meeting_service_wrap_core.obj
 0001:0002a080       ?GetMeetingAnnotation@ZMeetingServiceWrap@@QAEAAVZMeetingAnnotationWrap@@XZ 1002b080 f   meeting_service_wrap_core.obj
 0001:0002a090       ?GetMeetingAudioCtrl@ZMeetingServiceWrap@@QAEAAVZMeetingAudioWrap@@XZ 1002b090 f   meeting_service_wrap_core.obj
 0001:0002a0a0       ?GetMeetingConfigCtrl@ZMeetingServiceWrap@@QAEAAVZMeetingConfigWrap@@XZ 1002b0a0 f   meeting_service_wrap_core.obj
 0001:0002a0b0       ?GetMeetingH323Ctrl@ZMeetingServiceWrap@@QAEAAVZMeetingH323Wrap@@XZ 1002b0b0 f   meeting_service_wrap_core.obj
 0001:0002a0c0       ?GetMeetingHostTag@ZMeetingInfoWrap@@QAE?AV?$basic_string@_WU?$char_traits@_W@std@@V?$allocator@_W@2@@std@@XZ 1002b0c0 f   meeting_service_wrap_core.obj
 0001:0002a160       ?GetMeetingID@ZMeetingInfoWrap@@QAE?AV?$basic_string@_WU?$char_traits@_W@std@@V?$allocator@_W@2@@std@@XZ 1002b160 f   meeting_service_wrap_core.obj
 0001:0002a200       ?GetMeetingInfo@ZMeetingServiceWrap@@QAEAAVZMeetingInfoWrap@@XZ 1002b200 f   meeting_service_wrap_core.obj
 0001:0002a210       ?GetMeetingNumber@ZMeetingInfoWrap@@QAE_KXZ 1002b210 f   meeting_service_wrap_core.obj
 0001:0002a250       ?GetMeetingParticipantsCtrl@ZMeetingServiceWrap@@QAEAAVZMeetingParticipantsWrap@@XZ 1002b250 f   meeting_service_wrap_core.obj
 0001:0002a260       ?GetMeetingShareCtrl@ZMeetingServiceWrap@@QAEAAVZMeetingShareWrap@@XZ 1002b260 f   meeting_service_wrap_core.obj
 0001:0002a270       ?GetMeetingTopic@ZMeetingInfoWrap@@QAE?AV?$basic_string@_WU?$char_traits@_W@std@@V?$allocator@_W@2@@std@@XZ 1002b270 f   meeting_service_wrap_core.obj
 0001:0002a310       ?GetMeetingType@ZMeetingInfoWrap@@QAE?AW4ZNMeetingType@@XZ 1002b310 f   meeting_service_wrap_core.obj
 0001:0002a350       ?GetMeetingUICtrl@ZMeetingServiceWrap@@QAEAAVZMeetingUICtrlWrap@@XZ 1002b350 f   meeting_service_wrap_core.obj
 0001:0002a360       ?GetMeetingUIWnd@ZMeetingUICtrlWrap@@QAE?AW4ZNSDKError@@AAV?$basic_string@_WU?$char_traits@_W@std@@V?$allocator@_W@2@@std@@0@Z 1002b360 f   meeting_service_wrap_core.obj
 0001:0002a4b0       ?GetMeetingVideoCtrl@ZMeetingServiceWrap@@QAEAAVZMeetingVideoWrap@@XZ 1002b4b0 f   meeting_service_wrap_core.obj
 0001:0002a4c0       ?GetSDKSMSHelper@ZMeetingServiceWrap@@QAEAAVZSDKSMSHelperWrap@@XZ 1002b4c0 f   meeting_service_wrap_core.obj
 0001:0002a4d0       ?GetSharingConnQuality@ZMeetingServiceWrap@@QAE?AW4ZNConnectionQuality@@XZ 1002b4d0 f   meeting_service_wrap_core.obj
 0001:0002a500       ?GetVideoConnQuality@ZMeetingServiceWrap@@QAE?AW4ZNConnectionQuality@@XZ 1002b500 f   meeting_service_wrap_core.obj
 0001:0002a530       ?GetWallViewPageInfo@ZMeetingUICtrlWrap@@QAE?AW4ZNSDKError@@AAU_ZNVideoWallPageInfoParam@@@Z 1002b530 f   meeting_service_wrap_core.obj
 0001:0002a6b0       ?HandleZoomWebUriProtocolAction@ZMeetingServiceWrap@@QAE?AW4ZNSDKError@@V?$basic_string@_WU?$char_traits@_W@std@@V?$allocator@_W@2@@std@@@Z 1002b6b0 f   meeting_service_wrap_core.obj
 0001:0002a720       ?HideChatDlg@ZMeetingUICtrlWrap@@QAE?AW4ZNSDKError@@XZ 1002b720 f   meeting_service_wrap_core.obj
 0001:0002a750       ?HideJoinAudioDlg@ZMeetingUICtrlWrap@@QAE?AW4ZNSDKError@@XZ 1002b750 f   meeting_service_wrap_core.obj
 0001:0002a780       ?Init@ZMeetingServiceWrap@@QAEXXZ 1002b780 f   meeting_service_wrap_core.obj
 0001:0002a7d0       ?Init@ZMeetingUICtrlWrap@@QAEXXZ 1002b7d0 f   meeting_service_wrap_core.obj
 0001:0002a840       ?IsDisplayingShareViewOrVideo@ZMeetingUICtrlWrap@@QAE?AW4ZNSDKError@@AA_N@Z 1002b840 f   meeting_service_wrap_core.obj
 0001:0002a880       ?IsMinimizeModeOfFristScreenMeetingUIWnd@ZMeetingUICtrlWrap@@QAE_NAAW4ZNSDKMinimizeUIMode@@@Z 1002b880 f   meeting_service_wrap_core.obj
 0001:0002a920       ?Join@ZMeetingServiceWrap@@QAE?AW4ZNSDKError@@U_ZNJoinParam@@@Z 1002b920 f   meeting_service_wrap_core.obj
 0001:0002aac0       ?Join_WithoutLogin@ZMeetingServiceWrap@@QAE?AW4ZNSDKError@@U_ZNJoinParam@@@Z 1002bac0 f   meeting_service_wrap_core.obj
 0001:0002ac80       ?Leave@ZMeetingServiceWrap@@QAE?AW4ZNSDKError@@W4ZNLeaveMeetingCmd@@@Z 1002bc80 f   meeting_service_wrap_core.obj
 0001:0002acc0       ?Lock@ZMeetingServiceWrap@@QAE?AW4ZNSDKError@@XZ 1002bcc0 f   meeting_service_wrap_core.obj
 0001:0002acf0       ?MoveFloatVideoWnd@ZMeetingUICtrlWrap@@QAE?AW4ZNSDKError@@V?$basic_string@_WU?$char_traits@_W@std@@V?$allocator@_W@2@@std@@0@Z 1002bcf0 f   meeting_service_wrap_core.obj
 0001:0002adc0       ?SetSink@ZMeetingServiceWrap@@QAEXPAVZNativeSDKMeetingWrapSink@@@Z 1002bdc0 f   meeting_service_wrap_core.obj
 0001:0002add0       ?SetSink@ZMeetingUICtrlWrap@@QAEXPAVZNativeSDKMeetingUICtrlWrapSink@@@Z 1002bdd0 f   meeting_service_wrap_core.obj
 0001:0002ade0       ?ShowBottomFloatToolbarWnd@ZMeetingUICtrlWrap@@QAE?AW4ZNSDKError@@_N@Z 1002bde0 f   meeting_service_wrap_core.obj
 0001:0002ae20       ?ShowChatDlg@ZMeetingUICtrlWrap@@QAE?AW4ZNSDKError@@U_ZNShowChatDlgParam@@@Z 1002be20 f   meeting_service_wrap_core.obj
 0001:0002af80       ?ShowJoinAudioDlg@ZMeetingUICtrlWrap@@QAE?AW4ZNSDKError@@XZ 1002bf80 f   meeting_service_wrap_core.obj
 0001:0002afb0       ?ShowParticipantsListWnd@ZMeetingUICtrlWrap@@QAE?AW4ZNSDKError@@_N@Z 1002bfb0 f   meeting_service_wrap_core.obj
 0001:0002b000       ?ShowPreOrNextPageVideo@ZMeetingUICtrlWrap@@QAE?AW4ZNSDKError@@_N@Z 1002c000 f   meeting_service_wrap_core.obj
 0001:0002b040       ?ShowSharingFrameWindows@ZMeetingUICtrlWrap@@QAE?AW4ZNSDKError@@_N@Z 1002c040 f   meeting_service_wrap_core.obj
 0001:0002b080       ?ShowSharingToolbar@ZMeetingUICtrlWrap@@QAE?AW4ZNSDKError@@_N@Z 1002c080 f   meeting_service_wrap_core.obj
 0001:0002b0c0       ?Start@ZMeetingServiceWrap@@QAE?AW4ZNSDKError@@U_ZNStartParam@@@Z 1002c0c0 f   meeting_service_wrap_core.obj
 0001:0002b1c0       ?Start_WithoutLogin@ZMeetingServiceWrap@@QAE?AW4ZNSDKError@@U_ZNStartParam@@@Z 1002c1c0 f   meeting_service_wrap_core.obj
 0001:0002b390       ?SwapToShowShareViewOrVideo@ZMeetingUICtrlWrap@@QAE?AW4ZNSDKError@@_N@Z 1002c390 f   meeting_service_wrap_core.obj
 0001:0002b3d0       ?SwitchFloatVideoToActiveSpkMod@ZMeetingUICtrlWrap@@QAE?AW4ZNSDKError@@XZ 1002c3d0 f   meeting_service_wrap_core.obj
 0001:0002b400       ?SwitchFloatVideoToGalleryMod@ZMeetingUICtrlWrap@@QAE?AW4ZNSDKError@@XZ 1002c400 f   meeting_service_wrap_core.obj
 0001:0002b430       ?SwitchMinimizeUIMode4FristScreenMeetingUIWnd@ZMeetingUICtrlWrap@@QAE?AW4ZNSDKError@@W4ZNSDKMinimizeUIMode@@@Z 1002c430 f   meeting_service_wrap_core.obj
 0001:0002b470       ?SwitchSplitScreenMode@ZMeetingUICtrlWrap@@QAE?AW4ZNSDKError@@_N@Z 1002c470 f   meeting_service_wrap_core.obj
 0001:0002b4b0       ?SwitchToVideoWall@ZMeetingUICtrlWrap@@QAE?AW4ZNSDKError@@XZ 1002c4b0 f   meeting_service_wrap_core.obj
 0001:0002b4e0       ?SwtichToAcitveSpeaker@ZMeetingUICtrlWrap@@QAE?AW4ZNSDKError@@XZ 1002c4e0 f   meeting_service_wrap_core.obj
 0001:0002b510       ?Uninit@ZMeetingServiceWrap@@QAEXXZ 1002c510 f   meeting_service_wrap_core.obj
 0001:0002b560       ?Uninit@ZMeetingUICtrlWrap@@QAEXXZ 1002c560 f   meeting_service_wrap_core.obj
 0001:0002b5c0       ?Unlock@ZMeetingServiceWrap@@QAE?AW4ZNSDKError@@XZ 1002c5c0 f   meeting_service_wrap_core.obj
 0001:0002b5f0       ?onAudioBtnClicked@ZMeetingUICtrlWrap@@QAEXUtagZNAudioBtnClickedCallbackInfo@@@Z 1002c5f0 f   meeting_service_wrap_core.obj
 0001:0002b610       ?onAudioMenuBtnClicked@ZMeetingUICtrlWrap@@QAEXXZ 1002c610 f   meeting_service_wrap_core.obj
 0001:0002b620       ?onCCBTNClicked@ZMeetingUICtrlWrap@@QAEXXZ 1002c620 f   meeting_service_wrap_core.obj
 0001:0002b630       ?onCustomLiveStreamMenuClicked@ZMeetingUICtrlWrap@@QAEXXZ 1002c630 f   meeting_service_wrap_core.obj
 0001:0002b640       ?onEndMeetingBtnClicked@ZMeetingUICtrlWrap@@QAEXXZ 1002c640 f   meeting_service_wrap_core.obj
 0001:0002b650       ?onInviteBtnClicked@ZMeetingUICtrlWrap@@QAEXAA_N@Z 1002c650 f   meeting_service_wrap_core.obj
 0001:0002b670       ?onMeetingStatusChanged@ZMeetingServiceWrap@@QAEXW4ZNMeetingStatus@@H@Z 1002c670 f   meeting_service_wrap_core.obj
 0001:0002b690       ?onParticipantListBtnClicked@ZMeetingUICtrlWrap@@QAEXXZ 1002c690 f   meeting_service_wrap_core.obj
 0001:0002b6a0       ?onStartShareBtnClicked@ZMeetingUICtrlWrap@@QAEXXZ 1002c6a0 f   meeting_service_wrap_core.obj
 0001:0002b6b0       ?onZoomInviteDialogFailed@ZMeetingUICtrlWrap@@QAEXXZ 1002c6b0 f   meeting_service_wrap_core.obj
 0001:0002b6c0       ___local_stdio_scanf_options 1002c6c0 f i meeting_service_wrap_core.obj
 0001:0002b6d0       _swscanf_s                 1002c6d0 f i meeting_service_wrap_core.obj
 0001:0002b710       ??0ZSettingServiceWrap@@QAE@XZ 1002c710 f   setting_service_wrap_core.obj
 0001:0002b770       ??1ZSettingServiceWrap@@UAE@XZ 1002c770 f   setting_service_wrap_core.obj
 0001:0002b800       ??1_ZNShowSettingDlgParam@@QAE@XZ 1002c800 f i setting_service_wrap_core.obj
 0001:0002b8e0       ??_EZSettingServiceWrap@@UAEPAXI@Z 1002c8e0 f i setting_service_wrap_core.obj
 0001:0002b8e0       ??_GZSettingServiceWrap@@UAEPAXI@Z 1002c8e0 f i setting_service_wrap_core.obj
 0001:0002b910       ?GetSettingAccessibilityCtrl@ZSettingServiceWrap@@QAEAAVZSettingAccessibilityWrap@@XZ 1002c910 f   setting_service_wrap_core.obj
 0001:0002b920       ?GetSettingAudioCtrl@ZSettingServiceWrap@@QAEAAVZSettingAudioWrap@@XZ 1002c920 f   setting_service_wrap_core.obj
 0001:0002b930       ?GetSettingGeneralCtrl@ZSettingServiceWrap@@QAEAAVZSettingGeneralWrap@@XZ 1002c930 f   setting_service_wrap_core.obj
 0001:0002b940       ?GetSettingRecordingCtrl@ZSettingServiceWrap@@QAEAAVZSettingRecordingWrap@@XZ 1002c940 f   setting_service_wrap_core.obj
 0001:0002b950       ?GetSettingStatisticCtrl@ZSettingServiceWrap@@QAEAAVZSettingStatisticWrap@@XZ 1002c950 f   setting_service_wrap_core.obj
 0001:0002b960       ?GetSettingStrategyCtrl@ZSettingServiceWrap@@QAEAAVZSettingUIStrategyWrap@@XZ 1002c960 f   setting_service_wrap_core.obj
 0001:0002b970       ?GetSettingVideoCtrl@ZSettingServiceWrap@@QAEAAVZSettingVideoWrap@@XZ 1002c970 f   setting_service_wrap_core.obj
 0001:0002b980       ?HideSettingDlg@ZSettingServiceWrap@@QAE?AW4ZNSDKError@@XZ 1002c980 f   setting_service_wrap_core.obj
 0001:0002b9b0       ?Init@ZSettingServiceWrap@@QAEXXZ 1002c9b0 f   setting_service_wrap_core.obj
 0001:0002ba00       ?ShowSettingDlg@ZSettingServiceWrap@@QAE?AW4ZNSDKError@@U_ZNShowSettingDlgParam@@@Z 1002ca00 f   setting_service_wrap_core.obj
 0001:0002bb00       ?Uninit@ZSettingServiceWrap@@QAEXXZ 1002cb00 f   setting_service_wrap_core.obj
 0001:0002bb40       ??0ZPremeetingServiceWrap@@QAE@XZ 1002cb40 f   premeeting_service_wrap_core.obj
 0001:0002bb70       ??1ZPremeetingServiceWrap@@UAE@XZ 1002cb70 f   premeeting_service_wrap_core.obj
 0001:0002bbf0       ??1_ZNWndPosition@@QAE@XZ  1002cbf0 f i premeeting_service_wrap_core.obj
 0001:0002bcd0       ??_EZPremeetingServiceWrap@@UAEPAXI@Z 1002ccd0 f i premeeting_service_wrap_core.obj
 0001:0002bcd0       ??_GZPremeetingServiceWrap@@UAEPAXI@Z 1002ccd0 f i premeeting_service_wrap_core.obj
 0001:0002bd00       ?DeleteMeeting@ZPremeetingServiceWrap@@QAE?AW4ZNSDKError@@_K@Z 1002cd00 f   premeeting_service_wrap_core.obj
 0001:0002bd30       ?EditMeeting@ZPremeetingServiceWrap@@QAE?AW4ZNSDKError@@U_ZNWndPosition@@_K@Z 1002cd30 f   premeeting_service_wrap_core.obj
 0001:0002be20       ?EditMeeting@ZPremeetingServiceWrap@@QAE?AW4ZNSDKError@@_K@Z 1002ce20 f   premeeting_service_wrap_core.obj
 0001:0002be80       ?Init@ZPremeetingServiceWrap@@QAEXXZ 1002ce80 f   premeeting_service_wrap_core.obj
 0001:0002bed0       ?ListMeeting@ZPremeetingServiceWrap@@QAE?AW4ZNSDKError@@XZ 1002ced0 f   premeeting_service_wrap_core.obj
 0001:0002bf00       ?ScheduleMeeting@ZPremeetingServiceWrap@@QAE?AW4ZNSDKError@@U_ZNWndPosition@@@Z 1002cf00 f   premeeting_service_wrap_core.obj
 0001:0002bfe0       ?ScheduleMeeting@ZPremeetingServiceWrap@@QAE?AW4ZNSDKError@@XZ 1002cfe0 f   premeeting_service_wrap_core.obj
 0001:0002c020       ?SetSink@ZPremeetingServiceWrap@@QAEXPAVZNativeSDKPreMeetingWrapSink@@@Z 1002d020 f   premeeting_service_wrap_core.obj
 0001:0002c030       ?Uninit@ZPremeetingServiceWrap@@QAEXXZ 1002d030 f   premeeting_service_wrap_core.obj
 0001:0002c080       ?onDeleteMeeting@ZPremeetingServiceWrap@@QAEXW4ZNPremeetingAPIResult@@@Z 1002d080 f   premeeting_service_wrap_core.obj
 0001:0002c0a0       ?onListMeeting@ZPremeetingServiceWrap@@QAEXW4ZNPremeetingAPIResult@@V?$vector@_KV?$allocator@_K@std@@@std@@@Z 1002d0a0 f   premeeting_service_wrap_core.obj
 0001:0002c100       ?onScheduleOrEditMeeting@ZPremeetingServiceWrap@@QAEXW4ZNPremeetingAPIResult@@_K@Z 1002d100 f   premeeting_service_wrap_core.obj
 0001:0002c120       ??0ZMeetingAnnotationWrap@@QAE@XZ 1002d120 f   meeting_annotation_wrap_core.obj
 0001:0002c130       ??1ZMeetingAnnotationWrap@@UAE@XZ 1002d130 f   meeting_annotation_wrap_core.obj
 0001:0002c170       ??_EZMeetingAnnotationWrap@@UAEPAXI@Z 1002d170 f i meeting_annotation_wrap_core.obj
 0001:0002c170       ??_GZMeetingAnnotationWrap@@UAEPAXI@Z 1002d170 f i meeting_annotation_wrap_core.obj
 0001:0002c1d0       ?Clear@ZMeetingAnnotationWrap@@QAE?AW4ZNSDKError@@W4ZNSDKViewType@@W4ZNAnnotationClearType@@@Z 1002d1d0 f   meeting_annotation_wrap_core.obj
 0001:0002c230       ?Init@ZMeetingAnnotationWrap@@QAEXXZ 1002d230 f   meeting_annotation_wrap_core.obj
 0001:0002c270       ?IsAnnoataionDisable@ZMeetingAnnotationWrap@@QAE_NXZ 1002d270 f   meeting_annotation_wrap_core.obj
 0001:0002c290       ?Redo@ZMeetingAnnotationWrap@@QAE?AW4ZNSDKError@@W4ZNSDKViewType@@@Z 1002d290 f   meeting_annotation_wrap_core.obj
 0001:0002c2d0       ?SetColor@ZMeetingAnnotationWrap@@QAE?AW4ZNSDKError@@W4ZNSDKViewType@@V?$basic_string@_WU?$char_traits@_W@std@@V?$allocator@_W@2@@std@@@Z 1002d2d0 f   meeting_annotation_wrap_core.obj
 0001:0002c450       ?SetLineWidth@ZMeetingAnnotationWrap@@QAE?AW4ZNSDKError@@W4ZNSDKViewType@@V?$basic_string@_WU?$char_traits@_W@std@@V?$allocator@_W@2@@std@@@Z 1002d450 f   meeting_annotation_wrap_core.obj
 0001:0002c4e0       ?SetTool@ZMeetingAnnotationWrap@@QAE?AW4ZNSDKError@@W4ZNSDKViewType@@W4ZNAnnotationToolType@@@Z 1002d4e0 f   meeting_annotation_wrap_core.obj
 0001:0002c540       ?StartAnnotation@ZMeetingAnnotationWrap@@QAE?AW4ZNSDKError@@W4ZNSDKViewType@@V?$basic_string@_WU?$char_traits@_W@std@@V?$allocator@_W@2@@std@@1@Z 1002d540 f   meeting_annotation_wrap_core.obj
 0001:0002c620       ?StopAnnotation@ZMeetingAnnotationWrap@@QAE?AW4ZNSDKError@@W4ZNSDKViewType@@@Z 1002d620 f   meeting_annotation_wrap_core.obj
 0001:0002c660       ?Undo@ZMeetingAnnotationWrap@@QAE?AW4ZNSDKError@@W4ZNSDKViewType@@@Z 1002d660 f   meeting_annotation_wrap_core.obj
 0001:0002c6a0       ?Uninit@ZMeetingAnnotationWrap@@QAEXXZ 1002d6a0 f   meeting_annotation_wrap_core.obj
 0001:0002c6e0       ??0ZMeetingAudioWrap@@QAE@XZ 1002d6e0 f   meeting_audio_wrap_core.obj
 0001:0002c710       ??1ZMeetingAudioWrap@@UAE@XZ 1002d710 f   meeting_audio_wrap_core.obj
 0001:0002c7a0       ??_GZMeetingAudioWrap@@UAEPAXI@Z 1002d7a0 f i meeting_audio_wrap_core.obj
 0001:0002c7a0       ??_EZMeetingAudioWrap@@UAEPAXI@Z 1002d7a0 f i meeting_audio_wrap_core.obj
 0001:0002c7d0       ?Init@ZMeetingAudioWrap@@QAEXXZ 1002d7d0 f   meeting_audio_wrap_core.obj
 0001:0002c840       ?JoinVoip@ZMeetingAudioWrap@@QAE?AW4ZNSDKError@@XZ 1002d840 f   meeting_audio_wrap_core.obj
 0001:0002c870       ?LeaveVoip@ZMeetingAudioWrap@@QAE?AW4ZNSDKError@@XZ 1002d870 f   meeting_audio_wrap_core.obj
 0001:0002c8a0       ?MuteAudio@ZMeetingAudioWrap@@QAE?AW4ZNSDKError@@I_N@Z 1002d8a0 f   meeting_audio_wrap_core.obj
 0001:0002c8e0       ?SetSink@ZMeetingAudioWrap@@QAEXPAVZNativeSDKMeetingAudioWrapSink@@@Z 1002d8e0 f   meeting_audio_wrap_core.obj
 0001:0002c8f0       ?UnMuteAudio@ZMeetingAudioWrap@@QAE?AW4ZNSDKError@@I@Z 1002d8f0 f   meeting_audio_wrap_core.obj
 0001:0002c930       ?Uninit@ZMeetingAudioWrap@@QAEXXZ 1002d930 f   meeting_audio_wrap_core.obj
 0001:0002c990       ?onUserActiveAudioChange@ZMeetingAudioWrap@@QAEXV?$vector@IV?$allocator@I@std@@@std@@@Z 1002d990 f   meeting_audio_wrap_core.obj
 0001:0002c9f0       ?onUserAudioStatusChange@ZMeetingAudioWrap@@QAEXV?$vector@U_ZNUserAudioStatus@@V?$allocator@U_ZNUserAudioStatus@@@std@@@std@@V?$basic_string@_WU?$char_traits@_W@std@@V?$allocator@_W@2@@3@@Z 1002d9f0 f   meeting_audio_wrap_core.obj
 0001:0002cab0       ??0ZMeetingVideoWrap@@QAE@XZ 1002dab0 f   meeting_video_wrap_core.obj
 0001:0002cae0       ??1ZMeetingVideoWrap@@UAE@XZ 1002dae0 f   meeting_video_wrap_core.obj
 0001:0002cb70       ??_EZMeetingVideoWrap@@UAEPAXI@Z 1002db70 f i meeting_video_wrap_core.obj
 0001:0002cb70       ??_GZMeetingVideoWrap@@UAEPAXI@Z 1002db70 f i meeting_video_wrap_core.obj
 0001:0002cba0       ?HideOrShowNoVideoUserOnVideoWall@ZMeetingVideoWrap@@QAE?AW4ZNSDKError@@_N@Z 1002dba0 f   meeting_video_wrap_core.obj
 0001:0002cbe0       ?Init@ZMeetingVideoWrap@@QAEXXZ 1002dbe0 f   meeting_video_wrap_core.obj
 0001:0002cc50       ?MuteVideo@ZMeetingVideoWrap@@QAE?AW4ZNSDKError@@I@Z 1002dc50 f   meeting_video_wrap_core.obj
 0001:0002cd00       ?PinVideo@ZMeetingVideoWrap@@QAE?AW4ZNSDKError@@_N0I@Z 1002dd00 f   meeting_video_wrap_core.obj
 0001:0002cd40       ?SetSink@ZMeetingVideoWrap@@QAEXPAVZNativeSDKMeetingVideoWrapSink@@@Z 1002dd40 f   meeting_video_wrap_core.obj
 0001:0002cd50       ?SpotlightVideo@ZMeetingVideoWrap@@QAE?AW4ZNSDKError@@_NI@Z 1002dd50 f   meeting_video_wrap_core.obj
 0001:0002cd90       ?UnMuteVideo@ZMeetingVideoWrap@@QAE?AW4ZNSDKError@@I@Z 1002dd90 f   meeting_video_wrap_core.obj
 0001:0002ce40       ?Uninit@ZMeetingVideoWrap@@QAEXXZ 1002de40 f   meeting_video_wrap_core.obj
 0001:0002cea0       ?onActiveSpeakerVideoUserChanged@ZMeetingVideoWrap@@QAEXI@Z 1002dea0 f   meeting_video_wrap_core.obj
 0001:0002cec0       ?onActiveVideoUserChanged@ZMeetingVideoWrap@@QAEXI@Z 1002dec0 f   meeting_video_wrap_core.obj
 0001:0002cee0       ?onUserVideoStatusChange@ZMeetingVideoWrap@@QAEXIW4ZNVideoStatus@@@Z 1002dee0 f   meeting_video_wrap_core.obj
 0001:0002cf00       ??0ZMeetingShareWrap@@QAE@XZ 1002df00 f   meeting_share_wrap_core.obj
 0001:0002cf30       ??1ZMeetingShareWrap@@UAE@XZ 1002df30 f   meeting_share_wrap_core.obj
 0001:0002cfc0       ??_GZMeetingShareWrap@@UAEPAXI@Z 1002dfc0 f i meeting_share_wrap_core.obj
 0001:0002cfc0       ??_EZMeetingShareWrap@@UAEPAXI@Z 1002dfc0 f i meeting_share_wrap_core.obj
 0001:0002cff0       ?Init@ZMeetingShareWrap@@QAEXXZ 1002dff0 f   meeting_share_wrap_core.obj
 0001:0002d060       ?SetSink@ZMeetingShareWrap@@QAEXPAVZNativeSDKMeetingShareWrapSink@@@Z 1002e060 f   meeting_share_wrap_core.obj
 0001:0002d070       ?StartAppShare@ZMeetingShareWrap@@QAE?AW4ZNSDKError@@V?$basic_string@_WU?$char_traits@_W@std@@V?$allocator@_W@2@@std@@@Z 1002e070 f   meeting_share_wrap_core.obj
 0001:0002d110       ?StartMonitorShare@ZMeetingShareWrap@@QAE?AW4ZNSDKError@@V?$basic_string@_WU?$char_traits@_W@std@@V?$allocator@_W@2@@std@@@Z 1002e110 f   meeting_share_wrap_core.obj
 0001:0002d190       ?StopShare@ZMeetingShareWrap@@QAE?AW4ZNSDKError@@XZ 1002e190 f   meeting_share_wrap_core.obj
 0001:0002d1c0       ?Uninit@ZMeetingShareWrap@@QAEXXZ 1002e1c0 f   meeting_share_wrap_core.obj
 0001:0002d220       ?onSharingStatus@ZMeetingShareWrap@@QAEXW4ZNShareStatus@@I@Z 1002e220 f   meeting_share_wrap_core.obj
 0001:0002d240       ??0ZMeetingConfigWrap@@QAE@XZ 1002e240 f   meeting_config_wrap_core.obj
 0001:0002d270       ??1ZMeetingConfigWrap@@UAE@XZ 1002e270 f   meeting_config_wrap_core.obj
 0001:0002d300       ??_EZMeetingConfigWrap@@UAEPAXI@Z 1002e300 f i meeting_config_wrap_core.obj
 0001:0002d300       ??_GZMeetingConfigWrap@@UAEPAXI@Z 1002e300 f i meeting_config_wrap_core.obj
 0001:0002d330       ?AlwaysShowIconOnTaskBar@ZMeetingConfigWrap@@QAEX_N@Z 1002e330 f   meeting_config_wrap_core.obj
 0001:0002d360       ?CancelRegisterWebinarByEmail@ZMeetingConfigWrap@@QAEXXZ 1002e360 f   meeting_config_wrap_core.obj
 0001:0002d3e0       ?CancelUpdate@ZMeetingConfigWrap@@QAE?AW4ZNSDKError@@XZ 1002e3e0 f   meeting_config_wrap_core.obj
 0001:0002d460       ?ConfigDSCP@ZMeetingConfigWrap@@QAEXHH_N@Z 1002e460 f   meeting_config_wrap_core.obj
 0001:0002d4b0       ?DisableAutoShowSelectJoinAudioDlgWhenJoinMeeting@ZMeetingConfigWrap@@QAEX_N@Z 1002e4b0 f   meeting_config_wrap_core.obj
 0001:0002d4e0       ?DisableFreeMeetingRemainTimeNotify@ZMeetingConfigWrap@@QAEX_N@Z 1002e4e0 f   meeting_config_wrap_core.obj
 0001:0002d510       ?DisablePopupMeetingWrongPSWDlg@ZMeetingConfigWrap@@QAEX_N@Z 1002e510 f   meeting_config_wrap_core.obj
 0001:0002d540       ?DisableRemoteCtrlCopyPasteFeature@ZMeetingConfigWrap@@QAEX_N@Z 1002e540 f   meeting_config_wrap_core.obj
 0001:0002d570       ?DisableShowJoinMeetingWnd@ZMeetingConfigWrap@@QAEX_N@Z 1002e570 f   meeting_config_wrap_core.obj
 0001:0002d5a0       ?DisableSplitScreenModeUIElements@ZMeetingConfigWrap@@QAEX_N@Z 1002e5a0 f   meeting_config_wrap_core.obj
 0001:0002d5d0       ?DisableTopMostAttr4SettingDialog@ZMeetingConfigWrap@@QAEX_N@Z 1002e5d0 f   meeting_config_wrap_core.obj
 0001:0002d600       ?DisableWaitingForHostDialog@ZMeetingConfigWrap@@QAEX_N@Z 1002e600 f   meeting_config_wrap_core.obj
 0001:0002d630       ?EnableAirplayInstructionWindow@ZMeetingConfigWrap@@QAEX_N@Z 1002e630 f   meeting_config_wrap_core.obj
 0001:0002d660       ?EnableApproveRemoteControlDlg@ZMeetingConfigWrap@@QAEX_N@Z 1002e660 f   meeting_config_wrap_core.obj
 0001:0002d690       ?EnableAudioButtonOnMeetingUI@ZMeetingConfigWrap@@QAEX_N@Z 1002e690 f   meeting_config_wrap_core.obj
 0001:0002d6c0       ?EnableAutoAdjustMicVolumeWhenJoinAudio@ZMeetingConfigWrap@@QAEX_N@Z 1002e6c0 f   meeting_config_wrap_core.obj
 0001:0002d6f0       ?EnableAutoAdjustSpeakerVolumeWhenJoinAudio@ZMeetingConfigWrap@@QAEX_N@Z 1002e6f0 f   meeting_config_wrap_core.obj
 0001:0002d720       ?EnableAutoEndOtherMeetingWhenStartMeeting@ZMeetingConfigWrap@@QAEX_N@Z 1002e720 f   meeting_config_wrap_core.obj
 0001:0002d750       ?EnableAutoHideJoinAudioDialog@ZMeetingConfigWrap@@QAEX_N@Z 1002e750 f   meeting_config_wrap_core.obj
 0001:0002d780       ?EnableClaimHostFeature@ZMeetingConfigWrap@@QAEX_N@Z 1002e780 f   meeting_config_wrap_core.obj
 0001:0002d7b0       ?EnableDeclineRemoteControlResponseDlg@ZMeetingConfigWrap@@QAEX_N@Z 1002e7b0 f   meeting_config_wrap_core.obj
 0001:0002d7e0       ?EnableEnterAndExitFullScreenButtonOnMeetingUI@ZMeetingConfigWrap@@QAEX_N@Z 1002e7e0 f   meeting_config_wrap_core.obj
 0001:0002d810       ?EnableForceAutoStartMyVideoWhenJoinMeeting@ZMeetingConfigWrap@@QAEX_N@Z 1002e810 f   meeting_config_wrap_core.obj
 0001:0002d840       ?EnableForceAutoStopMyVideoWhenJoinMeeting@ZMeetingConfigWrap@@QAEX_N@Z 1002e840 f   meeting_config_wrap_core.obj
 0001:0002d870       ?EnableGrabShareWithoutReminder@ZMeetingConfigWrap@@QAEX_N@Z 1002e870 f   meeting_config_wrap_core.obj
 0001:0002d8a0       ?EnableHideFullPhoneNumber4PureCallinUser@ZMeetingConfigWrap@@QAEX_N@Z 1002e8a0 f   meeting_config_wrap_core.obj
 0001:0002d8d0       ?EnableInputMeetingPasswordDlg@ZMeetingConfigWrap@@QAEX_N@Z 1002e8d0 f   meeting_config_wrap_core.obj
 0001:0002d900       ?EnableInputMeetingScreenNameDlg@ZMeetingConfigWrap@@QAEX_N@Z 1002e900 f   meeting_config_wrap_core.obj
 0001:0002d930       ?EnableInviteButtonOnMeetingUI@ZMeetingConfigWrap@@QAE?AW4ZNSDKError@@_N@Z 1002e930 f   meeting_config_wrap_core.obj
 0001:0002d960       ?EnableLButtonDBClick4SwitchFullScreenMode@ZMeetingConfigWrap@@QAEX_N@Z 1002e960 f   meeting_config_wrap_core.obj
 0001:0002d990       ?EnableLeaveMeetingOptionForHost@ZMeetingConfigWrap@@QAEX_N@Z 1002e990 f   meeting_config_wrap_core.obj
 0001:0002d9c0       ?EnableLengthLimitationOfMeetingNumber@ZMeetingConfigWrap@@QAEX_N@Z 1002e9c0 f   meeting_config_wrap_core.obj
 0001:0002d9f0       ?EnableLocalRecordingConvertProgressBarDialog@ZMeetingConfigWrap@@QAEX_N@Z 1002e9f0 f   meeting_config_wrap_core.obj
 0001:0002da20       ?EnableShareIOSDevice@ZMeetingConfigWrap@@QAEX_N@Z 1002ea20 f   meeting_config_wrap_core.obj
 0001:0002da50       ?EnableShareWhiteBoard@ZMeetingConfigWrap@@QAEX_N@Z 1002ea50 f   meeting_config_wrap_core.obj
 0001:0002da80       ?EnableShowShareSwitchMultiToSingleConfirmDlg@ZMeetingConfigWrap@@QAEX_N@Z 1002ea80 f   meeting_config_wrap_core.obj
 0001:0002dab0       ?EnableToolTipsShow@ZMeetingConfigWrap@@QAEX_N@Z 1002eab0 f   meeting_config_wrap_core.obj
 0001:0002dae0       ?EnableVideoButtonOnMeetingUI@ZMeetingConfigWrap@@QAEX_N@Z 1002eae0 f   meeting_config_wrap_core.obj
 0001:0002db10       ?ForceDisableMultiShare@ZMeetingConfigWrap@@QAEX_N@Z 1002eb10 f   meeting_config_wrap_core.obj
 0001:0002db40       ?GetReminderType@ZMeetingConfigWrap@@QAE?AW4ZNFreeMeetingEndingReminderType@@XZ 1002eb40 f   meeting_config_wrap_core.obj
 0001:0002dbb0       ?GetRequiredInfoType@ZMeetingConfigWrap@@QAE?AW4ZNRequiredInfoType@@XZ 1002ebb0 f   meeting_config_wrap_core.obj
 0001:0002dc30       ?GetWebinarNeedRegisterType@ZMeetingConfigWrap@@QAE?AW4ZNWebinarNeedRegisterType@@XZ 1002ec30 f   meeting_config_wrap_core.obj
 0001:0002dcb0       ?GetWebinarRegisterUrl@ZMeetingConfigWrap@@QAE?AV?$basic_string@_WU?$char_traits@_W@std@@V?$allocator@_W@2@@std@@XZ 1002ecb0 f   meeting_config_wrap_core.obj
 0001:0002dd30       ?GetWebinarRegisterUrl@ZWebinarNeedRegisterHandler@@QAE?AV?$basic_string@_WU?$char_traits@_W@std@@V?$allocator@_W@2@@std@@XZ 1002ed30 f i meeting_config_wrap_core.obj
 0001:0002ddd0       ?HideChatItemOnMeetingUI@ZMeetingConfigWrap@@QAEX_N@Z 1002edd0 f   meeting_config_wrap_core.obj
 0001:0002de00       ?HideCopyInvitationOnInviteWindow@ZMeetingConfigWrap@@QAEX_N@Z 1002ee00 f   meeting_config_wrap_core.obj
 0001:0002de30       ?HideCopyUrlOnInviteWindow@ZMeetingConfigWrap@@QAEX_N@Z 1002ee30 f   meeting_config_wrap_core.obj
 0001:0002de60       ?HideKeypadButtonOnMeetingWindow@ZMeetingConfigWrap@@QAEX_N@Z 1002ee60 f   meeting_config_wrap_core.obj
 0001:0002de90       ?HideMeetingInfoFromMeetingUITitle@ZMeetingConfigWrap@@QAEX_N@Z 1002ee90 f   meeting_config_wrap_core.obj
 0001:0002dec0       ?HidePollOnMeetingUI@ZMeetingConfigWrap@@QAEX_N@Z 1002eec0 f   meeting_config_wrap_core.obj
 0001:0002def0       ?HideQAOnMeetingUI@ZMeetingConfigWrap@@QAEX_N@Z 1002eef0 f   meeting_config_wrap_core.obj
 0001:0002df20       ?HideRecordItemOnMeetingUI@ZMeetingConfigWrap@@QAEX_N@Z 1002ef20 f   meeting_config_wrap_core.obj
 0001:0002df50       ?HideRemoteControlOnMeetingUI@ZMeetingConfigWrap@@QAEX_N@Z 1002ef50 f   meeting_config_wrap_core.obj
 0001:0002df80       ?HideSwitchCameraButton@ZMeetingConfigWrap@@QAEX_N@Z 1002ef80 f   meeting_config_wrap_core.obj
 0001:0002dfb0       ?HideUpgradeFreeMeetingButton@ZMeetingConfigWrap@@QAEX_N@Z 1002efb0 f   meeting_config_wrap_core.obj
 0001:0002dfe0       ?HideUpgradeWarningMsgForFreeUserWhenSchedule@ZMeetingConfigWrap@@QAEX_N@Z 1002efe0 f   meeting_config_wrap_core.obj
 0001:0002e010       ?Init@ZMeetingConfigWrap@@QAEXXZ 1002f010 f   meeting_config_wrap_core.obj
 0001:0002e080       ?InputMeetingIDAndScreenName@ZMeetingConfigWrap@@QAE_NV?$basic_string@_WU?$char_traits@_W@std@@V?$allocator@_W@2@@std@@0@Z 1002f080 f   meeting_config_wrap_core.obj
 0001:0002e1b0       ?InputMeetingIDAndScreenName@ZMeetingPasswordAndScreenNameHandler@@QAE_NV?$basic_string@_WU?$char_traits@_W@std@@V?$allocator@_W@2@@std@@0@Z 1002f1b0 f i meeting_config_wrap_core.obj
 0001:0002e260       ?InputMeetingPasswordAndScreenName@ZMeetingConfigWrap@@QAE_NV?$basic_string@_WU?$char_traits@_W@std@@V?$allocator@_W@2@@std@@0@Z 1002f260 f   meeting_config_wrap_core.obj
 0001:0002e390       ?InputMeetingPasswordAndScreenName@ZMeetingPasswordAndScreenNameHandler@@QAE_NV?$basic_string@_WU?$char_traits@_W@std@@V?$allocator@_W@2@@std@@0@Z 1002f390 f i meeting_config_wrap_core.obj
 0001:0002e440       ?InputMeetingScreenName@ZMeetingConfigWrap@@QAE_NV?$basic_string@_WU?$char_traits@_W@std@@V?$allocator@_W@2@@std@@@Z 1002f440 f   meeting_config_wrap_core.obj
 0001:0002e560       ?InputWebinarRegisterEmailAndScreenName@ZMeetingConfigWrap@@QAE?AW4ZNSDKError@@V?$basic_string@_WU?$char_traits@_W@std@@V?$allocator@_W@2@@std@@0@Z 1002f560 f   meeting_config_wrap_core.obj
 0001:0002e690       ?InputWebinarRegisterEmailAndScreenName@ZWebinarNeedRegisterHandler@@QAE?AW4ZNSDKError@@V?$basic_string@_WU?$char_traits@_W@std@@V?$allocator@_W@2@@std@@0@Z 1002f690 f i meeting_config_wrap_core.obj
 0001:0002e750       ?MeetingPasswordAndScreenNameHandler_Cancel@ZMeetingConfigWrap@@QAEXXZ 1002f750 f   meeting_config_wrap_core.obj
 0001:0002e7d0       ?PrePopulateWebinarRegistrationInfo@ZMeetingConfigWrap@@QAEXV?$basic_string@_WU?$char_traits@_W@std@@V?$allocator@_W@2@@std@@0@Z 1002f7d0 f   meeting_config_wrap_core.obj
 0001:0002e880       ?RedirectClickAudioBTNEvent@ZMeetingConfigWrap@@QAEX_N@Z 1002f880 f   meeting_config_wrap_core.obj
 0001:0002e8b0       ?RedirectClickAudioMenuBTNEvent@ZMeetingConfigWrap@@QAEX_N@Z 1002f8b0 f   meeting_config_wrap_core.obj
 0001:0002e8e0       ?RedirectClickCCBTNEvent@ZMeetingConfigWrap@@QAEX_N@Z 1002f8e0 f   meeting_config_wrap_core.obj
 0001:0002e910       ?RedirectClickCustomLiveStreamMenuEvent@ZMeetingConfigWrap@@QAEX_N@Z 1002f910 f   meeting_config_wrap_core.obj
 0001:0002e940       ?RedirectClickEndMeetingBTNEvent@ZMeetingConfigWrap@@QAEX_N@Z 1002f940 f   meeting_config_wrap_core.obj
 0001:0002e970       ?RedirectClickParticipantListBTNEvent@ZMeetingConfigWrap@@QAEX_N@Z 1002f970 f   meeting_config_wrap_core.obj
 0001:0002e9a0       ?RedirectClickShareBTNEvent@ZMeetingConfigWrap@@QAEX_N@Z 1002f9a0 f   meeting_config_wrap_core.obj
 0001:0002e9d0       ?RedirectEndOtherMeeting@ZMeetingConfigWrap@@QAEX_N@Z 1002f9d0 f   meeting_config_wrap_core.obj
 0001:0002ea00       ?RedirectFreeMeetingEndingReminderDlg@ZMeetingConfigWrap@@QAEX_N@Z 1002fa00 f   meeting_config_wrap_core.obj
 0001:0002ea30       ?RedirectMeetingWarningMsg@ZMeetingConfigWrap@@QAEXU_ZNZoomRedirectWarningMsgOption@@@Z 1002fa30 f   meeting_config_wrap_core.obj
 0001:0002ea80       ?RedirectWebinarNeedRegister@ZMeetingConfigWrap@@QAEX_N@Z 1002fa80 f   meeting_config_wrap_core.obj
 0001:0002eab0       ?ReleaseRegisterWebinarByUrl@ZMeetingConfigWrap@@QAEXXZ 1002fab0 f   meeting_config_wrap_core.obj
 0001:0002eb30       ?Reset@ZMeetingConfigWrap@@QAEXXZ 1002fb30 f   meeting_config_wrap_core.obj
 0001:0002eb50       ?SetAlwaysShowMeetingIDOnTitle@ZMeetingConfigWrap@@QAEX_N@Z 1002fb50 f   meeting_config_wrap_core.obj
 0001:0002eb80       ?SetBottomFloatToolbarWndVisibility@ZMeetingConfigWrap@@QAEX_N@Z 1002fb80 f   meeting_config_wrap_core.obj
 0001:0002ebb0       ?SetDirectShareMonitorID@ZMeetingConfigWrap@@QAEXV?$basic_string@_WU?$char_traits@_W@std@@V?$allocator@_W@2@@std@@@Z 1002fbb0 f   meeting_config_wrap_core.obj
 0001:0002ec10       ?SetFloatVideoPos@ZMeetingConfigWrap@@QAEXU_ZNWndPosition@@@Z 1002fc10 f   meeting_config_wrap_core.obj
 0001:0002ecf0       ?SetFloatVideoWndVisibility@ZMeetingConfigWrap@@QAEX_N@Z 1002fcf0 f   meeting_config_wrap_core.obj
 0001:0002ed20       ?SetMaxDurationForOnlyHostInMeeting@ZMeetingConfigWrap@@QAEXH@Z 1002fd20 f   meeting_config_wrap_core.obj
 0001:0002ed50       ?SetMeetingIDForMeetingUITitle@ZMeetingConfigWrap@@QAEX_K@Z 1002fd50 f   meeting_config_wrap_core.obj
 0001:0002ed80       ?SetMeetingUIPos@ZMeetingConfigWrap@@QAEXU_ZNWndPosition@@@Z 1002fd80 f   meeting_config_wrap_core.obj
 0001:0002ee60       ?SetSharingToolbarVisibility@ZMeetingConfigWrap@@QAEX_N@Z 1002fe60 f   meeting_config_wrap_core.obj
 0001:0002ee90       ?SetShowAudioUseComputerSoundChkbox@ZMeetingConfigWrap@@QAEX_N@Z 1002fe90 f   meeting_config_wrap_core.obj
 0001:0002eec0       ?SetShowCallInTab@ZMeetingConfigWrap@@QAEX_N@Z 1002fec0 f   meeting_config_wrap_core.obj
 0001:0002eef0       ?SetShowCallMeTab@ZMeetingConfigWrap@@QAEX_N@Z 1002fef0 f   meeting_config_wrap_core.obj
 0001:0002ef20       ?SetShowH323SubTabPage@ZMeetingConfigWrap@@QAEXW4ZNSDKH323TabPage@@_N@Z 1002ff20 f   meeting_config_wrap_core.obj
 0001:0002ef70       ?SetShowInviteDlgTabPage@ZMeetingConfigWrap@@QAEXW4ZNSDKInviteDlgTabPage@@_N@Z 1002ff70 f   meeting_config_wrap_core.obj
 0001:0002efd0       ?SetShowVideoOptimizeChkbox@ZMeetingConfigWrap@@QAEX_N@Z 1002ffd0 f   meeting_config_wrap_core.obj
 0001:0002f000       ?SetSink@ZMeetingConfigWrap@@QAEXPAVZNativeSDKMeetingConfigWrapFreemeetingSink@@@Z 10030000 f   meeting_config_wrap_core.obj
 0001:0002f010       ?Uninit@ZMeetingConfigWrap@@QAEXXZ 10030010 f   meeting_config_wrap_core.obj
 0001:0002f070       ?UpgradeAccount@ZMeetingConfigWrap@@QAE?AW4ZNSDKError@@XZ 10030070 f   meeting_config_wrap_core.obj
 0001:0002f0f0       ?UpgradeMeeting@ZMeetingConfigWrap@@QAE?AW4ZNSDKError@@XZ 100300f0 f   meeting_config_wrap_core.obj
 0001:0002f170       ?onAirPlayInstructionWndNotification@ZMeetingConfigWrap@@QAEX_NV?$basic_string@_WU?$char_traits@_W@std@@V?$allocator@_W@2@@std@@@Z 10030170 f   meeting_config_wrap_core.obj
 0001:0002f1e0       ?onEndOtherMeetingToJoinMeetingNotification@ZMeetingConfigWrap@@QAEXXZ 100301e0 f   meeting_config_wrap_core.obj
 0001:0002f1f0       ?onFreeMeetingNeedToUpgrade@ZMeetingConfigWrap@@QAEXW4ZNFreeMeetingNeedUpgradeType@@V?$basic_string@_WU?$char_traits@_W@std@@V?$allocator@_W@2@@std@@@Z 100301f0 f   meeting_config_wrap_core.obj
 0001:0002f260       ?onFreeMeetingRemainTime@ZMeetingConfigWrap@@QAEXI@Z 10030260 f   meeting_config_wrap_core.obj
 0001:0002f280       ?onFreeMeetingRemainTimeStopCountDown@ZMeetingConfigWrap@@QAEXXZ 10030280 f   meeting_config_wrap_core.obj
 0001:0002f290       ?onFreeMeetingUpgradeToGiftFreeTrialStart@ZMeetingConfigWrap@@QAEXXZ 10030290 f   meeting_config_wrap_core.obj
 0001:0002f2a0       ?onFreeMeetingUpgradeToGiftFreeTrialStop@ZMeetingConfigWrap@@QAEXXZ 100302a0 f   meeting_config_wrap_core.obj
 0001:0002f2b0       ?onFreeMeetingUpgradeToProMeeting@ZMeetingConfigWrap@@QAEXXZ 100302b0 f   meeting_config_wrap_core.obj
 0001:0002f2c0       ?onInputMeetingPasswordAndScreenNameNotification@ZMeetingConfigWrap@@QAEXXZ 100302c0 f   meeting_config_wrap_core.obj
 0001:0002f2d0       ?onWebinarNeedRegisterNotification@ZMeetingConfigWrap@@QAEXXZ 100302d0 f   meeting_config_wrap_core.obj
 0001:0002f2e0       ??0ZMeetingParticipantsWrap@@QAE@XZ 100302e0 f   meeting_participants_wrap_core.obj
 0001:0002f310       ??1ZMeetingParticipantsWrap@@UAE@XZ 10030310 f   meeting_participants_wrap_core.obj
 0001:0002f3a0       ??1ZUserInfoWrap@@UAE@XZ   100303a0 f i meeting_participants_wrap_core.obj
 0001:0002f3b0       ??_EZMeetingParticipantsWrap@@UAEPAXI@Z 100303b0 f i meeting_participants_wrap_core.obj
 0001:0002f3b0       ??_GZMeetingParticipantsWrap@@UAEPAXI@Z 100303b0 f i meeting_participants_wrap_core.obj
 0001:0002f3e0       ??_EZUserInfoWrap@@UAEPAXI@Z 100303e0 f i meeting_participants_wrap_core.obj
 0001:0002f3e0       ??_GZUserInfoWrap@@UAEPAXI@Z 100303e0 f i meeting_participants_wrap_core.obj
 0001:0002f410       ?GetAudioJoinType@ZUserInfoWrap@@QAE?AW4ZNAudioType@@I@Z 10030410 f   meeting_participants_wrap_core.obj
 0001:0002f470       ?GetAudioVoiceLevel@ZUserInfoWrap@@QAE?AV?$basic_string@_WU?$char_traits@_W@std@@V?$allocator@_W@2@@std@@I@Z 10030470 f   meeting_participants_wrap_core.obj
 0001:0002f560       ?GetEmail@ZUserInfoWrap@@QAE?AV?$basic_string@_WU?$char_traits@_W@std@@V?$allocator@_W@2@@std@@I@Z 10030560 f   meeting_participants_wrap_core.obj
 0001:0002f600       ?GetParticipantsList@ZMeetingParticipantsWrap@@QAE?AV?$vector@IV?$allocator@I@std@@@std@@XZ 10030600 f   meeting_participants_wrap_core.obj
 0001:0002f750       ?GetUserID@ZUserInfoWrap@@QAEII@Z 10030750 f   meeting_participants_wrap_core.obj
 0001:0002f790       ?GetUserInfomationByUserID@ZMeetingParticipantsWrap@@QAE?AU_ZNUserInfomation@@I@Z 10030790 f   meeting_participants_wrap_core.obj
 0001:0002fc50       ?GetUserNamme@ZUserInfoWrap@@QAE?AV?$basic_string@_WU?$char_traits@_W@std@@V?$allocator@_W@2@@std@@I@Z 10030c50 f   meeting_participants_wrap_core.obj
 0001:0002fcf0       ?GetUserRole@ZUserInfoWrap@@QAE?AW4ZNUserRole@@I@Z 10030cf0 f   meeting_participants_wrap_core.obj
 0001:0002fd50       ?GetWebinarAttendeeStauts@ZUserInfoWrap@@QAE_NI@Z 10030d50 f   meeting_participants_wrap_core.obj
 0001:0002fda0       ?Init@ZMeetingParticipantsWrap@@QAEXXZ 10030da0 f   meeting_participants_wrap_core.obj
 0001:0002fe10       ?IsAudioMuted@ZUserInfoWrap@@QAE_NI@Z 10030e10 f   meeting_participants_wrap_core.obj
 0001:0002fe60       ?IsClosedCaptionSender@ZUserInfoWrap@@QAE_NI@Z 10030e60 f   meeting_participants_wrap_core.obj
 0001:0002feb0       ?IsHost@ZUserInfoWrap@@QAE_NI@Z 10030eb0 f   meeting_participants_wrap_core.obj
 0001:0002ff00       ?IsInWaitingRoom@ZUserInfoWrap@@QAE_NI@Z 10030f00 f   meeting_participants_wrap_core.obj
 0001:0002ff50       ?IsMySelf@ZUserInfoWrap@@QAE_NI@Z 10030f50 f   meeting_participants_wrap_core.obj
 0001:0002ffa0       ?IsPurePhoneUser@ZUserInfoWrap@@QAE_NI@Z 10030fa0 f   meeting_participants_wrap_core.obj
 0001:0002fff0       ?IsRaiseHand@ZUserInfoWrap@@QAE_NI@Z 10030ff0 f   meeting_participants_wrap_core.obj
 0001:00030040       ?IsVideoOn@ZUserInfoWrap@@QAE_NI@Z 10031040 f   meeting_participants_wrap_core.obj
 0001:00030090       ?SetSink@ZMeetingParticipantsWrap@@QAEXPAVZNativeSDKMeetingParticipantsWrapSink@@@Z 10031090 f   meeting_participants_wrap_core.obj
 0001:000300a0       ?Uninit@ZMeetingParticipantsWrap@@QAEXXZ 100310a0 f   meeting_participants_wrap_core.obj
 0001:00030100       ?_Assign_rv@?$basic_string@_WU?$char_traits@_W@std@@V?$allocator@_W@2@@std@@QAEX$$QAV12@@Z 10031100 f i meeting_participants_wrap_core.obj
 0001:00030170       ?onHostChangeNotification@ZMeetingParticipantsWrap@@QAEXI@Z 10031170 f   meeting_participants_wrap_core.obj
 0001:00030190       ?onUserJoin@ZMeetingParticipantsWrap@@QAEXV?$vector@IV?$allocator@I@std@@@std@@V?$basic_string@_WU?$char_traits@_W@std@@V?$allocator@_W@2@@3@@Z 10031190 f   meeting_participants_wrap_core.obj
 0001:00030250       ?onUserLeft@ZMeetingParticipantsWrap@@QAEXV?$vector@IV?$allocator@I@std@@@std@@V?$basic_string@_WU?$char_traits@_W@std@@V?$allocator@_W@2@@3@@Z 10031250 f   meeting_participants_wrap_core.obj
 0001:00030310       ??$_Destroy_range@U?$_Wrap_alloc@V?$allocator@V?$basic_string@_WU?$char_traits@_W@std@@V?$allocator@_W@2@@std@@@std@@@std@@@std@@YAXPAV?$basic_string@_WU?$char_traits@_W@std@@V?$allocator@_W@2@@0@0AAU?$_Wrap_alloc@V?$allocator@V?$basic_string@_WU?$char_traits@_W@std@@V?$allocator@_W@2@@std@@@std@@@0@U_Nonscalar_ptr_iterator_tag@0@@Z 10031310 f i meeting_h323_wrap_core.obj
 0001:000303b0       ??$_Uninit_move@PAU_ZNH323DeviecInfo@@PAU1@V?$allocator@U_ZNH323DeviecInfo@@@std@@U1@@std@@YAPAU_ZNH323DeviecInfo@@PAU1@00AAU?$_Wrap_alloc@V?$allocator@U_ZNH323DeviecInfo@@@std@@@0@0U_Nonscalar_ptr_iterator_tag@0@@Z 100313b0 f i meeting_h323_wrap_core.obj
 0001:00030580       ??$_Uninit_move@PAV?$basic_string@_WU?$char_traits@_W@std@@V?$allocator@_W@2@@std@@PAV12@V?$allocator@V?$basic_string@_WU?$char_traits@_W@std@@V?$allocator@_W@2@@std@@@2@V12@@std@@YAPAV?$basic_string@_WU?$char_traits@_W@std@@V?$allocator@_W@2@@0@PAV10@00AAU?$_Wrap_alloc@V?$allocator@V?$basic_string@_WU?$char_traits@_W@std@@V?$allocator@_W@2@@std@@@std@@@0@0U_Nonscalar_ptr_iterator_tag@0@@Z 10031580 f i meeting_h323_wrap_core.obj
 0001:00030630       ??0ZMeetingH323Wrap@@QAE@XZ 10031630 f   meeting_h323_wrap_core.obj
 0001:00030660       ??0_ZNH323DeviecInfo@@QAE@ABU0@@Z 10031660 f i meeting_h323_wrap_core.obj
 0001:00030700       ??1CustomizedH323Device@ZOOMSDK@@UAE@XZ 10031700 f i meeting_h323_wrap_core.obj
 0001:000307b0       ??1IH323Device@ZOOMSDK@@UAE@XZ 100317b0 f i meeting_h323_wrap_core.obj
 0001:000307c0       ??1ZMeetingH323Wrap@@UAE@XZ 100317c0 f   meeting_h323_wrap_core.obj
 0001:00030840       ??1_ZNH323DeviecInfo@@QAE@XZ 10031840 f i meeting_h323_wrap_core.obj
 0001:000308e0       ??_ECustomizedH323Device@ZOOMSDK@@UAEPAXI@Z 100318e0 f i meeting_h323_wrap_core.obj
 0001:000308e0       ??_GCustomizedH323Device@ZOOMSDK@@UAEPAXI@Z 100318e0 f i meeting_h323_wrap_core.obj
 0001:00030910       ??_EIH323Device@ZOOMSDK@@UAEPAXI@Z 10031910 f i meeting_h323_wrap_core.obj
 0001:00030910       ??_GIH323Device@ZOOMSDK@@UAEPAXI@Z 10031910 f i meeting_h323_wrap_core.obj
 0001:00030940       ??_EZMeetingH323Wrap@@UAEPAXI@Z 10031940 f i meeting_h323_wrap_core.obj
 0001:00030940       ??_GZMeetingH323Wrap@@UAEPAXI@Z 10031940 f i meeting_h323_wrap_core.obj
 0001:00030970       ?CallOutH323@ZMeetingH323Wrap@@QAE?AW4ZNSDKError@@V?$basic_string@_WU?$char_traits@_W@std@@V?$allocator@_W@2@@std@@00W4ZNH323DeviceType@@@Z 10031970 f   meeting_h323_wrap_core.obj
 0001:00030b20       ?CancelCallOutH323@ZMeetingH323Wrap@@QAE?AW4ZNSDKError@@XZ 10031b20 f   meeting_h323_wrap_core.obj
 0001:00030b50       ?GetCalloutH323DviceList@ZMeetingH323Wrap@@QAE?AV?$vector@U_ZNH323DeviecInfo@@V?$allocator@U_ZNH323DeviecInfo@@@std@@@std@@XZ 10031b50 f   meeting_h323_wrap_core.obj
 0001:00030dc0       ?GetDeviceType@CustomizedH323Device@ZOOMSDK@@UAE?AW4H323DeviceType@2@XZ 10031dc0 f i meeting_h323_wrap_core.obj
 0001:00030dd0       ?GetE164Num@CustomizedH323Device@ZOOMSDK@@UAEPB_WXZ 10031dd0 f i meeting_h323_wrap_core.obj
 0001:00030de0       ?GetH323Address@ZMeetingH323Wrap@@QAE?AV?$vector@V?$basic_string@_WU?$char_traits@_W@std@@V?$allocator@_W@2@@std@@V?$allocator@V?$basic_string@_WU?$char_traits@_W@std@@V?$allocator@_W@2@@std@@@2@@std@@XZ 10031de0 f   meeting_h323_wrap_core.obj
 0001:00030f40       ?GetH323Password@ZMeetingH323Wrap@@QAE?AV?$basic_string@_WU?$char_traits@_W@std@@V?$allocator@_W@2@@std@@XZ 10031f40 f   meeting_h323_wrap_core.obj
 0001:00030fd0       ?GetIP@CustomizedH323Device@ZOOMSDK@@UAEPB_WXZ 10031fd0 f i meeting_h323_wrap_core.obj
 0001:00030fe0       ?GetName@CustomizedH323Device@ZOOMSDK@@UAEPB_WXZ 10031fe0 f i meeting_h323_wrap_core.obj
 0001:00030ff0       ?Init@ZMeetingH323Wrap@@QAEXXZ 10031ff0 f   meeting_h323_wrap_core.obj
 0001:00031060       ?IsCustomizedH323Device@CustomizedH323Device@ZOOMSDK@@UAE_NXZ 10032060 f i meeting_h323_wrap_core.obj
 0001:00031070       ?SetDeviceType@CustomizedH323Device@ZOOMSDK@@UAEXW4H323DeviceType@2@@Z 10032070 f i meeting_h323_wrap_core.obj
 0001:00031080       ?SetE164Num@CustomizedH323Device@ZOOMSDK@@UAEXPB_W@Z 10032080 f i meeting_h323_wrap_core.obj
 0001:000310e0       ?SetIP@CustomizedH323Device@ZOOMSDK@@UAEXPB_W@Z 100320e0 f i meeting_h323_wrap_core.obj
 0001:00031140       ?SetName@CustomizedH323Device@ZOOMSDK@@UAEXPB_W@Z 10032140 f i meeting_h323_wrap_core.obj
 0001:000311a0       ?SetSink@ZMeetingH323Wrap@@QAEXPAVZNativeSDKMeetingH323WrapSink@@@Z 100321a0 f   meeting_h323_wrap_core.obj
 0001:000311b0       ?Uninit@ZMeetingH323Wrap@@QAEXXZ 100321b0 f   meeting_h323_wrap_core.obj
 0001:00031210       ?_Reallocate@?$vector@U_ZNH323DeviecInfo@@V?$allocator@U_ZNH323DeviecInfo@@@std@@@std@@IAEXI@Z 10032210 f i meeting_h323_wrap_core.obj
 0001:000312e0       ?_Reallocate@?$vector@V?$basic_string@_WU?$char_traits@_W@std@@V?$allocator@_W@2@@std@@V?$allocator@V?$basic_string@_WU?$char_traits@_W@std@@V?$allocator@_W@2@@std@@@2@@std@@IAEXI@Z 100322e0 f i meeting_h323_wrap_core.obj
 0001:000313a0       ?_Reserve@?$vector@U_ZNH323DeviecInfo@@V?$allocator@U_ZNH323DeviecInfo@@@std@@@std@@IAEXI@Z 100323a0 f i meeting_h323_wrap_core.obj
 0001:00031460       ?_Reserve@?$vector@V?$basic_string@_WU?$char_traits@_W@std@@V?$allocator@_W@2@@std@@V?$allocator@V?$basic_string@_WU?$char_traits@_W@std@@V?$allocator@_W@2@@std@@@2@@std@@IAEXI@Z 10032460 f i meeting_h323_wrap_core.obj
 0001:00031520       ?allocate@?$allocator@U_ZNH323DeviecInfo@@@std@@QAEPAU_ZNH323DeviecInfo@@I@Z 10032520 f i meeting_h323_wrap_core.obj
 0001:000315a0       ?allocate@?$allocator@V?$basic_string@_WU?$char_traits@_W@std@@V?$allocator@_W@2@@std@@@std@@QAEPAV?$basic_string@_WU?$char_traits@_W@std@@V?$allocator@_W@2@@2@I@Z 100325a0 f i meeting_h323_wrap_core.obj
 0001:00031620       ?deallocate@?$_Wrap_alloc@V?$allocator@U_ZNH323DeviecInfo@@@std@@@std@@QAEXPAU_ZNH323DeviecInfo@@I@Z 10032620 f i meeting_h323_wrap_core.obj
 0001:00031690       ?deallocate@?$allocator@V?$basic_string@_WU?$char_traits@_W@std@@V?$allocator@_W@2@@std@@@std@@QAEXPAV?$basic_string@_WU?$char_traits@_W@std@@V?$allocator@_W@2@@2@I@Z 10032690 f i meeting_h323_wrap_core.obj
 0001:00031700       ?onH323CalloutStatusNotify@ZMeetingH323Wrap@@QAEXW4ZNH323CalloutStatus@@@Z 10032700 f   meeting_h323_wrap_core.obj
 0001:00031720       ?push_back@?$vector@U_ZNH323DeviecInfo@@V?$allocator@U_ZNH323DeviecInfo@@@std@@@std@@QAEXABU_ZNH323DeviecInfo@@@Z 10032720 f i meeting_h323_wrap_core.obj
 0001:000317c0       ?push_back@?$vector@V?$basic_string@_WU?$char_traits@_W@std@@V?$allocator@_W@2@@std@@V?$allocator@V?$basic_string@_WU?$char_traits@_W@std@@V?$allocator@_W@2@@std@@@2@@std@@QAEXABV?$basic_string@_WU?$char_traits@_W@std@@V?$allocator@_W@2@@2@@Z 100327c0 f i meeting_h323_wrap_core.obj
 0001:00031890       ??0ZSettingVideoWrap@@QAE@XZ 10032890 f   setting_video_wrap_core.obj
 0001:000318c0       ??1ZSettingVideoWrap@@UAE@XZ 100328c0 f   setting_video_wrap_core.obj
 0001:00031940       ??_GZSettingVideoWrap@@UAEPAXI@Z 10032940 f i setting_video_wrap_core.obj
 0001:00031940       ??_EZSettingVideoWrap@@UAEPAXI@Z 10032940 f i setting_video_wrap_core.obj
 0001:00031970       ?Enable49VideoesInGallaryView@ZSettingVideoWrap@@QAE?AW4ZNSDKError@@_N@Z 10032970 f   setting_video_wrap_core.obj
 0001:000319b0       ?EnableAlwaysShowNameOnVideo@ZSettingVideoWrap@@QAE?AW4ZNSDKError@@_N@Z 100329b0 f   setting_video_wrap_core.obj
 0001:000319f0       ?EnableAlwaysUse16v9@ZSettingVideoWrap@@QAE?AW4ZNSDKError@@_N@Z 100329f0 f   setting_video_wrap_core.obj
 0001:00031a30       ?EnableAutoTurnOffVideoWhenJoinMeeting@ZSettingVideoWrap@@QAE?AW4ZNSDKError@@_N@Z 10032a30 f   setting_video_wrap_core.obj
 0001:00031a70       ?EnableFaceBeautyEffect@ZSettingVideoWrap@@QAE?AW4ZNSDKError@@_N@Z 10032a70 f   setting_video_wrap_core.obj
 0001:00031ab0       ?EnableHDVideo@ZSettingVideoWrap@@QAE?AW4ZNSDKError@@_N@Z 10032ab0 f   setting_video_wrap_core.obj
 0001:00031af0       ?EnableHardwareEncode@ZSettingVideoWrap@@QAE?AW4ZNSDKError@@_N@Z 10032af0 f   setting_video_wrap_core.obj
 0001:00031b30       ?EnableHideNoVideoUsersOnWallView@ZSettingVideoWrap@@QAE?AW4ZNSDKError@@_N@Z 10032b30 f   setting_video_wrap_core.obj
 0001:00031b70       ?EnableSpotlightSelf@ZSettingVideoWrap@@QAE?AW4ZNSDKError@@_N@Z 10032b70 f   setting_video_wrap_core.obj
 0001:00031bb0       ?EnableVideoMirrorEffect@ZSettingVideoWrap@@QAE?AW4ZNSDKError@@_N@Z 10032bb0 f   setting_video_wrap_core.obj
 0001:00031bf0       ?GetCameraList@ZSettingVideoWrap@@QAE?AV?$vector@U_ZNCameraInfo@@V?$allocator@U_ZNCameraInfo@@@std@@@std@@XZ 10032bf0 f   setting_video_wrap_core.obj
 0001:00031e10       ?Init@ZSettingVideoWrap@@QAEXXZ 10032e10 f   setting_video_wrap_core.obj
 0001:00031e80       ?Is49VideoesInGallaryViewEnabled@ZSettingVideoWrap@@QAE_NXZ 10032e80 f   setting_video_wrap_core.obj
 0001:00031ea0       ?IsAlwaysShowNameOnVideoEnabled@ZSettingVideoWrap@@QAE_NXZ 10032ea0 f   setting_video_wrap_core.obj
 0001:00031ec0       ?IsAlwaysUse16v9@ZSettingVideoWrap@@QAE_NXZ 10032ec0 f   setting_video_wrap_core.obj
 0001:00031ee0       ?IsAutoTurnOffVideoWhenJoinMeetingEnabled@ZSettingVideoWrap@@QAE_NXZ 10032ee0 f   setting_video_wrap_core.obj
 0001:00031f00       ?IsFaceBeautyEffectEnabled@ZSettingVideoWrap@@QAE_NXZ 10032f00 f   setting_video_wrap_core.obj
 0001:00031f20       ?IsHDVideoEnabled@ZSettingVideoWrap@@QAE_NXZ 10032f20 f   setting_video_wrap_core.obj
 0001:00031f40       ?IsHardwareEncodeEnabled@ZSettingVideoWrap@@QAE_NXZ 10032f40 f   setting_video_wrap_core.obj
 0001:00031f60       ?IsHideNoVideoUsersOnWallViewEnabled@ZSettingVideoWrap@@QAE_NXZ 10032f60 f   setting_video_wrap_core.obj
 0001:00031f80       ?IsSpotlightSelfEnabled@ZSettingVideoWrap@@QAE_NXZ 10032f80 f   setting_video_wrap_core.obj
 0001:00031fa0       ?IsVideoMirrorEffectEnable@ZSettingVideoWrap@@QAE_NXZ 10032fa0 f   setting_video_wrap_core.obj
 0001:00031fc0       ?SelectCamera@ZSettingVideoWrap@@QAE?AW4ZNSDKError@@V?$basic_string@_WU?$char_traits@_W@std@@V?$allocator@_W@2@@std@@@Z 10032fc0 f   setting_video_wrap_core.obj
 0001:00032030       ?SetSink@ZSettingVideoWrap@@QAEXPAVZNativeSDKVideoSettingContextWrapSink@@@Z 10033030 f   setting_video_wrap_core.obj
 0001:00032040       ?Uninit@ZSettingVideoWrap@@QAEXXZ 10033040 f   setting_video_wrap_core.obj
 0001:000320a0       ?onComputerCamDeviceChanged@ZSettingVideoWrap@@QAEXV?$vector@U_ZNCameraInfo@@V?$allocator@U_ZNCameraInfo@@@std@@@std@@@Z 100330a0 f   setting_video_wrap_core.obj
 0001:00032130       ?onDefaultCamDeviceChanged@ZSettingVideoWrap@@QAEXV?$basic_string@_WU?$char_traits@_W@std@@V?$allocator@_W@2@@std@@0@Z 10033130 f   setting_video_wrap_core.obj
 0001:00032200       ??0ZSettingAudioWrap@@QAE@XZ 10033200 f   setting_audio_wrap_core.obj
 0001:00032230       ??1ZSettingAudioWrap@@UAE@XZ 10033230 f   setting_audio_wrap_core.obj
 0001:000322c0       ??_GZSettingAudioWrap@@UAEPAXI@Z 100332c0 f i setting_audio_wrap_core.obj
 0001:000322c0       ??_EZSettingAudioWrap@@UAEPAXI@Z 100332c0 f i setting_audio_wrap_core.obj
 0001:000322f0       ?EnableAlwaysMuteMicWhenJoinVoip@ZSettingAudioWrap@@QAE?AW4ZNSDKError@@_N@Z 100332f0 f   setting_audio_wrap_core.obj
 0001:00032330       ?EnableAutoAdjustMic@ZSettingAudioWrap@@QAE?AW4ZNSDKError@@_N@Z 10033330 f   setting_audio_wrap_core.obj
 0001:00032370       ?EnableAutoJoinAudio@ZSettingAudioWrap@@QAE?AW4ZNSDKError@@_N@Z 10033370 f   setting_audio_wrap_core.obj
 0001:000323b0       ?EnableEchoCancellation@ZSettingAudioWrap@@QAE?AW4ZNSDKError@@_N@Z 100333b0 f   setting_audio_wrap_core.obj
 0001:000323f0       ?EnableHoldSpaceKeyToSpeak@ZSettingAudioWrap@@QAE?AW4ZNSDKError@@_N@Z 100333f0 f   setting_audio_wrap_core.obj
 0001:00032430       ?EnableMicOriginalInput@ZSettingAudioWrap@@QAE?AW4ZNSDKError@@_N@Z 10033430 f   setting_audio_wrap_core.obj
 0001:00032470       ?EnableStereoAudio@ZSettingAudioWrap@@QAE?AW4ZNSDKError@@_N@Z 10033470 f   setting_audio_wrap_core.obj
 0001:000324b0       ?EnableSuppressAudioNotify@ZSettingAudioWrap@@QAE?AW4ZNSDKError@@_N@Z 100334b0 f   setting_audio_wrap_core.obj
 0001:000324f0       ?GetMicList@ZSettingAudioWrap@@QAE?AV?$vector@U_ZNMicInfo@@V?$allocator@U_ZNMicInfo@@@std@@@std@@XZ 100334f0 f   setting_audio_wrap_core.obj
 0001:00032710       ?GetMicVol@ZSettingAudioWrap@@QAE?AW4ZNSDKError@@AAM@Z 10033710 f   setting_audio_wrap_core.obj
 0001:00032750       ?GetSpeakerList@ZSettingAudioWrap@@QAE?AV?$vector@U_ZNSpeakerInfo@@V?$allocator@U_ZNSpeakerInfo@@@std@@@std@@XZ 10033750 f   setting_audio_wrap_core.obj
 0001:00032970       ?GetSpeakerVol@ZSettingAudioWrap@@QAE?AW4ZNSDKError@@AAM@Z 10033970 f   setting_audio_wrap_core.obj
 0001:000329b0       ?Init@ZSettingAudioWrap@@QAEXXZ 100339b0 f   setting_audio_wrap_core.obj
 0001:00032a20       ?IsAlwaysMuteMicWhenJoinVoipEnabled@ZSettingAudioWrap@@QAE_NXZ 10033a20 f   setting_audio_wrap_core.obj
 0001:00032a40       ?IsAutoAdjustMicEnabled@ZSettingAudioWrap@@QAE_NXZ 10033a40 f   setting_audio_wrap_core.obj
 0001:00032a60       ?IsAutoJoinAudioEnabled@ZSettingAudioWrap@@QAE_NXZ 10033a60 f   setting_audio_wrap_core.obj
 0001:00032a80       ?IsEchoCancellationEnabled@ZSettingAudioWrap@@QAE_NXZ 10033a80 f   setting_audio_wrap_core.obj
 0001:00032aa0       ?IsHoldSpaceKeyToSpeakEnabled@ZSettingAudioWrap@@QAE_NXZ 10033aa0 f   setting_audio_wrap_core.obj
 0001:00032ac0       ?IsMicOriginalInputEnable@ZSettingAudioWrap@@QAE_NXZ 10033ac0 f   setting_audio_wrap_core.obj
 0001:00032ae0       ?IsStereoAudioEnable@ZSettingAudioWrap@@QAE_NXZ 10033ae0 f   setting_audio_wrap_core.obj
 0001:00032b00       ?IsSuppressAudioNotifyEnabled@ZSettingAudioWrap@@QAE_NXZ 10033b00 f   setting_audio_wrap_core.obj
 0001:00032b20       ?SelectMic@ZSettingAudioWrap@@QAE?AW4ZNSDKError@@V?$basic_string@_WU?$char_traits@_W@std@@V?$allocator@_W@2@@std@@0@Z 10033b20 f   setting_audio_wrap_core.obj
 0001:00032be0       ?SelectSpeaker@ZSettingAudioWrap@@QAE?AW4ZNSDKError@@V?$basic_string@_WU?$char_traits@_W@std@@V?$allocator@_W@2@@std@@0@Z 10033be0 f   setting_audio_wrap_core.obj
 0001:00032ca0       ?SetMicVol@ZSettingAudioWrap@@QAE?AW4ZNSDKError@@AAM@Z 10033ca0 f   setting_audio_wrap_core.obj
 0001:00032ce0       ?SetSink@ZSettingAudioWrap@@QAEXPAVZNativeSDKAudioSettingContextWrapSink@@@Z 10033ce0 f   setting_audio_wrap_core.obj
 0001:00032cf0       ?SetSpeakerVol@ZSettingAudioWrap@@QAE?AW4ZNSDKError@@AAM@Z 10033cf0 f   setting_audio_wrap_core.obj
 0001:00032d30       ?Uninit@ZSettingAudioWrap@@QAEXXZ 10033d30 f   setting_audio_wrap_core.obj
 0001:00032d90       ?onComputerMicDeviceChanged@ZSettingAudioWrap@@QAEXV?$vector@U_ZNMicInfo@@V?$allocator@U_ZNMicInfo@@@std@@@std@@@Z 10033d90 f   setting_audio_wrap_core.obj
 0001:00032e20       ?onComputerSpeakerDeviceChanged@ZSettingAudioWrap@@QAEXV?$vector@U_ZNSpeakerInfo@@V?$allocator@U_ZNSpeakerInfo@@@std@@@std@@@Z 10033e20 f   setting_audio_wrap_core.obj
 0001:00032eb0       ?onDefaultMicDeviceChanged@ZSettingAudioWrap@@QAEXV?$basic_string@_WU?$char_traits@_W@std@@V?$allocator@_W@2@@std@@0@Z 10033eb0 f   setting_audio_wrap_core.obj
 0001:00032f80       ?onDefaultSpeakerDeviceChanged@ZSettingAudioWrap@@QAEXV?$basic_string@_WU?$char_traits@_W@std@@V?$allocator@_W@2@@std@@0@Z 10033f80 f   setting_audio_wrap_core.obj
 0001:00033050       ??0ZSettingGeneralWrap@@QAE@XZ 10034050 f   setting_general_wrap_core.obj
 0001:00033060       ??1ZSettingGeneralWrap@@UAE@XZ 10034060 f   setting_general_wrap_core.obj
 0001:00033070       ??_GZSettingGeneralWrap@@UAEPAXI@Z 10034070 f i setting_general_wrap_core.obj
 0001:00033070       ??_EZSettingGeneralWrap@@UAEPAXI@Z 10034070 f i setting_general_wrap_core.obj
 0001:000330a0       ?EnableAccelerateGPUWhenShare@ZSettingGeneralWrap@@QAE?AW4ZNSDKError@@_N@Z 100340a0 f   setting_general_wrap_core.obj
 0001:000330f0       ?EnableAutoFitToWindowWhenViewSharing@ZSettingGeneralWrap@@QAE?AW4ZNSDKError@@_N@Z 100340f0 f   setting_general_wrap_core.obj
 0001:00033140       ?EnableAutoFullScreenVideoWhenJoinMeeting@ZSettingGeneralWrap@@QAE?AW4ZNSDKError@@_N@Z 10034140 f   setting_general_wrap_core.obj
 0001:00033190       ?EnableAutoFullScreenVideoWhenViewShare@ZSettingGeneralWrap@@QAE?AW4ZNSDKError@@_N@Z 10034190 f   setting_general_wrap_core.obj
 0001:000331e0       ?EnableDisplayReminderWindowWhenExit@ZSettingGeneralWrap@@QAE?AW4ZNSDKError@@_N@Z 100341e0 f   setting_general_wrap_core.obj
 0001:00033230       ?EnableDualScreenMode@ZSettingGeneralWrap@@QAE?AW4ZNSDKError@@_N@Z 10034230 f   setting_general_wrap_core.obj
 0001:00033280       ?EnableRemoteControlAllApplications@ZSettingGeneralWrap@@QAE?AW4ZNSDKError@@_N@Z 10034280 f   setting_general_wrap_core.obj
 0001:000332d0       ?EnableShowMyMeetingElapseTime@ZSettingGeneralWrap@@QAE?AW4ZNSDKError@@_N@Z 100342d0 f   setting_general_wrap_core.obj
 0001:00033320       ?EnableSplitScreenMode@ZSettingGeneralWrap@@QAE?AW4ZNSDKError@@_N@Z 10034320 f   setting_general_wrap_core.obj
 0001:00033370       ?Init@ZSettingGeneralWrap@@QAEXXZ 10034370 f   setting_general_wrap_core.obj
 0001:00033380       ?IsAccelerateGPUWhenShareEnabled@ZSettingGeneralWrap@@QAE?AW4ZNSDKError@@AA_N@Z 10034380 f   setting_general_wrap_core.obj
 0001:000333d0       ?IsAeroModeInSharingTurnOff@ZSettingGeneralWrap@@QAE_NXZ 100343d0 f   setting_general_wrap_core.obj
 0001:00033410       ?IsAutoFitToWindowWhenViewSharingEnabled@ZSettingGeneralWrap@@QAE_NXZ 10034410 f   setting_general_wrap_core.obj
 0001:00033450       ?IsAutoFullScreenVideoWhenJoinMeetingEnabled@ZSettingGeneralWrap@@QAE_NXZ 10034450 f   setting_general_wrap_core.obj
 0001:00033490       ?IsAutoFullScreenVideoWhenViewShareEnabled@ZSettingGeneralWrap@@QAE_NXZ 10034490 f   setting_general_wrap_core.obj
 0001:000334d0       ?IsCurrentOSSupportAccelerateGPUWhenShare@ZSettingGeneralWrap@@QAE_NXZ 100344d0 f   setting_general_wrap_core.obj
 0001:00033510       ?IsDisplayReminderWindowWhenExitEnabled@ZSettingGeneralWrap@@QAE_NXZ 10034510 f   setting_general_wrap_core.obj
 0001:00033550       ?IsDualScreenModeEnabled@ZSettingGeneralWrap@@QAE_NXZ 10034550 f   setting_general_wrap_core.obj
 0001:00033590       ?IsRemoteControlAllApplicationsEnabled@ZSettingGeneralWrap@@QAE_NXZ 10034590 f   setting_general_wrap_core.obj
 0001:000335d0       ?IsShowMyMeetingElapseTimeEnabled@ZSettingGeneralWrap@@QAE_NXZ 100345d0 f   setting_general_wrap_core.obj
 0001:00033610       ?IsSplitScreenModeEnabled@ZSettingGeneralWrap@@QAE_NXZ 10034610 f   setting_general_wrap_core.obj
 0001:00033650       ?TurnOffAeroModeInSharing@ZSettingGeneralWrap@@QAE?AW4ZNSDKError@@_N@Z 10034650 f   setting_general_wrap_core.obj
 0001:000336a0       ?Uninit@ZSettingGeneralWrap@@QAEXXZ 100346a0 f   setting_general_wrap_core.obj
 0001:000336b0       ??0ZSettingUIStrategyWrap@@QAE@XZ 100346b0 f   setting_ui_strategy_wrap_core.obj
 0001:000336c0       ??1ZSettingUIStrategyWrap@@UAE@XZ 100346c0 f   setting_ui_strategy_wrap_core.obj
 0001:000336d0       ??_GZSettingUIStrategyWrap@@UAEPAXI@Z 100346d0 f i setting_ui_strategy_wrap_core.obj
 0001:000336d0       ??_EZSettingUIStrategyWrap@@UAEPAXI@Z 100346d0 f i setting_ui_strategy_wrap_core.obj
 0001:00033700       ?ConfSettingDialogShownTabPage@ZSettingUIStrategyWrap@@QAEXK@Z 10034700 f   setting_ui_strategy_wrap_core.obj
 0001:000337e0       ?DisableAccountSettingTabPage@ZSettingUIStrategyWrap@@QAEX_N@Z 100347e0 f   setting_ui_strategy_wrap_core.obj
 0001:00033810       ?DisableAdvancedFeatures4GeneralSetting@ZSettingUIStrategyWrap@@QAEX_N@Z 10034810 f   setting_ui_strategy_wrap_core.obj
 0001:00033840       ?Init@ZSettingUIStrategyWrap@@QAEXXZ 10034840 f   setting_ui_strategy_wrap_core.obj
 0001:00033850       ?Uninit@ZSettingUIStrategyWrap@@QAEXXZ 10034850 f   setting_ui_strategy_wrap_core.obj
 0001:00033860       ??0ZSettingStatisticWrap@@QAE@XZ 10034860 f   setting_statistic_wrap_core.obj
 0001:00033870       ??1ZSettingStatisticWrap@@UAE@XZ 10034870 f   setting_statistic_wrap_core.obj
 0001:00033880       ??_EZSettingStatisticWrap@@UAEPAXI@Z 10034880 f i setting_statistic_wrap_core.obj
 0001:00033880       ??_GZSettingStatisticWrap@@UAEPAXI@Z 10034880 f i setting_statistic_wrap_core.obj
 0001:000338b0       ?Init@ZSettingStatisticWrap@@QAEXXZ 100348b0 f   setting_statistic_wrap_core.obj
 0001:000338c0       ?QueryAudioStatisticInfo@ZSettingStatisticWrap@@QAE?AW4ZNSDKError@@AAU_ZNAudioSessionStatisticInfo@@@Z 100348c0 f   setting_statistic_wrap_core.obj
 0001:00033980       ?QueryOverallStatisticInfo@ZSettingStatisticWrap@@QAE?AW4ZNSDKError@@AAU_ZNOverallStatisticInfo@@@Z 10034980 f   setting_statistic_wrap_core.obj
 0001:00033aa0       ?QueryShareStatisticInfo@ZSettingStatisticWrap@@QAE?AW4ZNSDKError@@AAUZNASVSessionStatisticInfo@@@Z 10034aa0 f   setting_statistic_wrap_core.obj
 0001:00033b60       ?QueryVideoStatisticInfo@ZSettingStatisticWrap@@QAE?AW4ZNSDKError@@AAUZNASVSessionStatisticInfo@@@Z 10034b60 f   setting_statistic_wrap_core.obj
 0001:00033c20       ?Uninit@ZSettingStatisticWrap@@QAEXXZ 10034c20 f   setting_statistic_wrap_core.obj
 0001:00033c30       ??0ZSettingAccessibilityWrap@@QAE@XZ 10034c30 f   setting_accessibility_wrap_core.obj
 0001:00033c40       ??1ZSettingAccessibilityWrap@@UAE@XZ 10034c40 f   setting_accessibility_wrap_core.obj
 0001:00033c50       ??_GZSettingAccessibilityWrap@@UAEPAXI@Z 10034c50 f i setting_accessibility_wrap_core.obj
 0001:00033c50       ??_EZSettingAccessibilityWrap@@UAEPAXI@Z 10034c50 f i setting_accessibility_wrap_core.obj
 0001:00033c80       ?EnableAlwaysShowMeetingControls@ZSettingAccessibilityWrap@@QAE?AW4ZNSDKError@@_N@Z 10034c80 f   setting_accessibility_wrap_core.obj
 0001:00033cd0       ?Init@ZSettingAccessibilityWrap@@QAEXXZ 10034cd0 f   setting_accessibility_wrap_core.obj
 0001:00033ce0       ?IsAlwaysShowMeetingControlsEnable@ZSettingAccessibilityWrap@@QAE?AW4ZNSDKError@@AA_N@Z 10034ce0 f   setting_accessibility_wrap_core.obj
 0001:00033d30       ?Uninit@ZSettingAccessibilityWrap@@QAEXXZ 10034d30 f   setting_accessibility_wrap_core.obj
 0001:00033d40       ??0ZSettingRecordingWrap@@QAE@XZ 10034d40 f   setting_recording_wrap_core.obj
 0001:00033d70       ??0ZoomNodeSinkHelper@@AAE@XZ 10034d70 f i setting_recording_wrap_core.obj
 0001:00033f60       ??1ZSettingRecordingWrap@@UAE@XZ 10034f60 f   setting_recording_wrap_core.obj
 0001:00033fe0       ??1ZoomNodeSinkHelper@@QAE@XZ 10034fe0 f i setting_recording_wrap_core.obj
 0001:00034540       ??_GZSettingRecordingWrap@@UAEPAXI@Z 10035540 f i setting_recording_wrap_core.obj
 0001:00034540       ??_EZSettingRecordingWrap@@UAEPAXI@Z 10035540 f i setting_recording_wrap_core.obj
 0001:00034570       ?CanGetCloudRecordingStorageInfo@ZSettingRecordingWrap@@QAE_NXZ 10035570 f   setting_recording_wrap_core.obj
 0001:00034590       ?CanGetRecordingManagementURL@ZSettingRecordingWrap@@QAE?AW4ZNSDKError@@AA_N@Z 10035590 f   setting_recording_wrap_core.obj
 0001:000345d0       ?EnableAddTimestampWatermark@ZSettingRecordingWrap@@QAE?AW4ZNSDKError@@_N@Z 100355d0 f   setting_recording_wrap_core.obj
 0001:00034610       ?EnableMultiAudioStreamRecord@ZSettingRecordingWrap@@QAE?AW4ZNSDKError@@_N@Z 10035610 f   setting_recording_wrap_core.obj
 0001:00034650       ?EnableOptimizeFor3rdPartyVideoEditor@ZSettingRecordingWrap@@QAE?AW4ZNSDKError@@_N@Z 10035650 f   setting_recording_wrap_core.obj
 0001:00034690       ?EnablePlaceVideoNextToShareInRecord@ZSettingRecordingWrap@@QAE?AW4ZNSDKError@@_N@Z 10035690 f   setting_recording_wrap_core.obj
 0001:000346d0       ?EnableSelectRecordFileLocationAfterMeeting@ZSettingRecordingWrap@@QAE?AW4ZNSDKError@@_N@Z 100356d0 f   setting_recording_wrap_core.obj
 0001:00034710       ?EnableShowVideoThumbnailWhenShare@ZSettingRecordingWrap@@QAE?AW4ZNSDKError@@_N@Z 10035710 f   setting_recording_wrap_core.obj
 0001:00034750       ?GetCloudRecordingStorageInfo@ZSettingRecordingWrap@@QAE?AW4ZNSDKError@@XZ 10035750 f   setting_recording_wrap_core.obj
 0001:00034780       ?GetInst@ZoomNodeSinkHelper@@SAAAV1@XZ 10035780 f i setting_recording_wrap_core.obj
 0001:000347f0       ?GetRecordingManagementURL@ZSettingRecordingWrap@@QAE?AV?$basic_string@_WU?$char_traits@_W@std@@V?$allocator@_W@2@@std@@XZ 100357f0 f   setting_recording_wrap_core.obj
 0001:00034880       ?GetRecordingPath@ZSettingRecordingWrap@@QAE?AV?$basic_string@_WU?$char_traits@_W@std@@V?$allocator@_W@2@@std@@XZ 10035880 f   setting_recording_wrap_core.obj
 0001:00034910       ?Init@ZSettingRecordingWrap@@QAEXXZ 10035910 f   setting_recording_wrap_core.obj
 0001:00034980       ?IsAddTimestampWatermarkEnabled@ZSettingRecordingWrap@@QAE_NXZ 10035980 f   setting_recording_wrap_core.obj
 0001:000349a0       ?IsMultiAudioStreamRecordEnabled@ZSettingRecordingWrap@@QAE_NXZ 100359a0 f   setting_recording_wrap_core.obj
 0001:000349c0       ?IsOptimizeFor3rdPartyVideoEditorEnabled@ZSettingRecordingWrap@@QAE_NXZ 100359c0 f   setting_recording_wrap_core.obj
 0001:000349e0       ?IsPlaceVideoNextToShareInRecordEnabled@ZSettingRecordingWrap@@QAE_NXZ 100359e0 f   setting_recording_wrap_core.obj
 0001:00034a00       ?IsSelectRecordFileLocationAfterMeetingEnabled@ZSettingRecordingWrap@@QAE_NXZ 10035a00 f   setting_recording_wrap_core.obj
 0001:00034a20       ?IsShowVideoThumbnailWhenShareEnabled@ZSettingRecordingWrap@@QAE_NXZ 10035a20 f   setting_recording_wrap_core.obj
 0001:00034a40       ?SetRecordingPath@ZSettingRecordingWrap@@QAE?AW4ZNSDKError@@V?$basic_string@_WU?$char_traits@_W@std@@V?$allocator@_W@2@@std@@@Z 10035a40 f   setting_recording_wrap_core.obj
 0001:00034ab0       ?SetSink@ZSettingRecordingWrap@@QAEXPAVZNativeSDKRecordingSettingContextWrapSink@@@Z 10035ab0 f   setting_recording_wrap_core.obj
 0001:00034ac0       ?Uninit@ZSettingRecordingWrap@@QAEXXZ 10035ac0 f   setting_recording_wrap_core.obj
 0001:00034b20       ?onCloudRecordingStorageInfo@ZNativeSDKRecordingSettingContextWrapSink@@QAEX_J0_N@Z 10035b20 f i setting_recording_wrap_core.obj
 0001:00034c60       ?onCloudRecordingStorageInfo@ZSettingRecordingWrap@@QAEX_J0_N@Z 10035c60 f   setting_recording_wrap_core.obj
 0001:00034c90       ??0ZDirectShareHelperWrap@@QAE@XZ 10035c90 f   directshare_helper_wrap_core.obj
 0001:00034cc0       ??1ZDirectShareHelperWrap@@UAE@XZ 10035cc0 f   directshare_helper_wrap_core.obj
 0001:00034d40       ??_EZDirectShareHelperWrap@@UAEPAXI@Z 10035d40 f i directshare_helper_wrap_core.obj
 0001:00034d40       ??_GZDirectShareHelperWrap@@UAEPAXI@Z 10035d40 f i directshare_helper_wrap_core.obj
 0001:00034d70       ?CanStartDirectShare@ZDirectShareHelperWrap@@QAE?AW4ZNSDKError@@XZ 10035d70 f   directshare_helper_wrap_core.obj
 0001:00034da0       ?Cancel@ZDirectShareHelperWrap@@QAE?AW4ZNSDKError@@XZ 10035da0 f   directshare_helper_wrap_core.obj
 0001:00034e30       ?Init@ZDirectShareHelperWrap@@QAEXXZ 10035e30 f   directshare_helper_wrap_core.obj
 0001:00034ea0       ?IsDirectShareInProgress@ZDirectShareHelperWrap@@QAE_NXZ 10035ea0 f   directshare_helper_wrap_core.obj
 0001:00034ec0       ?OnDirectShareStatusUpdate@ZDirectShareHelperWrap@@QAEXW4ZNDirectShareStatus@@@Z 10035ec0 f   directshare_helper_wrap_core.obj
 0001:00034ee0       ?SetSink@ZDirectShareHelperWrap@@QAEXPAVZNativeSDKDirectShareHelperWrapSink@@@Z 10035ee0 f   directshare_helper_wrap_core.obj
 0001:00034ef0       ?StartDirectShare@ZDirectShareHelperWrap@@QAE?AW4ZNSDKError@@XZ 10035ef0 f   directshare_helper_wrap_core.obj
 0001:00034f20       ?StopDirectShare@ZDirectShareHelperWrap@@QAE?AW4ZNSDKError@@XZ 10035f20 f   directshare_helper_wrap_core.obj
 0001:00034f50       ?TryWithMeetingNumber@ZDirectShareHelperWrap@@QAE?AW4ZNSDKError@@_K@Z 10035f50 f   directshare_helper_wrap_core.obj
 0001:00034ff0       ?TryWithPairingCode@ZDirectShareHelperWrap@@QAE?AW4ZNSDKError@@V?$basic_string@_WU?$char_traits@_W@std@@V?$allocator@_W@2@@std@@@Z 10035ff0 f   directshare_helper_wrap_core.obj
 0001:00035110       ?Uninit@ZDirectShareHelperWrap@@QAEXXZ 10036110 f   directshare_helper_wrap_core.obj
 0001:00035170       ??0ZCustomizedResourceWrap@@QAE@XZ 10036170 f   customized_resource_wrap_core.obj
 0001:00035180       ??1ZCustomizedResourceWrap@@UAE@XZ 10036180 f   customized_resource_wrap_core.obj
 0001:00035190       ??_EZCustomizedResourceWrap@@UAEPAXI@Z 10036190 f i customized_resource_wrap_core.obj
 0001:00035190       ??_GZCustomizedResourceWrap@@UAEPAXI@Z 10036190 f i customized_resource_wrap_core.obj
 0001:000351c0       ?AddCustomizedPictureResource@ZCustomizedResourceWrap@@QAE?AW4ZNSDKError@@V?$basic_string@_WU?$char_traits@_W@std@@V?$allocator@_W@2@@std@@0@Z 100361c0 f   customized_resource_wrap_core.obj
 0001:00035280       ?AddCustomizedStringResource@ZCustomizedResourceWrap@@QAE?AW4ZNSDKError@@W4ZNSDKCustomizedStringType@@V?$basic_string@_WU?$char_traits@_W@std@@V?$allocator@_W@2@@std@@@Z 10036280 f   customized_resource_wrap_core.obj
 0001:00035300       ?AddCustomizedURLResource@ZCustomizedResourceWrap@@QAE?AW4ZNSDKError@@W4ZNSDKCustomizedURLType@@V?$basic_string@_WU?$char_traits@_W@std@@V?$allocator@_W@2@@std@@@Z 10036300 f   customized_resource_wrap_core.obj
 0001:00035380       ?Init@ZCustomizedResourceWrap@@QAEXXZ 10036380 f   customized_resource_wrap_core.obj
 0001:00035390       ?Uninit@ZCustomizedResourceWrap@@QAEXXZ 10036390 f   customized_resource_wrap_core.obj
 0001:000353a0       ??0ZSDKSMSHelperWrap@@QAE@XZ 100363a0 f   zoom_sdk_sms_helper_wrap_core.obj
 0001:000353d0       ??1ZSDKSMSHelperWrap@@UAE@XZ 100363d0 f   zoom_sdk_sms_helper_wrap_core.obj
 0001:00035450       ??_EZSDKSMSHelperWrap@@UAEPAXI@Z 10036450 f i zoom_sdk_sms_helper_wrap_core.obj
 0001:00035450       ??_GZSDKSMSHelperWrap@@UAEPAXI@Z 10036450 f i zoom_sdk_sms_helper_wrap_core.obj
 0001:00035480       ?EnableZoomAuthRealNameMeetingUIShown@ZSDKSMSHelperWrap@@QAE_N_N@Z 10036480 f   zoom_sdk_sms_helper_wrap_core.obj
 0001:000354b0       ?GetReVerifySMSVerificationCodeHandler@ZSDKSMSHelperWrap@@QAE_NXZ 100364b0 f   zoom_sdk_sms_helper_wrap_core.obj
 0001:00035560       ?GetResendSMSVerificationCodeHandler@ZSDKSMSHelperWrap@@QAE_NXZ 10036560 f   zoom_sdk_sms_helper_wrap_core.obj
 0001:00035610       ?GetSupportPhoneNumberCountryList@ZSDKSMSHelperWrap@@QAE?AV?$vector@U_ZNZoomRealNameAuthCountryInfo@@V?$allocator@U_ZNZoomRealNameAuthCountryInfo@@@std@@@std@@XZ 10036610 f   zoom_sdk_sms_helper_wrap_core.obj
 0001:00035860       ?Init@ZSDKSMSHelperWrap@@QAEXXZ 10036860 f   zoom_sdk_sms_helper_wrap_core.obj
 0001:000358d0       ?Retrieve@ZSDKSMSHelperWrap@@QAE_NV?$basic_string@_WU?$char_traits@_W@std@@V?$allocator@_W@2@@std@@0@Z 100368d0 f   zoom_sdk_sms_helper_wrap_core.obj
 0001:000359e0       ?Retrieve_CancelAndLeaveMeeting@ZSDKSMSHelperWrap@@QAE_NXZ 100369e0 f   zoom_sdk_sms_helper_wrap_core.obj
 0001:00035a60       ?SetDefaultCellPhoneInfo@ZSDKSMSHelperWrap@@QAE_NV?$basic_string@_WU?$char_traits@_W@std@@V?$allocator@_W@2@@std@@0@Z 10036a60 f   zoom_sdk_sms_helper_wrap_core.obj
 0001:00035b10       ?SetSink@ZSDKSMSHelperWrap@@QAEXPAVZNativeSDKSMSHelperWrapSink@@@Z 10036b10 f   zoom_sdk_sms_helper_wrap_core.obj
 0001:00035b20       ?Uninit@ZSDKSMSHelperWrap@@QAEXXZ 10036b20 f   zoom_sdk_sms_helper_wrap_core.obj
 0001:00035b80       ?Verify@ZSDKSMSHelperWrap@@QAE_NV?$basic_string@_WU?$char_traits@_W@std@@V?$allocator@_W@2@@std@@00@Z 10036b80 f   zoom_sdk_sms_helper_wrap_core.obj
 0001:00035ce0       ?Verify_CancelAndLeaveMeeting@ZSDKSMSHelperWrap@@QAE_NXZ 10036ce0 f   zoom_sdk_sms_helper_wrap_core.obj
 0001:00035d60       ?onNeedRealNameAuthMeetingNotification@ZSDKSMSHelperWrap@@QAEXV?$vector@U_ZNZoomRealNameAuthCountryInfo@@V?$allocator@U_ZNZoomRealNameAuthCountryInfo@@@std@@@std@@V?$basic_string@_WU?$char_traits@_W@std@@V?$allocator@_W@2@@3@@Z 10036d60 f   zoom_sdk_sms_helper_wrap_core.obj
 0001:00035df0       ?onRetrieveSMSVerificationCodeResultNotification@ZSDKSMSHelperWrap@@QAEXW4ZNSMSVerificationCodeErr@@@Z 10036df0 f   zoom_sdk_sms_helper_wrap_core.obj
 0001:00035e10       ?onVerifySMSVerificationCodeResultNotification@ZSDKSMSHelperWrap@@QAEXW4ZNSMSVerificationCodeErr@@@Z 10036e10 f   zoom_sdk_sms_helper_wrap_core.obj
 0001:00035e30       ?InitAll@@YAXV?$Local@VObject@v8@@@v8@@0@Z 10036e30 f   zoom_node_addon.obj
 0001:00038ed0       ??$Set@VInteger@v8@@@?$ReturnValue@VValue@v8@@@v8@@QAEXV?$Local@VInteger@v8@@@1@@Z 10039ed0 f i zoom_node_addon.obj
 0001:00038ef0       ??0ZoomNodeAuthWrap@@AAE@XZ 10039ef0 f   zoom_node_addon.obj
 0001:00038f30       ??0ZoomNodeMeetingUICtrlWrap@@AAE@XZ 10039f30 f   zoom_node_addon.obj
 0001:00038f80       ??0ZoomNodeMeetingWrap@@AAE@XZ 10039f80 f   zoom_node_addon.obj
 0001:00038fd0       ??0ZoomNodePremeetingWrap@@AAE@XZ 10039fd0 f   zoom_node_addon.obj
 0001:00039020       ??0ZoomNodeSettingWrap@@AAE@XZ 1003a020 f   zoom_node_addon.obj
 0001:00039040       ??0ZoomNodeSinkWrapMgr@@AAE@XZ 1003a040 f i zoom_node_addon.obj
 0001:000390c0       ??0_ZNInitParam@@QAE@XZ    1003a0c0 f i zoom_node_addon.obj
 0001:00039170       ??0_ZNJoinParam@@QAE@ABU0@@Z 1003a170 f i zoom_node_addon.obj
 0001:000393a0       ??0_ZNJoinParam@@QAE@XZ    1003a3a0 f i zoom_node_addon.obj
 0001:000394b0       ??0_ZNShowChatDlgParam@@QAE@ABU0@@Z 1003a4b0 f i zoom_node_addon.obj
 0001:000395c0       ??0_ZNShowChatDlgParam@@QAE@XZ 1003a5c0 f i zoom_node_addon.obj
 0001:00039640       ??0_ZNShowSettingDlgParam@@QAE@ABU0@@Z 1003a640 f i zoom_node_addon.obj
 0001:00039710       ??0_ZNShowSettingDlgParam@@QAE@XZ 1003a710 f i zoom_node_addon.obj
 0001:00039770       ??0_ZNStartParam@@QAE@ABU0@@Z 1003a770 f i zoom_node_addon.obj
 0001:00039910       ??0_ZNStartParam@@QAE@XZ   1003a910 f i zoom_node_addon.obj
 0001:000399c0       ??0_ZNWndPosition@@QAE@ABU0@@Z 1003a9c0 f i zoom_node_addon.obj
 0001:00039a80       ??0_ZNWndPosition@@QAE@XZ  1003aa80 f i zoom_node_addon.obj
 0001:00039ad0       ??1ObjectWrap@node@@UAE@XZ 1003aad0 f i zoom_node_addon.obj
 0001:00039b20       ??1ZoomNodeAuthWrap@@EAE@XZ 1003ab20 f   zoom_node_addon.obj
 0001:00039b80       ??1ZoomNodeMeetingUICtrlWrap@@EAE@XZ 1003ab80 f   zoom_node_addon.obj
 0001:00039bf0       ??1ZoomNodeMeetingWrap@@EAE@XZ 1003abf0 f   zoom_node_addon.obj
 0001:00039c50       ??1ZoomNodePremeetingWrap@@EAE@XZ 1003ac50 f   zoom_node_addon.obj
 0001:00039cb0       ??1ZoomNodeSettingWrap@@EAE@XZ 1003acb0 f   zoom_node_addon.obj
 0001:00039d00       ??1_ZNAuthParam@@QAE@XZ    1003ad00 f i zoom_node_addon.obj
 0001:00039d70       ??1_ZNInitParam@@QAE@XZ    1003ad70 f i zoom_node_addon.obj
 0001:00039ed0       ??1_ZNLoginParam@@QAE@XZ   1003aed0 f i zoom_node_addon.obj
 0001:00039f70       ??1_ZNVideoWallPageInfoParam@@QAE@XZ 1003af70 f i zoom_node_addon.obj
 0001:00039fe0       ??_G?$ZoomWrapObject@VZoomNodeAuthWrap@@@@MAEPAXI@Z 1003afe0 f i zoom_node_addon.obj
 0001:00039fe0       ??_E?$ZoomWrapObject@VZoomNodeAuthWrap@@@@MAEPAXI@Z 1003afe0 f i zoom_node_addon.obj
 0001:0003a040       ??_G?$ZoomWrapObject@VZoomNodeMeetingAnnotationWrap@@@@MAEPAXI@Z 1003b040 f i zoom_node_addon.obj
 0001:0003a040       ??_E?$ZoomWrapObject@VZoomNodeMeetingAnnotationWrap@@@@MAEPAXI@Z 1003b040 f i zoom_node_addon.obj
 0001:0003a0a0       ??_E?$ZoomWrapObject@VZoomNodeMeetingInfoWrap@@@@MAEPAXI@Z 1003b0a0 f i zoom_node_addon.obj
 0001:0003a0a0       ??_G?$ZoomWrapObject@VZoomNodeMeetingInfoWrap@@@@MAEPAXI@Z 1003b0a0 f i zoom_node_addon.obj
 0001:0003a100       ??_E?$ZoomWrapObject@VZoomNodeMeetingUICtrlWrap@@@@MAEPAXI@Z 1003b100 f i zoom_node_addon.obj
 0001:0003a100       ??_G?$ZoomWrapObject@VZoomNodeMeetingUICtrlWrap@@@@MAEPAXI@Z 1003b100 f i zoom_node_addon.obj
 0001:0003a160       ??_G?$ZoomWrapObject@VZoomNodeMeetingWrap@@@@MAEPAXI@Z 1003b160 f i zoom_node_addon.obj
 0001:0003a160       ??_E?$ZoomWrapObject@VZoomNodeMeetingWrap@@@@MAEPAXI@Z 1003b160 f i zoom_node_addon.obj
 0001:0003a1c0       ??_G?$ZoomWrapObject@VZoomNodePremeetingWrap@@@@MAEPAXI@Z 1003b1c0 f i zoom_node_addon.obj
 0001:0003a1c0       ??_E?$ZoomWrapObject@VZoomNodePremeetingWrap@@@@MAEPAXI@Z 1003b1c0 f i zoom_node_addon.obj
 0001:0003a220       ??_G?$ZoomWrapObject@VZoomNodeSettingWrap@@@@MAEPAXI@Z 1003b220 f i zoom_node_addon.obj
 0001:0003a220       ??_E?$ZoomWrapObject@VZoomNodeSettingWrap@@@@MAEPAXI@Z 1003b220 f i zoom_node_addon.obj
 0001:0003a280       ??_G?$ZoomWrapObject@VZoomNodeWrap@@@@MAEPAXI@Z 1003b280 f i zoom_node_addon.obj
 0001:0003a280       ??_E?$ZoomWrapObject@VZoomNodeWrap@@@@MAEPAXI@Z 1003b280 f i zoom_node_addon.obj
 0001:0003a2e0       ??_EObjectWrap@node@@UAEPAXI@Z 1003b2e0 f i zoom_node_addon.obj
 0001:0003a2e0       ??_GObjectWrap@node@@UAEPAXI@Z 1003b2e0 f i zoom_node_addon.obj
 0001:0003a340       ??_GZoomNodeAuthWrap@@EAEPAXI@Z 1003b340 f i zoom_node_addon.obj
 0001:0003a340       ??_EZoomNodeAuthWrap@@EAEPAXI@Z 1003b340 f i zoom_node_addon.obj
 0001:0003a3c0       ??_EZoomNodeMeetingAnnotationWrap@@EAEPAXI@Z 1003b3c0 f i zoom_node_addon.obj
 0001:0003a3c0       ??_GZoomNodeMeetingAnnotationWrap@@EAEPAXI@Z 1003b3c0 f i zoom_node_addon.obj
 0001:0003a420       ??_EZoomNodeMeetingInfoWrap@@EAEPAXI@Z 1003b420 f i zoom_node_addon.obj
 0001:0003a420       ??_GZoomNodeMeetingInfoWrap@@EAEPAXI@Z 1003b420 f i zoom_node_addon.obj
 0001:0003a480       ??_EZoomNodeMeetingUICtrlWrap@@EAEPAXI@Z 1003b480 f i zoom_node_addon.obj
 0001:0003a480       ??_GZoomNodeMeetingUICtrlWrap@@EAEPAXI@Z 1003b480 f i zoom_node_addon.obj
 0001:0003a510       ??_EZoomNodeMeetingWrap@@EAEPAXI@Z 1003b510 f i zoom_node_addon.obj
 0001:0003a510       ??_GZoomNodeMeetingWrap@@EAEPAXI@Z 1003b510 f i zoom_node_addon.obj
 0001:0003a590       ??_GZoomNodePremeetingWrap@@EAEPAXI@Z 1003b590 f i zoom_node_addon.obj
 0001:0003a590       ??_EZoomNodePremeetingWrap@@EAEPAXI@Z 1003b590 f i zoom_node_addon.obj
 0001:0003a610       ??_GZoomNodeSettingWrap@@EAEPAXI@Z 1003b610 f i zoom_node_addon.obj
 0001:0003a610       ??_EZoomNodeSettingWrap@@EAEPAXI@Z 1003b610 f i zoom_node_addon.obj
 0001:0003a670       ??_GZoomNodeWrap@@EAEPAXI@Z 1003b670 f i zoom_node_addon.obj
 0001:0003a670       ??_EZoomNodeWrap@@EAEPAXI@Z 1003b670 f i zoom_node_addon.obj
 0001:0003a6d0       ?Auth@ZoomNodeAuthWrap@@SAXABV?$FunctionCallbackInfo@VValue@v8@@@v8@@@Z 1003b6d0 f   zoom_node_addon.obj
 0001:0003a960       ?AuthWithJwtToken@ZoomNodeAuthWrap@@SAXABV?$FunctionCallbackInfo@VValue@v8@@@v8@@@Z 1003b960 f   zoom_node_addon.obj
 0001:0003ab60       ?BackToMeeting@ZoomNodeMeetingUICtrlWrap@@SAXABV?$FunctionCallbackInfo@VValue@v8@@@v8@@@Z 1003bb60 f   zoom_node_addon.obj
 0001:0003abc0       ?CanSwapToShowShareViewOrVideo@ZoomNodeMeetingUICtrlWrap@@SAXABV?$FunctionCallbackInfo@VValue@v8@@@v8@@@Z 1003bbc0 f   zoom_node_addon.obj
 0001:0003ad50       ?ChangeFloatoActiveSpkVideoSize@ZoomNodeMeetingUICtrlWrap@@SAXABV?$FunctionCallbackInfo@VValue@v8@@@v8@@@Z 1003bd50 f   zoom_node_addon.obj
 0001:0003af10       ?CheckingIsInternalMeeting@ZoomNodeMeetingInfoWrap@@SAXABV?$FunctionCallbackInfo@VValue@v8@@@v8@@@Z 1003bf10 f   zoom_node_addon.obj
 0001:0003af70       ?CleanUPSDK@ZoomNodeWrap@@SAXABV?$FunctionCallbackInfo@VValue@v8@@@v8@@@Z 1003bf70 f   zoom_node_addon.obj
 0001:0003afd0       ?CreateObject@@YAXABV?$FunctionCallbackInfo@VValue@v8@@@v8@@@Z 1003bfd0 f   zoom_node_addon.obj
 0001:0003afe0       ?DeleteMeeting@ZoomNodePremeetingWrap@@SAXABV?$FunctionCallbackInfo@VValue@v8@@@v8@@@Z 1003bfe0 f   zoom_node_addon.obj
 0001:0003b1a0       ?EditMeeting@ZoomNodePremeetingWrap@@SAXABV?$FunctionCallbackInfo@VValue@v8@@@v8@@@Z 1003c1a0 f   zoom_node_addon.obj
 0001:0003b360       ?EditMeetingWithWndParams@ZoomNodePremeetingWrap@@SAXABV?$FunctionCallbackInfo@VValue@v8@@@v8@@@Z 1003c360 f   zoom_node_addon.obj
 0001:0003b720       ?EnterFullScreen@ZoomNodeMeetingUICtrlWrap@@SAXABV?$FunctionCallbackInfo@VValue@v8@@@v8@@@Z 1003c720 f   zoom_node_addon.obj
 0001:0003b900       ?ExitFullScreen@ZoomNodeMeetingUICtrlWrap@@SAXABV?$FunctionCallbackInfo@VValue@v8@@@v8@@@Z 1003c900 f   zoom_node_addon.obj
 0001:0003bae0       ?GetAudioConnQuality@ZoomNodeMeetingWrap@@SAXABV?$FunctionCallbackInfo@VValue@v8@@@v8@@@Z 1003cae0 f   zoom_node_addon.obj
 0001:0003bb40       ?GetAudioRawDataObj@ZoomNodeWrap@@SAXABV?$FunctionCallbackInfo@VValue@v8@@@v8@@@Z 1003cb40 f   zoom_node_addon.obj
 0001:0003bb50       ?GetAuthObj@ZoomNodeWrap@@SAXABV?$FunctionCallbackInfo@VValue@v8@@@v8@@@Z 1003cb50 f   zoom_node_addon.obj
 0001:0003bb60       ?GetAuthResult@ZoomNodeAuthWrap@@SAXABV?$FunctionCallbackInfo@VValue@v8@@@v8@@@Z 1003cb60 f   zoom_node_addon.obj
 0001:0003bbc0       ?GetCurrentSplitScreenModeInfo@ZoomNodeMeetingUICtrlWrap@@SAXABV?$FunctionCallbackInfo@VValue@v8@@@v8@@@Z 1003cbc0 f   zoom_node_addon.obj
 0001:0003bf30       ?GetCustomizedResourceObj@ZoomNodeWrap@@SAXABV?$FunctionCallbackInfo@VValue@v8@@@v8@@@Z 1003cf30 f   zoom_node_addon.obj
 0001:0003bf40       ?GetDirectShareHelperObj@ZoomNodeAuthWrap@@SAXABV?$FunctionCallbackInfo@VValue@v8@@@v8@@@Z 1003cf40 f   zoom_node_addon.obj
 0001:0003bf50       ?GetInst@ZoomNodeSinkWrapMgr@@SAAAV1@XZ 1003cf50 f i zoom_node_addon.obj
 0001:0003bfc0       ?GetInviteEmailTeamplate@ZoomNodeMeetingInfoWrap@@SAXABV?$FunctionCallbackInfo@VValue@v8@@@v8@@@Z 1003cfc0 f   zoom_node_addon.obj
 0001:0003c0d0       ?GetInviteEmailTitle@ZoomNodeMeetingInfoWrap@@SAXABV?$FunctionCallbackInfo@VValue@v8@@@v8@@@Z 1003d0d0 f   zoom_node_addon.obj
 0001:0003c1e0       ?GetJoinMeetingUrl@ZoomNodeMeetingInfoWrap@@SAXABV?$FunctionCallbackInfo@VValue@v8@@@v8@@@Z 1003d1e0 f   zoom_node_addon.obj
 0001:0003c2f0       ?GetLoginStatus@ZoomNodeAuthWrap@@SAXABV?$FunctionCallbackInfo@VValue@v8@@@v8@@@Z 1003d2f0 f   zoom_node_addon.obj
 0001:0003c350       ?GetMeetingAnnotation@ZoomNodeMeetingWrap@@SAXABV?$FunctionCallbackInfo@VValue@v8@@@v8@@@Z 1003d350 f   zoom_node_addon.obj
 0001:0003c360       ?GetMeetingAudioCtrl@ZoomNodeMeetingWrap@@SAXABV?$FunctionCallbackInfo@VValue@v8@@@v8@@@Z 1003d360 f   zoom_node_addon.obj
 0001:0003c370       ?GetMeetingConfigCtrl@ZoomNodeMeetingWrap@@SAXABV?$FunctionCallbackInfo@VValue@v8@@@v8@@@Z 1003d370 f   zoom_node_addon.obj
 0001:0003c380       ?GetMeetingH323Ctrl@ZoomNodeMeetingWrap@@SAXABV?$FunctionCallbackInfo@VValue@v8@@@v8@@@Z 1003d380 f   zoom_node_addon.obj
 0001:0003c390       ?GetMeetingHostTag@ZoomNodeMeetingInfoWrap@@SAXABV?$FunctionCallbackInfo@VValue@v8@@@v8@@@Z 1003d390 f   zoom_node_addon.obj
 0001:0003c4a0       ?GetMeetingID@ZoomNodeMeetingInfoWrap@@SAXABV?$FunctionCallbackInfo@VValue@v8@@@v8@@@Z 1003d4a0 f   zoom_node_addon.obj
 0001:0003c5b0       ?GetMeetingInfo@ZoomNodeMeetingWrap@@SAXABV?$FunctionCallbackInfo@VValue@v8@@@v8@@@Z 1003d5b0 f   zoom_node_addon.obj
 0001:0003c5c0       ?GetMeetingNumber@ZoomNodeMeetingInfoWrap@@SAXABV?$FunctionCallbackInfo@VValue@v8@@@v8@@@Z 1003d5c0 f   zoom_node_addon.obj
 0001:0003c630       ?GetMeetingObj@ZoomNodeWrap@@SAXABV?$FunctionCallbackInfo@VValue@v8@@@v8@@@Z 1003d630 f   zoom_node_addon.obj
 0001:0003c640       ?GetMeetingParticipantsCtrl@ZoomNodeMeetingWrap@@SAXABV?$FunctionCallbackInfo@VValue@v8@@@v8@@@Z 1003d640 f   zoom_node_addon.obj
 0001:0003c650       ?GetMeetingShareCtrl@ZoomNodeMeetingWrap@@SAXABV?$FunctionCallbackInfo@VValue@v8@@@v8@@@Z 1003d650 f   zoom_node_addon.obj
 0001:0003c660       ?GetMeetingTopic@ZoomNodeMeetingInfoWrap@@SAXABV?$FunctionCallbackInfo@VValue@v8@@@v8@@@Z 1003d660 f   zoom_node_addon.obj
 0001:0003c770       ?GetMeetingType@ZoomNodeMeetingInfoWrap@@SAXABV?$FunctionCallbackInfo@VValue@v8@@@v8@@@Z 1003d770 f   zoom_node_addon.obj
 0001:0003c7d0       ?GetMeetingUICtrl@ZoomNodeMeetingWrap@@SAXABV?$FunctionCallbackInfo@VValue@v8@@@v8@@@Z 1003d7d0 f   zoom_node_addon.obj
 0001:0003c7e0       ?GetMeetingUIWnd@ZoomNodeMeetingUICtrlWrap@@SAXABV?$FunctionCallbackInfo@VValue@v8@@@v8@@@Z 1003d7e0 f   zoom_node_addon.obj
 0001:0003cb00       ?GetMeetingVideoCtrl@ZoomNodeMeetingWrap@@SAXABV?$FunctionCallbackInfo@VValue@v8@@@v8@@@Z 1003db00 f   zoom_node_addon.obj
 0001:0003cb10       ?GetPremeetingObj@ZoomNodeWrap@@SAXABV?$FunctionCallbackInfo@VValue@v8@@@v8@@@Z 1003db10 f   zoom_node_addon.obj
 0001:0003cb20       ?GetRawDataLicenseObj@ZoomNodeWrap@@SAXABV?$FunctionCallbackInfo@VValue@v8@@@v8@@@Z 1003db20 f   zoom_node_addon.obj
 0001:0003cb30       ?GetSDKSMSHelperObj@ZoomNodeWrap@@SAXABV?$FunctionCallbackInfo@VValue@v8@@@v8@@@Z 1003db30 f   zoom_node_addon.obj
 0001:0003cb40       ?GetSetObj@ZoomNodeWrap@@SAXABV?$FunctionCallbackInfo@VValue@v8@@@v8@@@Z 1003db40 f   zoom_node_addon.obj
 0001:0003cb50       ?GetSettingAccessibilityCtrl@ZoomNodeSettingWrap@@SAXABV?$FunctionCallbackInfo@VValue@v8@@@v8@@@Z 1003db50 f   zoom_node_addon.obj
 0001:0003cb60       ?GetSettingAudioCtrl@ZoomNodeSettingWrap@@SAXABV?$FunctionCallbackInfo@VValue@v8@@@v8@@@Z 1003db60 f   zoom_node_addon.obj
 0001:0003cb70       ?GetSettingGeneralCtrl@ZoomNodeSettingWrap@@SAXABV?$FunctionCallbackInfo@VValue@v8@@@v8@@@Z 1003db70 f   zoom_node_addon.obj
 0001:0003cb80       ?GetSettingRecordingCtrl@ZoomNodeSettingWrap@@SAXABV?$FunctionCallbackInfo@VValue@v8@@@v8@@@Z 1003db80 f   zoom_node_addon.obj
 0001:0003cb90       ?GetSettingStatisticCtrl@ZoomNodeSettingWrap@@SAXABV?$FunctionCallbackInfo@VValue@v8@@@v8@@@Z 1003db90 f   zoom_node_addon.obj
 0001:0003cba0       ?GetSettingUIStrategyCtrl@ZoomNodeSettingWrap@@SAXABV?$FunctionCallbackInfo@VValue@v8@@@v8@@@Z 1003dba0 f   zoom_node_addon.obj
 0001:0003cbb0       ?GetSettingVideoCtrl@ZoomNodeSettingWrap@@SAXABV?$FunctionCallbackInfo@VValue@v8@@@v8@@@Z 1003dbb0 f   zoom_node_addon.obj
 0001:0003cbc0       ?GetShareRawDataObj@ZoomNodeWrap@@SAXABV?$FunctionCallbackInfo@VValue@v8@@@v8@@@Z 1003dbc0 f   zoom_node_addon.obj
 0001:0003cbd0       ?GetSharingConnQuality@ZoomNodeMeetingWrap@@SAXABV?$FunctionCallbackInfo@VValue@v8@@@v8@@@Z 1003dbd0 f   zoom_node_addon.obj
 0001:0003cc30       ?GetVideoConnQuality@ZoomNodeMeetingWrap@@SAXABV?$FunctionCallbackInfo@VValue@v8@@@v8@@@Z 1003dc30 f   zoom_node_addon.obj
 0001:0003cc90       ?GetVideoRawDataObj@ZoomNodeWrap@@SAXABV?$FunctionCallbackInfo@VValue@v8@@@v8@@@Z 1003dc90 f   zoom_node_addon.obj
 0001:0003cca0       ?GetWallViewPageInfo@ZoomNodeMeetingUICtrlWrap@@SAXABV?$FunctionCallbackInfo@VValue@v8@@@v8@@@Z 1003dca0 f   zoom_node_addon.obj
 0001:0003d120       ?GetZoomSDKVersion@ZoomNodeWrap@@SAXABV?$FunctionCallbackInfo@VValue@v8@@@v8@@@Z 1003e120 f   zoom_node_addon.obj
 0001:0003d220       ?HandleZoomWebUriProtocolAction@ZoomNodeMeetingWrap@@SAXABV?$FunctionCallbackInfo@VValue@v8@@@v8@@@Z 1003e220 f   zoom_node_addon.obj
 0001:0003d430       ?HideChatDlg@ZoomNodeMeetingUICtrlWrap@@SAXABV?$FunctionCallbackInfo@VValue@v8@@@v8@@@Z 1003e430 f   zoom_node_addon.obj
 0001:0003d490       ?HideJoinAudioDlg@ZoomNodeMeetingUICtrlWrap@@SAXABV?$FunctionCallbackInfo@VValue@v8@@@v8@@@Z 1003e490 f   zoom_node_addon.obj
 0001:0003d4f0       ?HideSettingDlg@ZoomNodeSettingWrap@@SAXABV?$FunctionCallbackInfo@VValue@v8@@@v8@@@Z 1003e4f0 f   zoom_node_addon.obj
 0001:0003d550       ?Init@?$ZoomWrapObject@VZoomNodeAudioRawDataWrap@@@@SAXPAVIsolate@v8@@@Z 1003e550 f i zoom_node_addon.obj
 0001:0003d610       ?Init@?$ZoomWrapObject@VZoomNodeAuthWrap@@@@SAXPAVIsolate@v8@@@Z 1003e610 f i zoom_node_addon.obj
 0001:0003d6d0       ?Init@?$ZoomWrapObject@VZoomNodeCustomizedResourceWrap@@@@SAXPAVIsolate@v8@@@Z 1003e6d0 f i zoom_node_addon.obj
 0001:0003d790       ?Init@?$ZoomWrapObject@VZoomNodeDirectShareHelperWrap@@@@SAXPAVIsolate@v8@@@Z 1003e790 f i zoom_node_addon.obj
 0001:0003d850       ?Init@?$ZoomWrapObject@VZoomNodeMeetingAnnotationWrap@@@@SAXPAVIsolate@v8@@@Z 1003e850 f i zoom_node_addon.obj
 0001:0003d910       ?Init@?$ZoomWrapObject@VZoomNodeMeetingAudioCtrlWrap@@@@SAXPAVIsolate@v8@@@Z 1003e910 f i zoom_node_addon.obj
 0001:0003d9d0       ?Init@?$ZoomWrapObject@VZoomNodeMeetingConfigCtrlWrap@@@@SAXPAVIsolate@v8@@@Z 1003e9d0 f i zoom_node_addon.obj
 0001:0003da90       ?Init@?$ZoomWrapObject@VZoomNodeMeetingH323CtrlWrap@@@@SAXPAVIsolate@v8@@@Z 1003ea90 f i zoom_node_addon.obj
 0001:0003db50       ?Init@?$ZoomWrapObject@VZoomNodeMeetingInfoWrap@@@@SAXPAVIsolate@v8@@@Z 1003eb50 f i zoom_node_addon.obj
 0001:0003dc10       ?Init@?$ZoomWrapObject@VZoomNodeMeetingParticipantsCtrlWrap@@@@SAXPAVIsolate@v8@@@Z 1003ec10 f i zoom_node_addon.obj
 0001:0003dcd0       ?Init@?$ZoomWrapObject@VZoomNodeMeetingShareCtrlWrap@@@@SAXPAVIsolate@v8@@@Z 1003ecd0 f i zoom_node_addon.obj
 0001:0003dd90       ?Init@?$ZoomWrapObject@VZoomNodeMeetingUICtrlWrap@@@@SAXPAVIsolate@v8@@@Z 1003ed90 f i zoom_node_addon.obj
 0001:0003de50       ?Init@?$ZoomWrapObject@VZoomNodeMeetingVideoCtrlWrap@@@@SAXPAVIsolate@v8@@@Z 1003ee50 f i zoom_node_addon.obj
 0001:0003df10       ?Init@?$ZoomWrapObject@VZoomNodeMeetingWrap@@@@SAXPAVIsolate@v8@@@Z 1003ef10 f i zoom_node_addon.obj
 0001:0003dfd0       ?Init@?$ZoomWrapObject@VZoomNodePremeetingWrap@@@@SAXPAVIsolate@v8@@@Z 1003efd0 f i zoom_node_addon.obj
 0001:0003e090       ?Init@?$ZoomWrapObject@VZoomNodeRawDataLicenseWrap@@@@SAXPAVIsolate@v8@@@Z 1003f090 f i zoom_node_addon.obj
 0001:0003e150       ?Init@?$ZoomWrapObject@VZoomNodeSDKSMSHelperWrap@@@@SAXPAVIsolate@v8@@@Z 1003f150 f i zoom_node_addon.obj
 0001:0003e210       ?Init@?$ZoomWrapObject@VZoomNodeSettingAccessibilityCtrlWrap@@@@SAXPAVIsolate@v8@@@Z 1003f210 f i zoom_node_addon.obj
 0001:0003e2d0       ?Init@?$ZoomWrapObject@VZoomNodeSettingAudioCtrlWrap@@@@SAXPAVIsolate@v8@@@Z 1003f2d0 f i zoom_node_addon.obj
 0001:0003e390       ?Init@?$ZoomWrapObject@VZoomNodeSettingGeneralCtrlWrap@@@@SAXPAVIsolate@v8@@@Z 1003f390 f i zoom_node_addon.obj
 0001:0003e450       ?Init@?$ZoomWrapObject@VZoomNodeSettingRecordingCtrlWrap@@@@SAXPAVIsolate@v8@@@Z 1003f450 f i zoom_node_addon.obj
 0001:0003e510       ?Init@?$ZoomWrapObject@VZoomNodeSettingStatisticCtrlWrap@@@@SAXPAVIsolate@v8@@@Z 1003f510 f i zoom_node_addon.obj
 0001:0003e5d0       ?Init@?$ZoomWrapObject@VZoomNodeSettingUIStrategyCtrlWrap@@@@SAXPAVIsolate@v8@@@Z 1003f5d0 f i zoom_node_addon.obj
 0001:0003e690       ?Init@?$ZoomWrapObject@VZoomNodeSettingVideoCtrlWrap@@@@SAXPAVIsolate@v8@@@Z 1003f690 f i zoom_node_addon.obj
 0001:0003e750       ?Init@?$ZoomWrapObject@VZoomNodeSettingWrap@@@@SAXPAVIsolate@v8@@@Z 1003f750 f i zoom_node_addon.obj
 0001:0003e810       ?Init@?$ZoomWrapObject@VZoomNodeShareRawDataWrap@@@@SAXPAVIsolate@v8@@@Z 1003f810 f i zoom_node_addon.obj
 0001:0003e8d0       ?Init@?$ZoomWrapObject@VZoomNodeVideoRawDataWrap@@@@SAXPAVIsolate@v8@@@Z 1003f8d0 f i zoom_node_addon.obj
 0001:0003e990       ?Init@?$ZoomWrapObject@VZoomNodeWrap@@@@SAXPAVIsolate@v8@@@Z 1003f990 f i zoom_node_addon.obj
 0001:0003ea50       ?InitSDK@ZoomNodeWrap@@SAXABV?$FunctionCallbackInfo@VValue@v8@@@v8@@@Z 1003fa50 f   zoom_node_addon.obj
 0001:0003eec0       ?IsDisplayingShareViewOrVideo@ZoomNodeMeetingUICtrlWrap@@SAXABV?$FunctionCallbackInfo@VValue@v8@@@v8@@@Z 1003fec0 f   zoom_node_addon.obj
 0001:0003f050       ?IsMinimizeModeOfFristScreenMeetingUIWnd@ZoomNodeMeetingUICtrlWrap@@SAXABV?$FunctionCallbackInfo@VValue@v8@@@v8@@@Z 10040050 f   zoom_node_addon.obj
 0001:0003f1e0       ?Join@ZoomNodeMeetingWrap@@SAXABV?$FunctionCallbackInfo@VValue@v8@@@v8@@@Z 100401e0 f   zoom_node_addon.obj
 0001:0003f7c0       ?Join_WithoutLogin@ZoomNodeMeetingWrap@@SAXABV?$FunctionCallbackInfo@VValue@v8@@@v8@@@Z 100407c0 f   zoom_node_addon.obj
 0001:0003fe10       ?Leave@ZoomNodeMeetingWrap@@SAXABV?$FunctionCallbackInfo@VValue@v8@@@v8@@@Z 10040e10 f   zoom_node_addon.obj
 0001:0003ff90       ?ListMeeting@ZoomNodePremeetingWrap@@SAXABV?$FunctionCallbackInfo@VValue@v8@@@v8@@@Z 10040f90 f   zoom_node_addon.obj
 0001:0003fff0       ?Lock@ZoomNodeMeetingWrap@@SAXABV?$FunctionCallbackInfo@VValue@v8@@@v8@@@Z 10040ff0 f   zoom_node_addon.obj
 0001:00040050       ?Login@ZoomNodeAuthWrap@@SAXABV?$FunctionCallbackInfo@VValue@v8@@@v8@@@Z 10041050 f   zoom_node_addon.obj
 0001:00040320       ?LoginWithSSOToken@ZoomNodeAuthWrap@@SAXABV?$FunctionCallbackInfo@VValue@v8@@@v8@@@Z 10041320 f   zoom_node_addon.obj
 0001:00040590       ?Logout@ZoomNodeAuthWrap@@SAXABV?$FunctionCallbackInfo@VValue@v8@@@v8@@@Z 10041590 f   zoom_node_addon.obj
 0001:000405f0       ?MoveFloatVideoWnd@ZoomNodeMeetingUICtrlWrap@@SAXABV?$FunctionCallbackInfo@VValue@v8@@@v8@@@Z 100415f0 f   zoom_node_addon.obj
 0001:000408f0       ?NODE_SET_METHOD@node@@YAXV?$Local@VObject@v8@@@v8@@PBDP6AXABV?$FunctionCallbackInfo@VValue@v8@@@3@@Z@Z 100418f0 f i zoom_node_addon.obj
 0001:000409f0       ?NODE_SET_PROTOTYPE_METHOD@node@@YAXV?$Local@VFunctionTemplate@v8@@@v8@@PBDP6AXABV?$FunctionCallbackInfo@VValue@v8@@@3@@Z@Z 100419f0 f i zoom_node_addon.obj
 0001:00040ad0       ?New@?$ZoomWrapObject@VZoomNodeAudioRawDataWrap@@@@SAXABV?$FunctionCallbackInfo@VValue@v8@@@v8@@@Z 10041ad0 f i zoom_node_addon.obj
 0001:00040c20       ?New@?$ZoomWrapObject@VZoomNodeAuthWrap@@@@SAXABV?$FunctionCallbackInfo@VValue@v8@@@v8@@@Z 10041c20 f i zoom_node_addon.obj
 0001:00040da0       ?New@?$ZoomWrapObject@VZoomNodeCustomizedResourceWrap@@@@SAXABV?$FunctionCallbackInfo@VValue@v8@@@v8@@@Z 10041da0 f i zoom_node_addon.obj
 0001:00040ef0       ?New@?$ZoomWrapObject@VZoomNodeDirectShareHelperWrap@@@@SAXABV?$FunctionCallbackInfo@VValue@v8@@@v8@@@Z 10041ef0 f i zoom_node_addon.obj
 0001:00041040       ?New@?$ZoomWrapObject@VZoomNodeMeetingAnnotationWrap@@@@SAXABV?$FunctionCallbackInfo@VValue@v8@@@v8@@@Z 10042040 f i zoom_node_addon.obj
 0001:000411a0       ?New@?$ZoomWrapObject@VZoomNodeMeetingAudioCtrlWrap@@@@SAXABV?$FunctionCallbackInfo@VValue@v8@@@v8@@@Z 100421a0 f i zoom_node_addon.obj
 0001:000412f0       ?New@?$ZoomWrapObject@VZoomNodeMeetingConfigCtrlWrap@@@@SAXABV?$FunctionCallbackInfo@VValue@v8@@@v8@@@Z 100422f0 f i zoom_node_addon.obj
 0001:00041440       ?New@?$ZoomWrapObject@VZoomNodeMeetingH323CtrlWrap@@@@SAXABV?$FunctionCallbackInfo@VValue@v8@@@v8@@@Z 10042440 f i zoom_node_addon.obj
 0001:00041590       ?New@?$ZoomWrapObject@VZoomNodeMeetingInfoWrap@@@@SAXABV?$FunctionCallbackInfo@VValue@v8@@@v8@@@Z 10042590 f i zoom_node_addon.obj
 0001:000416f0       ?New@?$ZoomWrapObject@VZoomNodeMeetingParticipantsCtrlWrap@@@@SAXABV?$FunctionCallbackInfo@VValue@v8@@@v8@@@Z 100426f0 f i zoom_node_addon.obj
 0001:00041840       ?New@?$ZoomWrapObject@VZoomNodeMeetingShareCtrlWrap@@@@SAXABV?$FunctionCallbackInfo@VValue@v8@@@v8@@@Z 10042840 f i zoom_node_addon.obj
 0001:00041990       ?New@?$ZoomWrapObject@VZoomNodeMeetingUICtrlWrap@@@@SAXABV?$FunctionCallbackInfo@VValue@v8@@@v8@@@Z 10042990 f i zoom_node_addon.obj
 0001:00041b10       ?New@?$ZoomWrapObject@VZoomNodeMeetingVideoCtrlWrap@@@@SAXABV?$FunctionCallbackInfo@VValue@v8@@@v8@@@Z 10042b10 f i zoom_node_addon.obj
 0001:00041c60       ?New@?$ZoomWrapObject@VZoomNodeMeetingWrap@@@@SAXABV?$FunctionCallbackInfo@VValue@v8@@@v8@@@Z 10042c60 f i zoom_node_addon.obj
 0001:00041de0       ?New@?$ZoomWrapObject@VZoomNodePremeetingWrap@@@@SAXABV?$FunctionCallbackInfo@VValue@v8@@@v8@@@Z 10042de0 f i zoom_node_addon.obj
 0001:00041f60       ?New@?$ZoomWrapObject@VZoomNodeRawDataLicenseWrap@@@@SAXABV?$FunctionCallbackInfo@VValue@v8@@@v8@@@Z 10042f60 f i zoom_node_addon.obj
 0001:000420b0       ?New@?$ZoomWrapObject@VZoomNodeSDKSMSHelperWrap@@@@SAXABV?$FunctionCallbackInfo@VValue@v8@@@v8@@@Z 100430b0 f i zoom_node_addon.obj
 0001:00042200       ?New@?$ZoomWrapObject@VZoomNodeSettingAccessibilityCtrlWrap@@@@SAXABV?$FunctionCallbackInfo@VValue@v8@@@v8@@@Z 10043200 f i zoom_node_addon.obj
 0001:00042350       ?New@?$ZoomWrapObject@VZoomNodeSettingAudioCtrlWrap@@@@SAXABV?$FunctionCallbackInfo@VValue@v8@@@v8@@@Z 10043350 f i zoom_node_addon.obj
 0001:000424a0       ?New@?$ZoomWrapObject@VZoomNodeSettingGeneralCtrlWrap@@@@SAXABV?$FunctionCallbackInfo@VValue@v8@@@v8@@@Z 100434a0 f i zoom_node_addon.obj
 0001:000425f0       ?New@?$ZoomWrapObject@VZoomNodeSettingRecordingCtrlWrap@@@@SAXABV?$FunctionCallbackInfo@VValue@v8@@@v8@@@Z 100435f0 f i zoom_node_addon.obj
 0001:00042740       ?New@?$ZoomWrapObject@VZoomNodeSettingStatisticCtrlWrap@@@@SAXABV?$FunctionCallbackInfo@VValue@v8@@@v8@@@Z 10043740 f i zoom_node_addon.obj
 0001:00042890       ?New@?$ZoomWrapObject@VZoomNodeSettingUIStrategyCtrlWrap@@@@SAXABV?$FunctionCallbackInfo@VValue@v8@@@v8@@@Z 10043890 f i zoom_node_addon.obj
 0001:000429e0       ?New@?$ZoomWrapObject@VZoomNodeSettingVideoCtrlWrap@@@@SAXABV?$FunctionCallbackInfo@VValue@v8@@@v8@@@Z 100439e0 f i zoom_node_addon.obj
 0001:00042b30       ?New@?$ZoomWrapObject@VZoomNodeSettingWrap@@@@SAXABV?$FunctionCallbackInfo@VValue@v8@@@v8@@@Z 10043b30 f i zoom_node_addon.obj
 0001:00042c90       ?New@?$ZoomWrapObject@VZoomNodeShareRawDataWrap@@@@SAXABV?$FunctionCallbackInfo@VValue@v8@@@v8@@@Z 10043c90 f i zoom_node_addon.obj
 0001:00042de0       ?New@?$ZoomWrapObject@VZoomNodeVideoRawDataWrap@@@@SAXABV?$FunctionCallbackInfo@VValue@v8@@@v8@@@Z 10043de0 f i zoom_node_addon.obj
 0001:00042f30       ?New@?$ZoomWrapObject@VZoomNodeWrap@@@@SAXABV?$FunctionCallbackInfo@VValue@v8@@@v8@@@Z 10043f30 f i zoom_node_addon.obj
 0001:00043090       ?NewInstance@?$ZoomWrapObject@VZoomNodeAudioRawDataWrap@@@@SAXABV?$FunctionCallbackInfo@VValue@v8@@@v8@@@Z 10044090 f i zoom_node_addon.obj
 0001:00043140       ?NewInstance@?$ZoomWrapObject@VZoomNodeAuthWrap@@@@SAXABV?$FunctionCallbackInfo@VValue@v8@@@v8@@@Z 10044140 f i zoom_node_addon.obj
 0001:000431f0       ?NewInstance@?$ZoomWrapObject@VZoomNodeCustomizedResourceWrap@@@@SAXABV?$FunctionCallbackInfo@VValue@v8@@@v8@@@Z 100441f0 f i zoom_node_addon.obj
 0001:000432a0       ?NewInstance@?$ZoomWrapObject@VZoomNodeDirectShareHelperWrap@@@@SAXABV?$FunctionCallbackInfo@VValue@v8@@@v8@@@Z 100442a0 f i zoom_node_addon.obj
 0001:00043350       ?NewInstance@?$ZoomWrapObject@VZoomNodeMeetingAnnotationWrap@@@@SAXABV?$FunctionCallbackInfo@VValue@v8@@@v8@@@Z 10044350 f i zoom_node_addon.obj
 0001:00043400       ?NewInstance@?$ZoomWrapObject@VZoomNodeMeetingAudioCtrlWrap@@@@SAXABV?$FunctionCallbackInfo@VValue@v8@@@v8@@@Z 10044400 f i zoom_node_addon.obj
 0001:000434b0       ?NewInstance@?$ZoomWrapObject@VZoomNodeMeetingConfigCtrlWrap@@@@SAXABV?$FunctionCallbackInfo@VValue@v8@@@v8@@@Z 100444b0 f i zoom_node_addon.obj
 0001:00043560       ?NewInstance@?$ZoomWrapObject@VZoomNodeMeetingH323CtrlWrap@@@@SAXABV?$FunctionCallbackInfo@VValue@v8@@@v8@@@Z 10044560 f i zoom_node_addon.obj
 0001:00043610       ?NewInstance@?$ZoomWrapObject@VZoomNodeMeetingInfoWrap@@@@SAXABV?$FunctionCallbackInfo@VValue@v8@@@v8@@@Z 10044610 f i zoom_node_addon.obj
 0001:000436c0       ?NewInstance@?$ZoomWrapObject@VZoomNodeMeetingParticipantsCtrlWrap@@@@SAXABV?$FunctionCallbackInfo@VValue@v8@@@v8@@@Z 100446c0 f i zoom_node_addon.obj
 0001:00043770       ?NewInstance@?$ZoomWrapObject@VZoomNodeMeetingShareCtrlWrap@@@@SAXABV?$FunctionCallbackInfo@VValue@v8@@@v8@@@Z 10044770 f i zoom_node_addon.obj
 0001:00043820       ?NewInstance@?$ZoomWrapObject@VZoomNodeMeetingUICtrlWrap@@@@SAXABV?$FunctionCallbackInfo@VValue@v8@@@v8@@@Z 10044820 f i zoom_node_addon.obj
 0001:000438d0       ?NewInstance@?$ZoomWrapObject@VZoomNodeMeetingVideoCtrlWrap@@@@SAXABV?$FunctionCallbackInfo@VValue@v8@@@v8@@@Z 100448d0 f i zoom_node_addon.obj
 0001:00043980       ?NewInstance@?$ZoomWrapObject@VZoomNodeMeetingWrap@@@@SAXABV?$FunctionCallbackInfo@VValue@v8@@@v8@@@Z 10044980 f i zoom_node_addon.obj
 0001:00043a30       ?NewInstance@?$ZoomWrapObject@VZoomNodePremeetingWrap@@@@SAXABV?$FunctionCallbackInfo@VValue@v8@@@v8@@@Z 10044a30 f i zoom_node_addon.obj
 0001:00043ae0       ?NewInstance@?$ZoomWrapObject@VZoomNodeRawDataLicenseWrap@@@@SAXABV?$FunctionCallbackInfo@VValue@v8@@@v8@@@Z 10044ae0 f i zoom_node_addon.obj
 0001:00043b90       ?NewInstance@?$ZoomWrapObject@VZoomNodeSDKSMSHelperWrap@@@@SAXABV?$FunctionCallbackInfo@VValue@v8@@@v8@@@Z 10044b90 f i zoom_node_addon.obj
 0001:00043c40       ?NewInstance@?$ZoomWrapObject@VZoomNodeSettingAccessibilityCtrlWrap@@@@SAXABV?$FunctionCallbackInfo@VValue@v8@@@v8@@@Z 10044c40 f i zoom_node_addon.obj
 0001:00043cf0       ?NewInstance@?$ZoomWrapObject@VZoomNodeSettingAudioCtrlWrap@@@@SAXABV?$FunctionCallbackInfo@VValue@v8@@@v8@@@Z 10044cf0 f i zoom_node_addon.obj
 0001:00043da0       ?NewInstance@?$ZoomWrapObject@VZoomNodeSettingGeneralCtrlWrap@@@@SAXABV?$FunctionCallbackInfo@VValue@v8@@@v8@@@Z 10044da0 f i zoom_node_addon.obj
 0001:00043e50       ?NewInstance@?$ZoomWrapObject@VZoomNodeSettingRecordingCtrlWrap@@@@SAXABV?$FunctionCallbackInfo@VValue@v8@@@v8@@@Z 10044e50 f i zoom_node_addon.obj
 0001:00043f00       ?NewInstance@?$ZoomWrapObject@VZoomNodeSettingStatisticCtrlWrap@@@@SAXABV?$FunctionCallbackInfo@VValue@v8@@@v8@@@Z 10044f00 f i zoom_node_addon.obj
 0001:00043fb0       ?NewInstance@?$ZoomWrapObject@VZoomNodeSettingUIStrategyCtrlWrap@@@@SAXABV?$FunctionCallbackInfo@VValue@v8@@@v8@@@Z 10044fb0 f i zoom_node_addon.obj
 0001:00044060       ?NewInstance@?$ZoomWrapObject@VZoomNodeSettingVideoCtrlWrap@@@@SAXABV?$FunctionCallbackInfo@VValue@v8@@@v8@@@Z 10045060 f i zoom_node_addon.obj
 0001:00044110       ?NewInstance@?$ZoomWrapObject@VZoomNodeSettingWrap@@@@SAXABV?$FunctionCallbackInfo@VValue@v8@@@v8@@@Z 10045110 f i zoom_node_addon.obj
 0001:000441c0       ?NewInstance@?$ZoomWrapObject@VZoomNodeShareRawDataWrap@@@@SAXABV?$FunctionCallbackInfo@VValue@v8@@@v8@@@Z 100451c0 f i zoom_node_addon.obj
 0001:00044270       ?NewInstance@?$ZoomWrapObject@VZoomNodeVideoRawDataWrap@@@@SAXABV?$FunctionCallbackInfo@VValue@v8@@@v8@@@Z 10045270 f i zoom_node_addon.obj
 0001:00044320       ?NewInstance@?$ZoomWrapObject@VZoomNodeWrap@@@@SAXABV?$FunctionCallbackInfo@VValue@v8@@@v8@@@Z 10045320 f i zoom_node_addon.obj
 0001:000443d0       ?OnDirectShareStatusUpdate@ZNativeSDKDirectShareHelperWrapSink@@UAEXW4ZNDirectShareStatus@@@Z 100453d0 f i zoom_node_addon.obj
 0001:00044510       ?Ref@ObjectWrap@node@@MAEXXZ 10045510 f i zoom_node_addon.obj
 0001:00044550       ?ScheduleMeeting@ZoomNodePremeetingWrap@@SAXABV?$FunctionCallbackInfo@VValue@v8@@@v8@@@Z 10045550 f   zoom_node_addon.obj
 0001:000445b0       ?ScheduleMeetingWithWndParams@ZoomNodePremeetingWrap@@SAXABV?$FunctionCallbackInfo@VValue@v8@@@v8@@@Z 100455b0 f   zoom_node_addon.obj
 0001:000448e0       ?SetInviteButtonClickedCB@ZoomNodeMeetingUICtrlWrap@@SAXABV?$FunctionCallbackInfo@VValue@v8@@@v8@@@Z 100458e0 f   zoom_node_addon.obj
 0001:00044ae0       ?SetLoginCB@ZoomNodeAuthWrap@@SAXABV?$FunctionCallbackInfo@VValue@v8@@@v8@@@Z 10045ae0 f   zoom_node_addon.obj
 0001:00044ce0       ?SetLogoutCB@ZoomNodeAuthWrap@@SAXABV?$FunctionCallbackInfo@VValue@v8@@@v8@@@Z 10045ce0 f   zoom_node_addon.obj
 0001:00044ee0       ?SetMeetingStatusCB@ZoomNodeMeetingWrap@@SAXABV?$FunctionCallbackInfo@VValue@v8@@@v8@@@Z 10045ee0 f   zoom_node_addon.obj
 0001:000450e0       ?SetOnAuthReturnCB@ZoomNodeAuthWrap@@SAXABV?$FunctionCallbackInfo@VValue@v8@@@v8@@@Z 100460e0 f   zoom_node_addon.obj
 0001:000452e0       ?SetOnDeleteMeetingCB@ZoomNodePremeetingWrap@@SAXABV?$FunctionCallbackInfo@VValue@v8@@@v8@@@Z 100462e0 f   zoom_node_addon.obj
 0001:000454e0       ?SetOnListMeetingCB@ZoomNodePremeetingWrap@@SAXABV?$FunctionCallbackInfo@VValue@v8@@@v8@@@Z 100464e0 f   zoom_node_addon.obj
 0001:000456e0       ?SetOnScheduleOrEditMeetingCB@ZoomNodePremeetingWrap@@SAXABV?$FunctionCallbackInfo@VValue@v8@@@v8@@@Z 100466e0 f   zoom_node_addon.obj
 0001:000458e0       ?SetOnZoomAuthIdentityExpiredCB@ZoomNodeAuthWrap@@SAXABV?$FunctionCallbackInfo@VValue@v8@@@v8@@@Z 100468e0 f   zoom_node_addon.obj
 0001:00045ae0       ?SetOnZoomIdentityExpiredCB@ZoomNodeAuthWrap@@SAXABV?$FunctionCallbackInfo@VValue@v8@@@v8@@@Z 10046ae0 f   zoom_node_addon.obj
 0001:00045ce0       ?SetonAudioBTNClickedCB@ZoomNodeMeetingUICtrlWrap@@SAXABV?$FunctionCallbackInfo@VValue@v8@@@v8@@@Z 10046ce0 f   zoom_node_addon.obj
 0001:00045ee0       ?SetonAudioMenuBTNClickedCB@ZoomNodeMeetingUICtrlWrap@@SAXABV?$FunctionCallbackInfo@VValue@v8@@@v8@@@Z 10046ee0 f   zoom_node_addon.obj
 0001:000460e0       ?SetonCCBTNClickedCB@ZoomNodeMeetingUICtrlWrap@@SAXABV?$FunctionCallbackInfo@VValue@v8@@@v8@@@Z 100470e0 f   zoom_node_addon.obj
 0001:000462e0       ?SetonCustomLiveStreamMenuClickedCB@ZoomNodeMeetingUICtrlWrap@@SAXABV?$FunctionCallbackInfo@VValue@v8@@@v8@@@Z 100472e0 f   zoom_node_addon.obj
 0001:000464e0       ?SetonEndMeetingBtnClickedCB@ZoomNodeMeetingUICtrlWrap@@SAXABV?$FunctionCallbackInfo@VValue@v8@@@v8@@@Z 100474e0 f   zoom_node_addon.obj
 0001:000466e0       ?SetonParticipantListBtnClickedCB@ZoomNodeMeetingUICtrlWrap@@SAXABV?$FunctionCallbackInfo@VValue@v8@@@v8@@@Z 100476e0 f   zoom_node_addon.obj
 0001:000468e0       ?SetonStartShareBtnClickedCB@ZoomNodeMeetingUICtrlWrap@@SAXABV?$FunctionCallbackInfo@VValue@v8@@@v8@@@Z 100478e0 f   zoom_node_addon.obj
 0001:00046ae0       ?SetonZoomInviteDialogFailedCB@ZoomNodeMeetingUICtrlWrap@@SAXABV?$FunctionCallbackInfo@VValue@v8@@@v8@@@Z 10047ae0 f   zoom_node_addon.obj
 0001:00046ce0       ?ShowBottomFloatToolbarWnd@ZoomNodeMeetingUICtrlWrap@@SAXABV?$FunctionCallbackInfo@VValue@v8@@@v8@@@Z 10047ce0 f   zoom_node_addon.obj
 0001:00046e60       ?ShowChatDlg@ZoomNodeMeetingUICtrlWrap@@SAXABV?$FunctionCallbackInfo@VValue@v8@@@v8@@@Z 10047e60 f   zoom_node_addon.obj
 0001:00047200       ?ShowJoinAudioDlg@ZoomNodeMeetingUICtrlWrap@@SAXABV?$FunctionCallbackInfo@VValue@v8@@@v8@@@Z 10048200 f   zoom_node_addon.obj
 0001:00047260       ?ShowParticipantsListWnd@ZoomNodeMeetingUICtrlWrap@@SAXABV?$FunctionCallbackInfo@VValue@v8@@@v8@@@Z 10048260 f   zoom_node_addon.obj
 0001:000473e0       ?ShowPreOrNextPageVideo@ZoomNodeMeetingUICtrlWrap@@SAXABV?$FunctionCallbackInfo@VValue@v8@@@v8@@@Z 100483e0 f   zoom_node_addon.obj
 0001:00047560       ?ShowSettingDlg@ZoomNodeSettingWrap@@SAXABV?$FunctionCallbackInfo@VValue@v8@@@v8@@@Z 10048560 f   zoom_node_addon.obj
 0001:000478d0       ?ShowSharingFrameWindows@ZoomNodeMeetingUICtrlWrap@@SAXABV?$FunctionCallbackInfo@VValue@v8@@@v8@@@Z 100488d0 f   zoom_node_addon.obj
 0001:00047a50       ?ShowSharingToolbar@ZoomNodeMeetingUICtrlWrap@@SAXABV?$FunctionCallbackInfo@VValue@v8@@@v8@@@Z 10048a50 f   zoom_node_addon.obj
 0001:00047bd0       ?Start@ZoomNodeMeetingWrap@@SAXABV?$FunctionCallbackInfo@VValue@v8@@@v8@@@Z 10048bd0 f   zoom_node_addon.obj
 0001:00047fe0       ?Start_WithoutLogin@ZoomNodeMeetingWrap@@SAXABV?$FunctionCallbackInfo@VValue@v8@@@v8@@@Z 10048fe0 f   zoom_node_addon.obj
 0001:000486f0       ?SwapToShowShareViewOrVideo@ZoomNodeMeetingUICtrlWrap@@SAXABV?$FunctionCallbackInfo@VValue@v8@@@v8@@@Z 100496f0 f   zoom_node_addon.obj
 0001:00048870       ?SwitchFloatVideoToActiveSpkMod@ZoomNodeMeetingUICtrlWrap@@SAXABV?$FunctionCallbackInfo@VValue@v8@@@v8@@@Z 10049870 f   zoom_node_addon.obj
 0001:000488d0       ?SwitchFloatVideoToGalleryMod@ZoomNodeMeetingUICtrlWrap@@SAXABV?$FunctionCallbackInfo@VValue@v8@@@v8@@@Z 100498d0 f   zoom_node_addon.obj
 0001:00048930       ?SwitchMinimizeUIMode4FristScreenMeetingUIWnd@ZoomNodeMeetingUICtrlWrap@@SAXABV?$FunctionCallbackInfo@VValue@v8@@@v8@@@Z 10049930 f   zoom_node_addon.obj
 0001:00048aa0       ?SwitchSplitScreenMode@ZoomNodeMeetingUICtrlWrap@@SAXABV?$FunctionCallbackInfo@VValue@v8@@@v8@@@Z 10049aa0 f   zoom_node_addon.obj
 0001:00048c20       ?SwitchToVideoWall@ZoomNodeMeetingUICtrlWrap@@SAXABV?$FunctionCallbackInfo@VValue@v8@@@v8@@@Z 10049c20 f   zoom_node_addon.obj
 0001:00048c80       ?SwtichToAcitveSpeaker@ZoomNodeMeetingUICtrlWrap@@SAXABV?$FunctionCallbackInfo@VValue@v8@@@v8@@@Z 10049c80 f   zoom_node_addon.obj
 0001:00048ce0       ?Unlock@ZoomNodeMeetingWrap@@SAXABV?$FunctionCallbackInfo@VValue@v8@@@v8@@@Z 10049ce0 f   zoom_node_addon.obj
 0001:00048d40       ?Unref@ObjectWrap@node@@MAEXXZ 10049d40 f i zoom_node_addon.obj
 0001:00048de0       ?WeakCallback@ObjectWrap@node@@CAXABV?$WeakCallbackInfo@VObjectWrap@node@@@v8@@@Z 10049de0 f i zoom_node_addon.obj
 0001:00048e40       ?Wrap@ObjectWrap@node@@IAEXV?$Local@VObject@v8@@@v8@@@Z 10049e40 f i zoom_node_addon.obj
 0001:00048f10       ?onActiveSpeakerVideoUserChanged@ZNativeSDKMeetingVideoWrapSink@@UAEXI@Z 10049f10 f i zoom_node_addon.obj
 0001:00048fe0       ?onActiveVideoUserChanged@ZNativeSDKMeetingVideoWrapSink@@UAEXI@Z 10049fe0 f i zoom_node_addon.obj
 0001:000490b0       ?onAirPlayInstructionWndNotification@ZNativeSDKMeetingConfigWrapFreemeetingSink@@UAEX_NV?$basic_string@_WU?$char_traits@_W@std@@V?$allocator@_W@2@@std@@@Z 1004a0b0 f i zoom_node_addon.obj
 0001:00049240       ?onAudioBtnClicked@ZNativeSDKMeetingUICtrlWrapSink@@UAEXUtagZNAudioBtnClickedCallbackInfo@@@Z 1004a240 f i zoom_node_addon.obj
 0001:00049330       ?onAudioMenuBtnClicked@ZNativeSDKMeetingUICtrlWrapSink@@UAEXXZ 1004a330 f i zoom_node_addon.obj
 0001:000493e0       ?onAuthenticationReturn@ZNativeSDKAuthWrapSink@@UAEXW4ZNAuthResult@@@Z 1004a3e0 f i zoom_node_addon.obj
 0001:000494b0       ?onCCBTNClicked@ZNativeSDKMeetingUICtrlWrapSink@@UAEXXZ 1004a4b0 f i zoom_node_addon.obj
 0001:00049560       ?onComputerCamDeviceChanged@ZNativeSDKVideoSettingContextWrapSink@@UAEXV?$vector@U_ZNCameraInfo@@V?$allocator@U_ZNCameraInfo@@@std@@@std@@@Z 1004a560 f i zoom_node_addon.obj
 0001:00049ac0       ?onComputerMicDeviceChanged@ZNativeSDKAudioSettingContextWrapSink@@UAEXV?$vector@U_ZNMicInfo@@V?$allocator@U_ZNMicInfo@@@std@@@std@@@Z 1004aac0 f i zoom_node_addon.obj
 0001:0004a020       ?onComputerSpeakerDeviceChanged@ZNativeSDKAudioSettingContextWrapSink@@UAEXV?$vector@U_ZNSpeakerInfo@@V?$allocator@U_ZNSpeakerInfo@@@std@@@std@@@Z 1004b020 f i zoom_node_addon.obj
 0001:0004a580       ?onCustomLiveStreamMenuClicked@ZNativeSDKMeetingUICtrlWrapSink@@UAEXXZ 1004b580 f i zoom_node_addon.obj
 0001:0004a630       ?onDefaultCamDeviceChanged@ZNativeSDKVideoSettingContextWrapSink@@UAEXV?$basic_string@_WU?$char_traits@_W@std@@V?$allocator@_W@2@@std@@0@Z 1004b630 f i zoom_node_addon.obj
 0001:0004a840       ?onDefaultMicDeviceChanged@ZNativeSDKAudioSettingContextWrapSink@@UAEXV?$basic_string@_WU?$char_traits@_W@std@@V?$allocator@_W@2@@std@@0@Z 1004b840 f i zoom_node_addon.obj
 0001:0004aa50       ?onDefaultSpeakerDeviceChanged@ZNativeSDKAudioSettingContextWrapSink@@UAEXV?$basic_string@_WU?$char_traits@_W@std@@V?$allocator@_W@2@@std@@0@Z 1004ba50 f i zoom_node_addon.obj
 0001:0004ac60       ?onDeleteMeeting@ZNativeSDKPreMeetingWrapSink@@UAEXW4ZNPremeetingAPIResult@@@Z 1004bc60 f i zoom_node_addon.obj
 0001:0004ada0       ?onEndMeetingBtnClicked@ZNativeSDKMeetingUICtrlWrapSink@@UAEXXZ 1004bda0 f i zoom_node_addon.obj
 0001:0004ae50       ?onEndOtherMeetingToJoinMeetingNotification@ZNativeSDKMeetingConfigWrapFreemeetingSink@@UAEXXZ 1004be50 f i zoom_node_addon.obj
 0001:0004af00       ?onFreeMeetingNeedToUpgrade@ZNativeSDKMeetingConfigWrapFreemeetingSink@@UAEXW4ZNFreeMeetingNeedUpgradeType@@V?$basic_string@_WU?$char_traits@_W@std@@V?$allocator@_W@2@@std@@@Z 1004bf00 f i zoom_node_addon.obj
 0001:0004b140       ?onFreeMeetingRemainTime@ZNativeSDKMeetingConfigWrapFreemeetingSink@@UAEXI@Z 1004c140 f i zoom_node_addon.obj
 0001:0004b220       ?onFreeMeetingRemainTimeStopCountDown@ZNativeSDKMeetingConfigWrapFreemeetingSink@@UAEXXZ 1004c220 f i zoom_node_addon.obj
 0001:0004b2d0       ?onFreeMeetingUpgradeToGiftFreeTrialStart@ZNativeSDKMeetingConfigWrapFreemeetingSink@@UAEXXZ 1004c2d0 f i zoom_node_addon.obj
 0001:0004b380       ?onFreeMeetingUpgradeToGiftFreeTrialStop@ZNativeSDKMeetingConfigWrapFreemeetingSink@@UAEXXZ 1004c380 f i zoom_node_addon.obj
 0001:0004b430       ?onFreeMeetingUpgradeToProMeeting@ZNativeSDKMeetingConfigWrapFreemeetingSink@@UAEXXZ 1004c430 f i zoom_node_addon.obj
 0001:0004b4e0       ?onH323CalloutStatusNotify@ZNativeSDKMeetingH323WrapSink@@UAEXW4ZNH323CalloutStatus@@@Z 1004c4e0 f i zoom_node_addon.obj
 0001:0004b5b0       ?onHostChangeNotification@ZNativeSDKMeetingParticipantsWrapSink@@UAEXI@Z 1004c5b0 f i zoom_node_addon.obj
 0001:0004b680       ?onInputMeetingPasswordAndScreenNameNotification@ZNativeSDKMeetingConfigWrapFreemeetingSink@@UAEXXZ 1004c680 f i zoom_node_addon.obj
 0001:0004b730       ?onInviteBtnClicked@ZNativeSDKMeetingUICtrlWrapSink@@UAEXAA_N@Z 1004c730 f i zoom_node_addon.obj
 0001:0004b830       ?onListMeeting@ZNativeSDKPreMeetingWrapSink@@UAEXW4ZNPremeetingAPIResult@@V?$vector@_KV?$allocator@_K@std@@@std@@@Z 1004c830 f i zoom_node_addon.obj
 0001:0004bbf0       ?onLoginRet@ZNativeSDKAuthWrapSink@@UAEXW4ZNLOGINSTATUS@@@Z 1004cbf0 f i zoom_node_addon.obj
 0001:0004bcc0       ?onLogout@ZNativeSDKAuthWrapSink@@UAEXXZ 1004ccc0 f i zoom_node_addon.obj
 0001:0004bd70       ?onMeetingStatusChanged@ZNativeSDKMeetingWrapSink@@UAEXW4ZNMeetingStatus@@H@Z 1004cd70 f i zoom_node_addon.obj
 0001:0004be60       ?onNeedRealNameAuthMeetingNotification@ZNativeSDKSMSHelperWrapSink@@UAEXV?$vector@U_ZNZoomRealNameAuthCountryInfo@@V?$allocator@U_ZNZoomRealNameAuthCountryInfo@@@std@@@std@@V?$basic_string@_WU?$char_traits@_W@std@@V?$allocator@_W@2@@3@@Z 1004ce60 f i zoom_node_addon.obj
 0001:0004c5a0       ?onParticipantListBtnClicked@ZNativeSDKMeetingUICtrlWrapSink@@UAEXXZ 1004d5a0 f i zoom_node_addon.obj
 0001:0004c650       ?onRetrieveSMSVerificationCodeResultNotification@ZNativeSDKSMSHelperWrapSink@@UAEXW4ZNSMSVerificationCodeErr@@@Z 1004d650 f i zoom_node_addon.obj
 0001:0004c730       ?onScheduleOrEditMeeting@ZNativeSDKPreMeetingWrapSink@@UAEXW4ZNPremeetingAPIResult@@_K@Z 1004d730 f i zoom_node_addon.obj
 0001:0004c8f0       ?onSharingStatus@ZNativeSDKMeetingShareWrapSink@@UAEXW4ZNShareStatus@@I@Z 1004d8f0 f i zoom_node_addon.obj
 0001:0004caa0       ?onStartShareBtnClicked@ZNativeSDKMeetingUICtrlWrapSink@@UAEXXZ 1004daa0 f i zoom_node_addon.obj
 0001:0004cb50       ?onUserActiveAudioChange@ZNativeSDKMeetingAudioWrapSink@@UAEXV?$vector@IV?$allocator@I@std@@@std@@@Z 1004db50 f i zoom_node_addon.obj
 0001:0004ce00       ?onUserAudioStatusChange@ZNativeSDKMeetingAudioWrapSink@@UAEXV?$vector@U_ZNUserAudioStatus@@V?$allocator@U_ZNUserAudioStatus@@@std@@@std@@V?$basic_string@_WU?$char_traits@_W@std@@V?$allocator@_W@2@@3@@Z 1004de00 f i zoom_node_addon.obj
 0001:0004d160       ?onUserJoin@ZNativeSDKMeetingParticipantsWrapSink@@UAEXV?$vector@IV?$allocator@I@std@@@std@@V?$basic_string@_WU?$char_traits@_W@std@@V?$allocator@_W@2@@3@@Z 1004e160 f i zoom_node_addon.obj
 0001:0004d450       ?onUserLeft@ZNativeSDKMeetingParticipantsWrapSink@@UAEXV?$vector@IV?$allocator@I@std@@@std@@V?$basic_string@_WU?$char_traits@_W@std@@V?$allocator@_W@2@@3@@Z 1004e450 f i zoom_node_addon.obj
 0001:0004d740       ?onUserVideoStatusChange@ZNativeSDKMeetingVideoWrapSink@@UAEXIW4ZNVideoStatus@@@Z 1004e740 f i zoom_node_addon.obj
 0001:0004d8f0       ?onVerifySMSVerificationCodeResultNotification@ZNativeSDKSMSHelperWrapSink@@UAEXW4ZNSMSVerificationCodeErr@@@Z 1004e8f0 f i zoom_node_addon.obj
 0001:0004d9d0       ?onWebinarNeedRegisterNotification@ZNativeSDKMeetingConfigWrapFreemeetingSink@@UAEXXZ 1004e9d0 f i zoom_node_addon.obj
 0001:0004da80       ?onZoomAuthIdentityExpired@ZNativeSDKAuthWrapSink@@UAEXXZ 1004ea80 f i zoom_node_addon.obj
 0001:0004db30       ?onZoomIdentityExpired@ZNativeSDKAuthWrapSink@@UAEXXZ 1004eb30 f i zoom_node_addon.obj
 0001:0004dbe0       ?onZoomInviteDialogFailed@ZNativeSDKMeetingUICtrlWrapSink@@UAEXXZ 1004ebe0 f i zoom_node_addon.obj
 0001:0004dc90       ?Map2SDKDefine@@YA?AW4AnnotationClearType@ZOOMSDK@@W4ZNAnnotationClearType@@@Z 1004ec90 f   zoom_native_to_wrap.obj
 0001:0004dcc0       ?Map2SDKDefine@@YA?AW4AnnotationToolType@ZOOMSDK@@W4ZNAnnotationToolType@@@Z 1004ecc0 f   zoom_native_to_wrap.obj
 0001:0004de10       ?Map2SDKDefine@@YA?AW4H323DeviceType@ZOOMSDK@@W4ZNH323DeviceType@@@Z 1004ee10 f   zoom_native_to_wrap.obj
 0001:0004de60       ?Map2SDKDefine@@YA?AW4LeaveMeetingCmd@ZOOMSDK@@W4ZNLeaveMeetingCmd@@@Z 1004ee60 f   zoom_native_to_wrap.obj
 0001:0004de90       ?Map2SDKDefine@@YA?AW4SDKCustomizedStringType@ZOOMSDK@@W4ZNSDKCustomizedStringType@@@Z 1004ee90 f   zoom_native_to_wrap.obj
 0001:0004df20       ?Map2SDKDefine@@YA?AW4SDKCustomizedURLType@ZOOMSDK@@W4ZNSDKCustomizedURLType@@@Z 1004ef20 f   zoom_native_to_wrap.obj
 0001:0004df50       ?Map2SDKDefine@@YA?AW4SDKFloatVideoType@ZOOMSDK@@W4ZNSDKFloatVideoType@@@Z 1004ef50 f   zoom_native_to_wrap.obj
 0001:0004dfa0       ?Map2SDKDefine@@YA?AW4SDKMinimizeUIMode@ZOOMSDK@@W4ZNSDKMinimizeUIMode@@@Z 1004efa0 f   zoom_native_to_wrap.obj
 0001:0004dff0       ?Map2SDKDefine@@YA?AW4SDKUserType@ZOOMSDK@@W4ZNSDKUserType@@@Z 1004eff0 f   zoom_native_to_wrap.obj
 0001:0004e020       ?Map2SDKDefine@@YA?AW4SDKViewType@ZOOMSDK@@W4ZNSDKViewType@@@Z 1004f020 f   zoom_native_to_wrap.obj
 0001:0004e050       ?Map2SDKDefine@@YA?AW4SDK_APP_Locale@ZOOMSDK@@W4ZNSDK_APP_Locale@@@Z 1004f050 f   zoom_native_to_wrap.obj
 0001:0004e080       ?Map2SDKDefine@@YA?AW4SDK_LANGUAGE_ID@ZOOMSDK@@W4ZNSDK_LANGUAGE_ID@@@Z 1004f080 f   zoom_native_to_wrap.obj
 0001:0004e120       ?Map2SDKDefine@@YA?AW4SettingTabPage@ZOOMSDK@@W4ZNSettingTabPage@@@Z 1004f120 f   zoom_native_to_wrap.obj
 0001:0004e150       ?Map2SDKDefine@@YA?AW4ZoomUserType@ZOOMSDK@@W4ZNZoomUserType@@@Z 1004f150 f   zoom_native_to_wrap.obj
 0001:0004e1c0       ?Map2WrapDefine@@YA?AU_ZNAccountInfo@@PAVIAccountInfo@ZOOMSDK@@@Z 1004f1c0 f   zoom_native_to_wrap.obj
 0001:0004e270       ?Map2WrapDefine@@YA?AW4ZNAudioCallbackActionInfo@@W4AudioCallbackActionInfo@ZOOMSDK@@@Z 1004f270 f   zoom_native_to_wrap.obj
 0001:0004e2e0       ?Map2WrapDefine@@YA?AW4ZNAudioStatus@@W4AudioStatus@ZOOMSDK@@@Z 1004f2e0 f   zoom_native_to_wrap.obj
 0001:0004e350       ?Map2WrapDefine@@YA?AW4ZNAudioType@@W4AudioType@ZOOMSDK@@@Z 1004f350 f   zoom_native_to_wrap.obj
 0001:0004e3a0       ?Map2WrapDefine@@YA?AW4ZNAuthResult@@W4AuthResult@ZOOMSDK@@@Z 1004f3a0 f   zoom_native_to_wrap.obj
 0001:0004e430       ?Map2WrapDefine@@YA?AW4ZNConnectionQuality@@W4ConnectionQuality@ZOOMSDK@@@Z 1004f430 f   zoom_native_to_wrap.obj
 0001:0004e4a0       ?Map2WrapDefine@@YA?AW4ZNDirectShareStatus@@W4DirectShareStatusStatus_Enum@ZOOMSDK@@@Z 1004f4a0 f   zoom_native_to_wrap.obj
 0001:0004e520       ?Map2WrapDefine@@YA?AW4ZNFreeMeetingEndingReminderType@@W4FreeMeetingEndingReminderType@IFreeMeetingEndingReminderHandler@ZOOMSDK@@@Z 1004f520 f   zoom_native_to_wrap.obj
 0001:0004e590       ?Map2WrapDefine@@YA?AW4ZNFreeMeetingNeedUpgradeType@@W4FreeMeetingNeedUpgradeType@IMeetingConfigurationFreeMeetingEvent@ZOOMSDK@@@Z 1004f590 f   zoom_native_to_wrap.obj
 0001:0004e5c0       ?Map2WrapDefine@@YA?AW4ZNH323CalloutStatus@@W4H323CalloutStatus@ZOOMSDK@@@Z 1004f5c0 f   zoom_native_to_wrap.obj
 0001:0004e620       ?Map2WrapDefine@@YA?AW4ZNH323DeviceType@@W4H323DeviceType@ZOOMSDK@@@Z 1004f620 f   zoom_native_to_wrap.obj
 0001:0004e670       ?Map2WrapDefine@@YA?AW4ZNLOGINSTATUS@@W4LOGINSTATUS@ZOOMSDK@@@Z 1004f670 f   zoom_native_to_wrap.obj
 0001:0004e6c0       ?Map2WrapDefine@@YA?AW4ZNMeetingStatus@@W4MeetingStatus@ZOOMSDK@@@Z 1004f6c0 f   zoom_native_to_wrap.obj
 0001:0004e7b0       ?Map2WrapDefine@@YA?AW4ZNMeetingType@@W4MeetingType@ZOOMSDK@@@Z 1004f7b0 f   zoom_native_to_wrap.obj
 0001:0004e800       ?Map2WrapDefine@@YA?AW4ZNPremeetingAPIResult@@W4PremeetingAPIResult@ZOOMSDK@@@Z 1004f800 f   zoom_native_to_wrap.obj
 0001:0004e830       ?Map2WrapDefine@@YA?AW4ZNRequiredInfoType@@W4RequiredInfoType@IMeetingPasswordAndScreenNameHandler@ZOOMSDK@@@Z 1004f830 f   zoom_native_to_wrap.obj
 0001:0004e890       ?Map2WrapDefine@@YA?AW4ZNSDKError@@W4SDKError@ZOOMSDK@@@Z 1004f890 f   zoom_native_to_wrap.obj
 0001:0004e9f0       ?Map2WrapDefine@@YA?AW4ZNSMSVerificationCodeErr@@W4SMSVerificationCodeErr@@@Z 1004f9f0 f   zoom_native_to_wrap.obj
 0001:0004ea80       ?Map2WrapDefine@@YA?AW4ZNSettingConnectionType@@W4SettingConnectionType@ZOOMSDK@@@Z 1004fa80 f   zoom_native_to_wrap.obj
 0001:0004eaa0       ?Map2WrapDefine@@YA?AW4ZNSettingsNetWorkType@@W4SettingsNetWorkType@ZOOMSDK@@@Z 1004faa0 f   zoom_native_to_wrap.obj
 0001:0004eb10       ?Map2WrapDefine@@YA?AW4ZNShareStatus@@W4SharingStatus@ZOOMSDK@@@Z 1004fb10 f   zoom_native_to_wrap.obj
 0001:0004eb90       ?Map2WrapDefine@@YA?AW4ZNUserRole@@W4UserRole@ZOOMSDK@@@Z 1004fb90 f   zoom_native_to_wrap.obj
 0001:0004ec00       ?Map2WrapDefine@@YA?AW4ZNVideoStatus@@W4VideoStatus@ZOOMSDK@@@Z 1004fc00 f   zoom_native_to_wrap.obj
 0001:0004ec30       ?Map2WrapDefine@@YA?AW4ZNWebinarNeedRegisterType@@W4WebinarNeedRegisterType@IWebinarNeedRegisterHandler@ZOOMSDK@@@Z 1004fc30 f   zoom_native_to_wrap.obj
 0001:0004ec60       ?Str2WStr@@YA?AV?$basic_string@_WU?$char_traits@_W@std@@V?$allocator@_W@2@@std@@ABV?$basic_string@DU?$char_traits@D@std@@V?$allocator@D@2@@2@@Z 1004fc60 f   zoom_native_to_wrap.obj
 0001:0004ee00       ?assign@?$basic_string@DU?$char_traits@D@std@@V?$allocator@D@2@@std@@QAEAAV12@ABV12@II@Z 1004fe00 f i zoom_native_to_wrap.obj
 0001:0004ef50       ?assign@?$basic_string@DU?$char_traits@D@std@@V?$allocator@D@2@@std@@QAEAAV12@PBDI@Z 1004ff50 f i zoom_native_to_wrap.obj
 0001:0004f080       ?erase@?$basic_string@DU?$char_traits@D@std@@V?$allocator@D@2@@std@@QAEAAV12@II@Z 10050080 f i zoom_native_to_wrap.obj
 0001:0004f140       ?wStr2Str@@YA?AV?$basic_string@DU?$char_traits@D@std@@V?$allocator@D@2@@std@@ABV?$basic_string@_WU?$char_traits@_W@std@@V?$allocator@_W@2@@2@@Z 10050140 f   zoom_native_to_wrap.obj
 0001:0004f1f0       ?Clear@ZoomNodeMeetingAnnotationWrap@@SAXABV?$FunctionCallbackInfo@VValue@v8@@@v8@@@Z 100501f0 f   zoom_node_meeting_annotation.obj
 0001:0004f3d0       ?IsAnnoataionDisable@ZoomNodeMeetingAnnotationWrap@@SAXABV?$FunctionCallbackInfo@VValue@v8@@@v8@@@Z 100503d0 f   zoom_node_meeting_annotation.obj
 0001:0004f430       ?Redo@ZoomNodeMeetingAnnotationWrap@@SAXABV?$FunctionCallbackInfo@VValue@v8@@@v8@@@Z 10050430 f   zoom_node_meeting_annotation.obj
 0001:0004f5c0       ?SetColor@ZoomNodeMeetingAnnotationWrap@@SAXABV?$FunctionCallbackInfo@VValue@v8@@@v8@@@Z 100505c0 f   zoom_node_meeting_annotation.obj
 0001:0004f840       ?SetLineWidth@ZoomNodeMeetingAnnotationWrap@@SAXABV?$FunctionCallbackInfo@VValue@v8@@@v8@@@Z 10050840 f   zoom_node_meeting_annotation.obj
 0001:0004fac0       ?SetTool@ZoomNodeMeetingAnnotationWrap@@SAXABV?$FunctionCallbackInfo@VValue@v8@@@v8@@@Z 10050ac0 f   zoom_node_meeting_annotation.obj
 0001:0004fca0       ?StartAnnotation@ZoomNodeMeetingAnnotationWrap@@SAXABV?$FunctionCallbackInfo@VValue@v8@@@v8@@@Z 10050ca0 f   zoom_node_meeting_annotation.obj
 0001:0004ffe0       ?StopAnnotation@ZoomNodeMeetingAnnotationWrap@@SAXABV?$FunctionCallbackInfo@VValue@v8@@@v8@@@Z 10050fe0 f   zoom_node_meeting_annotation.obj
 0001:00050170       ?Undo@ZoomNodeMeetingAnnotationWrap@@SAXABV?$FunctionCallbackInfo@VValue@v8@@@v8@@@Z 10051170 f   zoom_node_meeting_annotation.obj
 0001:00050300       ??0ZoomNodeMeetingAudioCtrlWrap@@AAE@XZ 10051300 f   zoom_node_meeting_audio_ctrl.obj
 0001:00050350       ??1ZoomNodeMeetingAudioCtrlWrap@@EAE@XZ 10051350 f   zoom_node_meeting_audio_ctrl.obj
 0001:000503c0       ??_E?$ZoomWrapObject@VZoomNodeMeetingAudioCtrlWrap@@@@MAEPAXI@Z 100513c0 f i zoom_node_meeting_audio_ctrl.obj
 0001:000503c0       ??_G?$ZoomWrapObject@VZoomNodeMeetingAudioCtrlWrap@@@@MAEPAXI@Z 100513c0 f i zoom_node_meeting_audio_ctrl.obj
 0001:00050420       ??_EZoomNodeMeetingAudioCtrlWrap@@EAEPAXI@Z 10051420 f i zoom_node_meeting_audio_ctrl.obj
 0001:00050420       ??_GZoomNodeMeetingAudioCtrlWrap@@EAEPAXI@Z 10051420 f i zoom_node_meeting_audio_ctrl.obj
 0001:000504b0       ?JoinVoip@ZoomNodeMeetingAudioCtrlWrap@@SAXABV?$FunctionCallbackInfo@VValue@v8@@@v8@@@Z 100514b0 f   zoom_node_meeting_audio_ctrl.obj
 0001:00050510       ?LeaveVoip@ZoomNodeMeetingAudioCtrlWrap@@SAXABV?$FunctionCallbackInfo@VValue@v8@@@v8@@@Z 10051510 f   zoom_node_meeting_audio_ctrl.obj
 0001:00050570       ?MuteAudio@ZoomNodeMeetingAudioCtrlWrap@@SAXABV?$FunctionCallbackInfo@VValue@v8@@@v8@@@Z 10051570 f   zoom_node_meeting_audio_ctrl.obj
 0001:00050750       ?SetMeetingAudioStatusCB@ZoomNodeMeetingAudioCtrlWrap@@SAXABV?$FunctionCallbackInfo@VValue@v8@@@v8@@@Z 10051750 f   zoom_node_meeting_audio_ctrl.obj
 0001:00050950       ?SetUserActiveAudioChangeCB@ZoomNodeMeetingAudioCtrlWrap@@SAXABV?$FunctionCallbackInfo@VValue@v8@@@v8@@@Z 10051950 f   zoom_node_meeting_audio_ctrl.obj
 0001:00050b50       ?UnMuteAudio@ZoomNodeMeetingAudioCtrlWrap@@SAXABV?$FunctionCallbackInfo@VValue@v8@@@v8@@@Z 10051b50 f   zoom_node_meeting_audio_ctrl.obj
 0001:00050cc0       ??0ZoomNodeMeetingVideoCtrlWrap@@AAE@XZ 10051cc0 f   zoom_node_meeting_video_ctrl.obj
 0001:00050d10       ??1ZoomNodeMeetingVideoCtrlWrap@@EAE@XZ 10051d10 f   zoom_node_meeting_video_ctrl.obj
 0001:00050d80       ??_E?$ZoomWrapObject@VZoomNodeMeetingVideoCtrlWrap@@@@MAEPAXI@Z 10051d80 f i zoom_node_meeting_video_ctrl.obj
 0001:00050d80       ??_G?$ZoomWrapObject@VZoomNodeMeetingVideoCtrlWrap@@@@MAEPAXI@Z 10051d80 f i zoom_node_meeting_video_ctrl.obj
 0001:00050de0       ??_GZoomNodeMeetingVideoCtrlWrap@@EAEPAXI@Z 10051de0 f i zoom_node_meeting_video_ctrl.obj
 0001:00050de0       ??_EZoomNodeMeetingVideoCtrlWrap@@EAEPAXI@Z 10051de0 f i zoom_node_meeting_video_ctrl.obj
 0001:00050e70       ?HideOrShowNoVideoUserOnVideoWall@ZoomNodeMeetingVideoCtrlWrap@@SAXABV?$FunctionCallbackInfo@VValue@v8@@@v8@@@Z 10051e70 f   zoom_node_meeting_video_ctrl.obj
 0001:00050ff0       ?MuteVideo@ZoomNodeMeetingVideoCtrlWrap@@SAXABV?$FunctionCallbackInfo@VValue@v8@@@v8@@@Z 10051ff0 f   zoom_node_meeting_video_ctrl.obj
 0001:00051160       ?PinVideo@ZoomNodeMeetingVideoCtrlWrap@@SAXABV?$FunctionCallbackInfo@VValue@v8@@@v8@@@Z 10052160 f   zoom_node_meeting_video_ctrl.obj
 0001:00051390       ?SetActiveSpeakerVideoUserChangedCB@ZoomNodeMeetingVideoCtrlWrap@@SAXABV?$FunctionCallbackInfo@VValue@v8@@@v8@@@Z 10052390 f   zoom_node_meeting_video_ctrl.obj
 0001:00051590       ?SetActiveVideoUserChangedCB@ZoomNodeMeetingVideoCtrlWrap@@SAXABV?$FunctionCallbackInfo@VValue@v8@@@v8@@@Z 10052590 f   zoom_node_meeting_video_ctrl.obj
 0001:00051790       ?SetMeetingVideoStatusCB@ZoomNodeMeetingVideoCtrlWrap@@SAXABV?$FunctionCallbackInfo@VValue@v8@@@v8@@@Z 10052790 f   zoom_node_meeting_video_ctrl.obj
 0001:00051990       ?SpotlightVideo@ZoomNodeMeetingVideoCtrlWrap@@SAXABV?$FunctionCallbackInfo@VValue@v8@@@v8@@@Z 10052990 f   zoom_node_meeting_video_ctrl.obj
 0001:00051b60       ?UnMuteVideo@ZoomNodeMeetingVideoCtrlWrap@@SAXABV?$FunctionCallbackInfo@VValue@v8@@@v8@@@Z 10052b60 f   zoom_node_meeting_video_ctrl.obj
 0001:00051cd0       ??0ZoomNodeMeetingParticipantsCtrlWrap@@AAE@XZ 10052cd0 f   zoom_node_meeting_participants_ctrl.obj
 0001:00051d20       ??1ZoomNodeMeetingParticipantsCtrlWrap@@EAE@XZ 10052d20 f   zoom_node_meeting_participants_ctrl.obj
 0001:00051d70       ??1_ZNUserInfomation@@QAE@XZ 10052d70 f i zoom_node_meeting_participants_ctrl.obj
 0001:00051e10       ??4_ZNUserInfomation@@QAEAAU0@$$QAU0@@Z 10052e10 f i zoom_node_meeting_participants_ctrl.obj
 0001:00051f60       ??_G?$ZoomWrapObject@VZoomNodeMeetingParticipantsCtrlWrap@@@@MAEPAXI@Z 10052f60 f i zoom_node_meeting_participants_ctrl.obj
 0001:00051f60       ??_E?$ZoomWrapObject@VZoomNodeMeetingParticipantsCtrlWrap@@@@MAEPAXI@Z 10052f60 f i zoom_node_meeting_participants_ctrl.obj
 0001:00051fc0       ??_EZoomNodeMeetingParticipantsCtrlWrap@@EAEPAXI@Z 10052fc0 f i zoom_node_meeting_participants_ctrl.obj
 0001:00051fc0       ??_GZoomNodeMeetingParticipantsCtrlWrap@@EAEPAXI@Z 10052fc0 f i zoom_node_meeting_participants_ctrl.obj
 0001:00052020       ?GetParticipantsList@ZoomNodeMeetingParticipantsCtrlWrap@@SAXABV?$FunctionCallbackInfo@VValue@v8@@@v8@@@Z 10053020 f   zoom_node_meeting_participants_ctrl.obj
 0001:00052270       ?GetUserInfoByUserID@ZoomNodeMeetingParticipantsCtrlWrap@@SAXABV?$FunctionCallbackInfo@VValue@v8@@@v8@@@Z 10053270 f   zoom_node_meeting_participants_ctrl.obj
 0001:00052bc0       ?SetMeetingHostChangeCB@ZoomNodeMeetingParticipantsCtrlWrap@@SAXABV?$FunctionCallbackInfo@VValue@v8@@@v8@@@Z 10053bc0 f   zoom_node_meeting_participants_ctrl.obj
 0001:00052dc0       ?SetMeetingUserJoinCB@ZoomNodeMeetingParticipantsCtrlWrap@@SAXABV?$FunctionCallbackInfo@VValue@v8@@@v8@@@Z 10053dc0 f   zoom_node_meeting_participants_ctrl.obj
 0001:00052fc0       ?SetMeetingUserLeftCB@ZoomNodeMeetingParticipantsCtrlWrap@@SAXABV?$FunctionCallbackInfo@VValue@v8@@@v8@@@Z 10053fc0 f   zoom_node_meeting_participants_ctrl.obj
 0001:000531c0       ??0ZoomNodeMeetingShareCtrlWrap@@AAE@XZ 100541c0 f   zoom_node_meeting_share_ctrl.obj
 0001:00053210       ??1ZoomNodeMeetingShareCtrlWrap@@EAE@XZ 10054210 f   zoom_node_meeting_share_ctrl.obj
 0001:00053280       ??_G?$ZoomWrapObject@VZoomNodeMeetingShareCtrlWrap@@@@MAEPAXI@Z 10054280 f i zoom_node_meeting_share_ctrl.obj
 0001:00053280       ??_E?$ZoomWrapObject@VZoomNodeMeetingShareCtrlWrap@@@@MAEPAXI@Z 10054280 f i zoom_node_meeting_share_ctrl.obj
 0001:000532e0       ??_EZoomNodeMeetingShareCtrlWrap@@EAEPAXI@Z 100542e0 f i zoom_node_meeting_share_ctrl.obj
 0001:000532e0       ??_GZoomNodeMeetingShareCtrlWrap@@EAEPAXI@Z 100542e0 f i zoom_node_meeting_share_ctrl.obj
 0001:00053370       ?SetOnSharingStatusCB@ZoomNodeMeetingShareCtrlWrap@@SAXABV?$FunctionCallbackInfo@VValue@v8@@@v8@@@Z 10054370 f   zoom_node_meeting_share_ctrl.obj
 0001:00053570       ?StartAppShare@ZoomNodeMeetingShareCtrlWrap@@SAXABV?$FunctionCallbackInfo@VValue@v8@@@v8@@@Z 10054570 f   zoom_node_meeting_share_ctrl.obj
 0001:00053780       ?StartMonitorShare@ZoomNodeMeetingShareCtrlWrap@@SAXABV?$FunctionCallbackInfo@VValue@v8@@@v8@@@Z 10054780 f   zoom_node_meeting_share_ctrl.obj
 0001:00053990       ?StopShare@ZoomNodeMeetingShareCtrlWrap@@SAXABV?$FunctionCallbackInfo@VValue@v8@@@v8@@@Z 10054990 f   zoom_node_meeting_share_ctrl.obj
 0001:000539f0       ??0?$basic_string@_WU?$char_traits@_W@std@@V?$allocator@_W@2@@std@@QAE@ABV01@@Z 100549f0 f i zoom_node_meeting_h323_ctrl.obj
 0001:00053a30       ??0ZoomNodeMeetingH323CtrlWrap@@AAE@XZ 10054a30 f   zoom_node_meeting_h323_ctrl.obj
 0001:00053a80       ??1ZoomNodeMeetingH323CtrlWrap@@EAE@XZ 10054a80 f   zoom_node_meeting_h323_ctrl.obj
 0001:00053af0       ??_G?$ZoomWrapObject@VZoomNodeMeetingH323CtrlWrap@@@@MAEPAXI@Z 10054af0 f i zoom_node_meeting_h323_ctrl.obj
 0001:00053af0       ??_E?$ZoomWrapObject@VZoomNodeMeetingH323CtrlWrap@@@@MAEPAXI@Z 10054af0 f i zoom_node_meeting_h323_ctrl.obj
 0001:00053b50       ??_GZoomNodeMeetingH323CtrlWrap@@EAEPAXI@Z 10054b50 f i zoom_node_meeting_h323_ctrl.obj
 0001:00053b50       ??_EZoomNodeMeetingH323CtrlWrap@@EAEPAXI@Z 10054b50 f i zoom_node_meeting_h323_ctrl.obj
 0001:00053be0       ?CallOutH323@ZoomNodeMeetingH323CtrlWrap@@SAXABV?$FunctionCallbackInfo@VValue@v8@@@v8@@@Z 10054be0 f   zoom_node_meeting_h323_ctrl.obj
 0001:00053f60       ?CancelCallOutH323@ZoomNodeMeetingH323CtrlWrap@@SAXABV?$FunctionCallbackInfo@VValue@v8@@@v8@@@Z 10054f60 f   zoom_node_meeting_h323_ctrl.obj
 0001:00053fc0       ?GetCalloutH323DviceList@ZoomNodeMeetingH323CtrlWrap@@SAXABV?$FunctionCallbackInfo@VValue@v8@@@v8@@@Z 10054fc0 f   zoom_node_meeting_h323_ctrl.obj
 0001:00054560       ?GetH323Address@ZoomNodeMeetingH323CtrlWrap@@SAXABV?$FunctionCallbackInfo@VValue@v8@@@v8@@@Z 10055560 f   zoom_node_meeting_h323_ctrl.obj
 0001:00054880       ?GetH323Password@ZoomNodeMeetingH323CtrlWrap@@SAXABV?$FunctionCallbackInfo@VValue@v8@@@v8@@@Z 10055880 f   zoom_node_meeting_h323_ctrl.obj
 0001:00054a20       ?SetH323CallOutStatusCB@ZoomNodeMeetingH323CtrlWrap@@SAXABV?$FunctionCallbackInfo@VValue@v8@@@v8@@@Z 10055a20 f   zoom_node_meeting_h323_ctrl.obj
 0001:00054c20       ??0ZoomNodeMeetingConfigCtrlWrap@@AAE@XZ 10055c20 f   zoom_node_meeting_config_ctrl.obj
 0001:00054c70       ??1ZoomNodeMeetingConfigCtrlWrap@@EAE@XZ 10055c70 f   zoom_node_meeting_config_ctrl.obj
 0001:00054ce0       ??_G?$ZoomWrapObject@VZoomNodeMeetingConfigCtrlWrap@@@@MAEPAXI@Z 10055ce0 f i zoom_node_meeting_config_ctrl.obj
 0001:00054ce0       ??_E?$ZoomWrapObject@VZoomNodeMeetingConfigCtrlWrap@@@@MAEPAXI@Z 10055ce0 f i zoom_node_meeting_config_ctrl.obj
 0001:00054d40       ??_GZoomNodeMeetingConfigCtrlWrap@@EAEPAXI@Z 10055d40 f i zoom_node_meeting_config_ctrl.obj
 0001:00054d40       ??_EZoomNodeMeetingConfigCtrlWrap@@EAEPAXI@Z 10055d40 f i zoom_node_meeting_config_ctrl.obj
 0001:00054dd0       ?AlwaysShowIconOnTaskBar@ZoomNodeMeetingConfigCtrlWrap@@SAXABV?$FunctionCallbackInfo@VValue@v8@@@v8@@@Z 10055dd0 f   zoom_node_meeting_config_ctrl.obj
 0001:00054f50       ?CancelRegisterWebinarByEmail@ZoomNodeMeetingConfigCtrlWrap@@SAXABV?$FunctionCallbackInfo@VValue@v8@@@v8@@@Z 10055f50 f   zoom_node_meeting_config_ctrl.obj
 0001:00054fb0       ?CancelUpdate@ZoomNodeMeetingConfigCtrlWrap@@SAXABV?$FunctionCallbackInfo@VValue@v8@@@v8@@@Z 10055fb0 f   zoom_node_meeting_config_ctrl.obj
 0001:00055010       ?ConfigDSCP@ZoomNodeMeetingConfigCtrlWrap@@SAXABV?$FunctionCallbackInfo@VValue@v8@@@v8@@@Z 10056010 f   zoom_node_meeting_config_ctrl.obj
 0001:00055240       ?DisableAutoShowSelectJoinAudioDlgWhenJoinMeeting@ZoomNodeMeetingConfigCtrlWrap@@SAXABV?$FunctionCallbackInfo@VValue@v8@@@v8@@@Z 10056240 f   zoom_node_meeting_config_ctrl.obj
 0001:000553c0       ?DisableFreeMeetingRemainTimeNotify@ZoomNodeMeetingConfigCtrlWrap@@SAXABV?$FunctionCallbackInfo@VValue@v8@@@v8@@@Z 100563c0 f   zoom_node_meeting_config_ctrl.obj
 0001:00055540       ?DisablePopupMeetingWrongPSWDlg@ZoomNodeMeetingConfigCtrlWrap@@SAXABV?$FunctionCallbackInfo@VValue@v8@@@v8@@@Z 10056540 f   zoom_node_meeting_config_ctrl.obj
 0001:000556c0       ?DisableRemoteCtrlCopyPasteFeature@ZoomNodeMeetingConfigCtrlWrap@@SAXABV?$FunctionCallbackInfo@VValue@v8@@@v8@@@Z 100566c0 f   zoom_node_meeting_config_ctrl.obj
 0001:00055840       ?DisableShowJoinMeetingWnd@ZoomNodeMeetingConfigCtrlWrap@@SAXABV?$FunctionCallbackInfo@VValue@v8@@@v8@@@Z 10056840 f   zoom_node_meeting_config_ctrl.obj
 0001:000559c0       ?DisableSplitScreenModeUIElements@ZoomNodeMeetingConfigCtrlWrap@@SAXABV?$FunctionCallbackInfo@VValue@v8@@@v8@@@Z 100569c0 f   zoom_node_meeting_config_ctrl.obj
 0001:00055b40       ?DisableTopMostAttr4SettingDialog@ZoomNodeMeetingConfigCtrlWrap@@SAXABV?$FunctionCallbackInfo@VValue@v8@@@v8@@@Z 10056b40 f   zoom_node_meeting_config_ctrl.obj
 0001:00055cc0       ?DisableWaitingForHostDialog@ZoomNodeMeetingConfigCtrlWrap@@SAXABV?$FunctionCallbackInfo@VValue@v8@@@v8@@@Z 10056cc0 f   zoom_node_meeting_config_ctrl.obj
 0001:00055e40       ?EnableAirplayInstructionWindow@ZoomNodeMeetingConfigCtrlWrap@@SAXABV?$FunctionCallbackInfo@VValue@v8@@@v8@@@Z 10056e40 f   zoom_node_meeting_config_ctrl.obj
 0001:00055fc0       ?EnableApproveRemoteControlDlg@ZoomNodeMeetingConfigCtrlWrap@@SAXABV?$FunctionCallbackInfo@VValue@v8@@@v8@@@Z 10056fc0 f   zoom_node_meeting_config_ctrl.obj
 0001:00056140       ?EnableAudioButtonOnMeetingUI@ZoomNodeMeetingConfigCtrlWrap@@SAXABV?$FunctionCallbackInfo@VValue@v8@@@v8@@@Z 10057140 f   zoom_node_meeting_config_ctrl.obj
 0001:000562c0       ?EnableAutoAdjustMicVolumeWhenJoinAudio@ZoomNodeMeetingConfigCtrlWrap@@SAXABV?$FunctionCallbackInfo@VValue@v8@@@v8@@@Z 100572c0 f   zoom_node_meeting_config_ctrl.obj
 0001:00056440       ?EnableAutoAdjustSpeakerVolumeWhenJoinAudio@ZoomNodeMeetingConfigCtrlWrap@@SAXABV?$FunctionCallbackInfo@VValue@v8@@@v8@@@Z 10057440 f   zoom_node_meeting_config_ctrl.obj
 0001:000565c0       ?EnableAutoEndOtherMeetingWhenStartMeeting@ZoomNodeMeetingConfigCtrlWrap@@SAXABV?$FunctionCallbackInfo@VValue@v8@@@v8@@@Z 100575c0 f   zoom_node_meeting_config_ctrl.obj
 0001:00056740       ?EnableAutoHideJoinAudioDialog@ZoomNodeMeetingConfigCtrlWrap@@SAXABV?$FunctionCallbackInfo@VValue@v8@@@v8@@@Z 10057740 f   zoom_node_meeting_config_ctrl.obj
 0001:000568c0       ?EnableClaimHostFeature@ZoomNodeMeetingConfigCtrlWrap@@SAXABV?$FunctionCallbackInfo@VValue@v8@@@v8@@@Z 100578c0 f   zoom_node_meeting_config_ctrl.obj
 0001:00056a40       ?EnableDeclineRemoteControlResponseDlg@ZoomNodeMeetingConfigCtrlWrap@@SAXABV?$FunctionCallbackInfo@VValue@v8@@@v8@@@Z 10057a40 f   zoom_node_meeting_config_ctrl.obj
 0001:00056bc0       ?EnableEnterAndExitFullScreenButtonOnMeetingUI@ZoomNodeMeetingConfigCtrlWrap@@SAXABV?$FunctionCallbackInfo@VValue@v8@@@v8@@@Z 10057bc0 f   zoom_node_meeting_config_ctrl.obj
 0001:00056d40       ?EnableForceAutoStartMyVideoWhenJoinMeeting@ZoomNodeMeetingConfigCtrlWrap@@SAXABV?$FunctionCallbackInfo@VValue@v8@@@v8@@@Z 10057d40 f   zoom_node_meeting_config_ctrl.obj
 0001:00056ec0       ?EnableForceAutoStopMyVideoWhenJoinMeeting@ZoomNodeMeetingConfigCtrlWrap@@SAXABV?$FunctionCallbackInfo@VValue@v8@@@v8@@@Z 10057ec0 f   zoom_node_meeting_config_ctrl.obj
 0001:00057040       ?EnableGrabShareWithoutReminder@ZoomNodeMeetingConfigCtrlWrap@@SAXABV?$FunctionCallbackInfo@VValue@v8@@@v8@@@Z 10058040 f   zoom_node_meeting_config_ctrl.obj
 0001:000571c0       ?EnableHideFullPhoneNumber4PureCallinUser@ZoomNodeMeetingConfigCtrlWrap@@SAXABV?$FunctionCallbackInfo@VValue@v8@@@v8@@@Z 100581c0 f   zoom_node_meeting_config_ctrl.obj
 0001:00057340       ?EnableInputMeetingPasswordDlg@ZoomNodeMeetingConfigCtrlWrap@@SAXABV?$FunctionCallbackInfo@VValue@v8@@@v8@@@Z 10058340 f   zoom_node_meeting_config_ctrl.obj
 0001:000574c0       ?EnableInputMeetingScreenNameDlg@ZoomNodeMeetingConfigCtrlWrap@@SAXABV?$FunctionCallbackInfo@VValue@v8@@@v8@@@Z 100584c0 f   zoom_node_meeting_config_ctrl.obj
 0001:00057640       ?EnableInviteButtonOnMeetingUI@ZoomNodeMeetingConfigCtrlWrap@@SAXABV?$FunctionCallbackInfo@VValue@v8@@@v8@@@Z 10058640 f   zoom_node_meeting_config_ctrl.obj
 0001:000577c0       ?EnableLButtonDBClick4SwitchFullScreenMode@ZoomNodeMeetingConfigCtrlWrap@@SAXABV?$FunctionCallbackInfo@VValue@v8@@@v8@@@Z 100587c0 f   zoom_node_meeting_config_ctrl.obj
 0001:00057940       ?EnableLeaveMeetingOptionForHost@ZoomNodeMeetingConfigCtrlWrap@@SAXABV?$FunctionCallbackInfo@VValue@v8@@@v8@@@Z 10058940 f   zoom_node_meeting_config_ctrl.obj
 0001:00057ac0       ?EnableLengthLimitationOfMeetingNumber@ZoomNodeMeetingConfigCtrlWrap@@SAXABV?$FunctionCallbackInfo@VValue@v8@@@v8@@@Z 10058ac0 f   zoom_node_meeting_config_ctrl.obj
 0001:00057c40       ?EnableLocalRecordingConvertProgressBarDialog@ZoomNodeMeetingConfigCtrlWrap@@SAXABV?$FunctionCallbackInfo@VValue@v8@@@v8@@@Z 10058c40 f   zoom_node_meeting_config_ctrl.obj
 0001:00057dc0       ?EnableShareIOSDevice@ZoomNodeMeetingConfigCtrlWrap@@SAXABV?$FunctionCallbackInfo@VValue@v8@@@v8@@@Z 10058dc0 f   zoom_node_meeting_config_ctrl.obj
 0001:00057f40       ?EnableShareWhiteBoard@ZoomNodeMeetingConfigCtrlWrap@@SAXABV?$FunctionCallbackInfo@VValue@v8@@@v8@@@Z 10058f40 f   zoom_node_meeting_config_ctrl.obj
 0001:000580c0       ?EnableShowShareSwitchMultiToSingleConfirmDlg@ZoomNodeMeetingConfigCtrlWrap@@SAXABV?$FunctionCallbackInfo@VValue@v8@@@v8@@@Z 100590c0 f   zoom_node_meeting_config_ctrl.obj
 0001:00058240       ?EnableToolTipsShow@ZoomNodeMeetingConfigCtrlWrap@@SAXABV?$FunctionCallbackInfo@VValue@v8@@@v8@@@Z 10059240 f   zoom_node_meeting_config_ctrl.obj
 0001:000583c0       ?EnableVideoButtonOnMeetingUI@ZoomNodeMeetingConfigCtrlWrap@@SAXABV?$FunctionCallbackInfo@VValue@v8@@@v8@@@Z 100593c0 f   zoom_node_meeting_config_ctrl.obj
 0001:00058540       ?ForceDisableMultiShare@ZoomNodeMeetingConfigCtrlWrap@@SAXABV?$FunctionCallbackInfo@VValue@v8@@@v8@@@Z 10059540 f   zoom_node_meeting_config_ctrl.obj
 0001:000586c0       ?GetReminderType@ZoomNodeMeetingConfigCtrlWrap@@SAXABV?$FunctionCallbackInfo@VValue@v8@@@v8@@@Z 100596c0 f   zoom_node_meeting_config_ctrl.obj
 0001:00058720       ?GetRequiredInfoType@ZoomNodeMeetingConfigCtrlWrap@@SAXABV?$FunctionCallbackInfo@VValue@v8@@@v8@@@Z 10059720 f   zoom_node_meeting_config_ctrl.obj
 0001:00058780       ?GetWebinarNeedRegisterType@ZoomNodeMeetingConfigCtrlWrap@@SAXABV?$FunctionCallbackInfo@VValue@v8@@@v8@@@Z 10059780 f   zoom_node_meeting_config_ctrl.obj
 0001:000587e0       ?GetWebinarRegisterUrl@ZoomNodeMeetingConfigCtrlWrap@@SAXABV?$FunctionCallbackInfo@VValue@v8@@@v8@@@Z 100597e0 f   zoom_node_meeting_config_ctrl.obj
 0001:000588f0       ?HideChatItemOnMeetingUI@ZoomNodeMeetingConfigCtrlWrap@@SAXABV?$FunctionCallbackInfo@VValue@v8@@@v8@@@Z 100598f0 f   zoom_node_meeting_config_ctrl.obj
 0001:00058a70       ?HideCopyInvitationOnInviteWindow@ZoomNodeMeetingConfigCtrlWrap@@SAXABV?$FunctionCallbackInfo@VValue@v8@@@v8@@@Z 10059a70 f   zoom_node_meeting_config_ctrl.obj
 0001:00058bf0       ?HideCopyUrlOnInviteWindow@ZoomNodeMeetingConfigCtrlWrap@@SAXABV?$FunctionCallbackInfo@VValue@v8@@@v8@@@Z 10059bf0 f   zoom_node_meeting_config_ctrl.obj
 0001:00058d70       ?HideKeypadButtonOnMeetingWindow@ZoomNodeMeetingConfigCtrlWrap@@SAXABV?$FunctionCallbackInfo@VValue@v8@@@v8@@@Z 10059d70 f   zoom_node_meeting_config_ctrl.obj
 0001:00058ef0       ?HideMeetingInfoFromMeetingUITitle@ZoomNodeMeetingConfigCtrlWrap@@SAXABV?$FunctionCallbackInfo@VValue@v8@@@v8@@@Z 10059ef0 f   zoom_node_meeting_config_ctrl.obj
 0001:00059070       ?HidePollOnMeetingUI@ZoomNodeMeetingConfigCtrlWrap@@SAXABV?$FunctionCallbackInfo@VValue@v8@@@v8@@@Z 1005a070 f   zoom_node_meeting_config_ctrl.obj
 0001:000591f0       ?HideQAOnMeetingUI@ZoomNodeMeetingConfigCtrlWrap@@SAXABV?$FunctionCallbackInfo@VValue@v8@@@v8@@@Z 1005a1f0 f   zoom_node_meeting_config_ctrl.obj
 0001:00059370       ?HideRecordItemOnMeetingUI@ZoomNodeMeetingConfigCtrlWrap@@SAXABV?$FunctionCallbackInfo@VValue@v8@@@v8@@@Z 1005a370 f   zoom_node_meeting_config_ctrl.obj
 0001:000594f0       ?HideRemoteControlOnMeetingUI@ZoomNodeMeetingConfigCtrlWrap@@SAXABV?$FunctionCallbackInfo@VValue@v8@@@v8@@@Z 1005a4f0 f   zoom_node_meeting_config_ctrl.obj
 0001:00059670       ?HideSwitchCameraButton@ZoomNodeMeetingConfigCtrlWrap@@SAXABV?$FunctionCallbackInfo@VValue@v8@@@v8@@@Z 1005a670 f   zoom_node_meeting_config_ctrl.obj
 0001:000597f0       ?HideUpgradeFreeMeetingButton@ZoomNodeMeetingConfigCtrlWrap@@SAXABV?$FunctionCallbackInfo@VValue@v8@@@v8@@@Z 1005a7f0 f   zoom_node_meeting_config_ctrl.obj
 0001:00059970       ?HideUpgradeWarningMsgForFreeUserWhenSchedule@ZoomNodeMeetingConfigCtrlWrap@@SAXABV?$FunctionCallbackInfo@VValue@v8@@@v8@@@Z 1005a970 f   zoom_node_meeting_config_ctrl.obj
 0001:00059af0       ?InputMeetingIDAndScreenName@ZoomNodeMeetingConfigCtrlWrap@@SAXABV?$FunctionCallbackInfo@VValue@v8@@@v8@@@Z 1005aaf0 f   zoom_node_meeting_config_ctrl.obj
 0001:00059e00       ?InputMeetingPasswordAndScreenName@ZoomNodeMeetingConfigCtrlWrap@@SAXABV?$FunctionCallbackInfo@VValue@v8@@@v8@@@Z 1005ae00 f   zoom_node_meeting_config_ctrl.obj
 0001:0005a110       ?InputMeetingScreenName@ZoomNodeMeetingConfigCtrlWrap@@SAXABV?$FunctionCallbackInfo@VValue@v8@@@v8@@@Z 1005b110 f   zoom_node_meeting_config_ctrl.obj
 0001:0005a320       ?InputWebinarRegisterEmailAndScreenName@ZoomNodeMeetingConfigCtrlWrap@@SAXABV?$FunctionCallbackInfo@VValue@v8@@@v8@@@Z 1005b320 f   zoom_node_meeting_config_ctrl.obj
 0001:0005a630       ?MeetingPasswordAndScreenNameHandler_Cancel@ZoomNodeMeetingConfigCtrlWrap@@SAXABV?$FunctionCallbackInfo@VValue@v8@@@v8@@@Z 1005b630 f   zoom_node_meeting_config_ctrl.obj
 0001:0005a690       ?PrePopulateWebinarRegistrationInfo@ZoomNodeMeetingConfigCtrlWrap@@SAXABV?$FunctionCallbackInfo@VValue@v8@@@v8@@@Z 1005b690 f   zoom_node_meeting_config_ctrl.obj
 0001:0005a9a0       ?RedirectClickAudioBTNEvent@ZoomNodeMeetingConfigCtrlWrap@@SAXABV?$FunctionCallbackInfo@VValue@v8@@@v8@@@Z 1005b9a0 f   zoom_node_meeting_config_ctrl.obj
 0001:0005ab20       ?RedirectClickAudioMenuBTNEvent@ZoomNodeMeetingConfigCtrlWrap@@SAXABV?$FunctionCallbackInfo@VValue@v8@@@v8@@@Z 1005bb20 f   zoom_node_meeting_config_ctrl.obj
 0001:0005aca0       ?RedirectClickCCBTNEvent@ZoomNodeMeetingConfigCtrlWrap@@SAXABV?$FunctionCallbackInfo@VValue@v8@@@v8@@@Z 1005bca0 f   zoom_node_meeting_config_ctrl.obj
 0001:0005ae20       ?RedirectClickCustomLiveStreamMenuEvent@ZoomNodeMeetingConfigCtrlWrap@@SAXABV?$FunctionCallbackInfo@VValue@v8@@@v8@@@Z 1005be20 f   zoom_node_meeting_config_ctrl.obj
 0001:0005afa0       ?RedirectClickEndMeetingBTNEvent@ZoomNodeMeetingConfigCtrlWrap@@SAXABV?$FunctionCallbackInfo@VValue@v8@@@v8@@@Z 1005bfa0 f   zoom_node_meeting_config_ctrl.obj
 0001:0005b120       ?RedirectClickParticipantListBTNEvent@ZoomNodeMeetingConfigCtrlWrap@@SAXABV?$FunctionCallbackInfo@VValue@v8@@@v8@@@Z 1005c120 f   zoom_node_meeting_config_ctrl.obj
 0001:0005b2a0       ?RedirectClickShareBTNEvent@ZoomNodeMeetingConfigCtrlWrap@@SAXABV?$FunctionCallbackInfo@VValue@v8@@@v8@@@Z 1005c2a0 f   zoom_node_meeting_config_ctrl.obj
 0001:0005b420       ?RedirectEndOtherMeeting@ZoomNodeMeetingConfigCtrlWrap@@SAXABV?$FunctionCallbackInfo@VValue@v8@@@v8@@@Z 1005c420 f   zoom_node_meeting_config_ctrl.obj
 0001:0005b5a0       ?RedirectFreeMeetingEndingReminderDlg@ZoomNodeMeetingConfigCtrlWrap@@SAXABV?$FunctionCallbackInfo@VValue@v8@@@v8@@@Z 1005c5a0 f   zoom_node_meeting_config_ctrl.obj
 0001:0005b720       ?RedirectMeetingWarningMsg@ZoomNodeMeetingConfigCtrlWrap@@SAXABV?$FunctionCallbackInfo@VValue@v8@@@v8@@@Z 1005c720 f   zoom_node_meeting_config_ctrl.obj
 0001:0005b920       ?RedirectWebinarNeedRegister@ZoomNodeMeetingConfigCtrlWrap@@SAXABV?$FunctionCallbackInfo@VValue@v8@@@v8@@@Z 1005c920 f   zoom_node_meeting_config_ctrl.obj
 0001:0005baa0       ?ReleaseRegisterWebinarByUrl@ZoomNodeMeetingConfigCtrlWrap@@SAXABV?$FunctionCallbackInfo@VValue@v8@@@v8@@@Z 1005caa0 f   zoom_node_meeting_config_ctrl.obj
 0001:0005bb00       ?Reset@ZoomNodeMeetingConfigCtrlWrap@@SAXABV?$FunctionCallbackInfo@VValue@v8@@@v8@@@Z 1005cb00 f   zoom_node_meeting_config_ctrl.obj
 0001:0005bb60       ?SetAirPlayInstructionWndNotificationCB@ZoomNodeMeetingConfigCtrlWrap@@SAXABV?$FunctionCallbackInfo@VValue@v8@@@v8@@@Z 1005cb60 f   zoom_node_meeting_config_ctrl.obj
 0001:0005bd70       ?SetAlwaysShowMeetingIDOnTitle@ZoomNodeMeetingConfigCtrlWrap@@SAXABV?$FunctionCallbackInfo@VValue@v8@@@v8@@@Z 1005cd70 f   zoom_node_meeting_config_ctrl.obj
 0001:0005bef0       ?SetBottomFloatToolbarWndVisibility@ZoomNodeMeetingConfigCtrlWrap@@SAXABV?$FunctionCallbackInfo@VValue@v8@@@v8@@@Z 1005cef0 f   zoom_node_meeting_config_ctrl.obj
 0001:0005c070       ?SetDirectShareMonitorID@ZoomNodeMeetingConfigCtrlWrap@@SAXABV?$FunctionCallbackInfo@VValue@v8@@@v8@@@Z 1005d070 f   zoom_node_meeting_config_ctrl.obj
 0001:0005c280       ?SetFloatVideoPos@ZoomNodeMeetingConfigCtrlWrap@@SAXABV?$FunctionCallbackInfo@VValue@v8@@@v8@@@Z 1005d280 f   zoom_node_meeting_config_ctrl.obj
 0001:0005c5c0       ?SetFloatVideoWndVisibility@ZoomNodeMeetingConfigCtrlWrap@@SAXABV?$FunctionCallbackInfo@VValue@v8@@@v8@@@Z 1005d5c0 f   zoom_node_meeting_config_ctrl.obj
 0001:0005c740       ?SetFreeMeetingNeedToUpgradeCB@ZoomNodeMeetingConfigCtrlWrap@@SAXABV?$FunctionCallbackInfo@VValue@v8@@@v8@@@Z 1005d740 f   zoom_node_meeting_config_ctrl.obj
 0001:0005c940       ?SetFreeMeetingUpgradeToGiftFreeTrialStartCB@ZoomNodeMeetingConfigCtrlWrap@@SAXABV?$FunctionCallbackInfo@VValue@v8@@@v8@@@Z 1005d940 f   zoom_node_meeting_config_ctrl.obj
 0001:0005cb40       ?SetFreeMeetingUpgradeToGiftFreeTrialStopCB@ZoomNodeMeetingConfigCtrlWrap@@SAXABV?$FunctionCallbackInfo@VValue@v8@@@v8@@@Z 1005db40 f   zoom_node_meeting_config_ctrl.obj
 0001:0005cd40       ?SetFreeMeetingUpgradeToProMeetingCB@ZoomNodeMeetingConfigCtrlWrap@@SAXABV?$FunctionCallbackInfo@VValue@v8@@@v8@@@Z 1005dd40 f   zoom_node_meeting_config_ctrl.obj
 0001:0005cf40       ?SetInputMeetingPasswordAndScreenNameNotificationCB@ZoomNodeMeetingConfigCtrlWrap@@SAXABV?$FunctionCallbackInfo@VValue@v8@@@v8@@@Z 1005df40 f   zoom_node_meeting_config_ctrl.obj
 0001:0005d150       ?SetMaxDurationForOnlyHostInMeeting@ZoomNodeMeetingConfigCtrlWrap@@SAXABV?$FunctionCallbackInfo@VValue@v8@@@v8@@@Z 1005e150 f   zoom_node_meeting_config_ctrl.obj
 0001:0005d2c0       ?SetMeetingIDForMeetingUITitle@ZoomNodeMeetingConfigCtrlWrap@@SAXABV?$FunctionCallbackInfo@VValue@v8@@@v8@@@Z 1005e2c0 f   zoom_node_meeting_config_ctrl.obj
 0001:0005d490       ?SetMeetingUIPos@ZoomNodeMeetingConfigCtrlWrap@@SAXABV?$FunctionCallbackInfo@VValue@v8@@@v8@@@Z 1005e490 f   zoom_node_meeting_config_ctrl.obj
 0001:0005d7d0       ?SetSharingToolbarVisibility@ZoomNodeMeetingConfigCtrlWrap@@SAXABV?$FunctionCallbackInfo@VValue@v8@@@v8@@@Z 1005e7d0 f   zoom_node_meeting_config_ctrl.obj
 0001:0005d950       ?SetShowAudioUseComputerSoundChkbox@ZoomNodeMeetingConfigCtrlWrap@@SAXABV?$FunctionCallbackInfo@VValue@v8@@@v8@@@Z 1005e950 f   zoom_node_meeting_config_ctrl.obj
 0001:0005dad0       ?SetShowCallInTab@ZoomNodeMeetingConfigCtrlWrap@@SAXABV?$FunctionCallbackInfo@VValue@v8@@@v8@@@Z 1005ead0 f   zoom_node_meeting_config_ctrl.obj
 0001:0005dc50       ?SetShowCallMeTab@ZoomNodeMeetingConfigCtrlWrap@@SAXABV?$FunctionCallbackInfo@VValue@v8@@@v8@@@Z 1005ec50 f   zoom_node_meeting_config_ctrl.obj
 0001:0005ddd0       ?SetShowH323SubTabPage@ZoomNodeMeetingConfigCtrlWrap@@SAXABV?$FunctionCallbackInfo@VValue@v8@@@v8@@@Z 1005edd0 f   zoom_node_meeting_config_ctrl.obj
 0001:0005dfc0       ?SetShowInviteDlgTabPage@ZoomNodeMeetingConfigCtrlWrap@@SAXABV?$FunctionCallbackInfo@VValue@v8@@@v8@@@Z 1005efc0 f   zoom_node_meeting_config_ctrl.obj
 0001:0005e1b0       ?SetShowVideoOptimizeChkbox@ZoomNodeMeetingConfigCtrlWrap@@SAXABV?$FunctionCallbackInfo@VValue@v8@@@v8@@@Z 1005f1b0 f   zoom_node_meeting_config_ctrl.obj
 0001:0005e330       ?SetonEndOtherMeetingToJoinMeetingNotificationCB@ZoomNodeMeetingConfigCtrlWrap@@SAXABV?$FunctionCallbackInfo@VValue@v8@@@v8@@@Z 1005f330 f   zoom_node_meeting_config_ctrl.obj
 0001:0005e540       ?SetonFreeMeetingRemainTimeCB@ZoomNodeMeetingConfigCtrlWrap@@SAXABV?$FunctionCallbackInfo@VValue@v8@@@v8@@@Z 1005f540 f   zoom_node_meeting_config_ctrl.obj
 0001:0005e750       ?SetonFreeMeetingRemainTimeStopCountDownCB@ZoomNodeMeetingConfigCtrlWrap@@SAXABV?$FunctionCallbackInfo@VValue@v8@@@v8@@@Z 1005f750 f   zoom_node_meeting_config_ctrl.obj
 0001:0005e960       ?SetonWebinarNeedRegisterNotificationCB@ZoomNodeMeetingConfigCtrlWrap@@SAXABV?$FunctionCallbackInfo@VValue@v8@@@v8@@@Z 1005f960 f   zoom_node_meeting_config_ctrl.obj
 0001:0005eb70       ?UpgradeAccount@ZoomNodeMeetingConfigCtrlWrap@@SAXABV?$FunctionCallbackInfo@VValue@v8@@@v8@@@Z 1005fb70 f   zoom_node_meeting_config_ctrl.obj
 0001:0005ebd0       ?UpgradeMeeting@ZoomNodeMeetingConfigCtrlWrap@@SAXABV?$FunctionCallbackInfo@VValue@v8@@@v8@@@Z 1005fbd0 f   zoom_node_meeting_config_ctrl.obj
 0001:0005ec30       ??0ZoomNodeSettingVideoCtrlWrap@@AAE@XZ 1005fc30 f   zoom_node_setting_video_ctrl.obj
 0001:0005ec80       ??1ZoomNodeSettingVideoCtrlWrap@@EAE@XZ 1005fc80 f   zoom_node_setting_video_ctrl.obj
 0001:0005ecf0       ??_G?$ZoomWrapObject@VZoomNodeSettingVideoCtrlWrap@@@@MAEPAXI@Z 1005fcf0 f i zoom_node_setting_video_ctrl.obj
 0001:0005ecf0       ??_E?$ZoomWrapObject@VZoomNodeSettingVideoCtrlWrap@@@@MAEPAXI@Z 1005fcf0 f i zoom_node_setting_video_ctrl.obj
 0001:0005ed50       ??_EZoomNodeSettingVideoCtrlWrap@@EAEPAXI@Z 1005fd50 f i zoom_node_setting_video_ctrl.obj
 0001:0005ed50       ??_GZoomNodeSettingVideoCtrlWrap@@EAEPAXI@Z 1005fd50 f i zoom_node_setting_video_ctrl.obj
 0001:0005ede0       ?Enable49VideoesInGallaryView@ZoomNodeSettingVideoCtrlWrap@@SAXABV?$FunctionCallbackInfo@VValue@v8@@@v8@@@Z 1005fde0 f   zoom_node_setting_video_ctrl.obj
 0001:0005ef60       ?EnableAlwaysShowNameOnVideo@ZoomNodeSettingVideoCtrlWrap@@SAXABV?$FunctionCallbackInfo@VValue@v8@@@v8@@@Z 1005ff60 f   zoom_node_setting_video_ctrl.obj
 0001:0005f0e0       ?EnableAlwaysUse16v9@ZoomNodeSettingVideoCtrlWrap@@SAXABV?$FunctionCallbackInfo@VValue@v8@@@v8@@@Z 100600e0 f   zoom_node_setting_video_ctrl.obj
 0001:0005f260       ?EnableAutoTurnOffVideoWhenJoinMeeting@ZoomNodeSettingVideoCtrlWrap@@SAXABV?$FunctionCallbackInfo@VValue@v8@@@v8@@@Z 10060260 f   zoom_node_setting_video_ctrl.obj
 0001:0005f3e0       ?EnableFaceBeautyEffect@ZoomNodeSettingVideoCtrlWrap@@SAXABV?$FunctionCallbackInfo@VValue@v8@@@v8@@@Z 100603e0 f   zoom_node_setting_video_ctrl.obj
 0001:0005f560       ?EnableHDVideo@ZoomNodeSettingVideoCtrlWrap@@SAXABV?$FunctionCallbackInfo@VValue@v8@@@v8@@@Z 10060560 f   zoom_node_setting_video_ctrl.obj
 0001:0005f6e0       ?EnableHardwareEncode@ZoomNodeSettingVideoCtrlWrap@@SAXABV?$FunctionCallbackInfo@VValue@v8@@@v8@@@Z 100606e0 f   zoom_node_setting_video_ctrl.obj
 0001:0005f860       ?EnableHideNoVideoUsersOnWallView@ZoomNodeSettingVideoCtrlWrap@@SAXABV?$FunctionCallbackInfo@VValue@v8@@@v8@@@Z 10060860 f   zoom_node_setting_video_ctrl.obj
 0001:0005f9e0       ?EnableSpotlightSelf@ZoomNodeSettingVideoCtrlWrap@@SAXABV?$FunctionCallbackInfo@VValue@v8@@@v8@@@Z 100609e0 f   zoom_node_setting_video_ctrl.obj
 0001:0005fb60       ?EnableVideoMirrorEffect@ZoomNodeSettingVideoCtrlWrap@@SAXABV?$FunctionCallbackInfo@VValue@v8@@@v8@@@Z 10060b60 f   zoom_node_setting_video_ctrl.obj
 0001:0005fce0       ?GetCameraList@ZoomNodeSettingVideoCtrlWrap@@SAXABV?$FunctionCallbackInfo@VValue@v8@@@v8@@@Z 10060ce0 f   zoom_node_setting_video_ctrl.obj
 0001:000601d0       ?Is49VideoesInGallaryViewEnabled@ZoomNodeSettingVideoCtrlWrap@@SAXABV?$FunctionCallbackInfo@VValue@v8@@@v8@@@Z 100611d0 f   zoom_node_setting_video_ctrl.obj
 0001:00060230       ?IsAlwaysShowNameOnVideoEnabled@ZoomNodeSettingVideoCtrlWrap@@SAXABV?$FunctionCallbackInfo@VValue@v8@@@v8@@@Z 10061230 f   zoom_node_setting_video_ctrl.obj
 0001:00060290       ?IsAlwaysUse16v9@ZoomNodeSettingVideoCtrlWrap@@SAXABV?$FunctionCallbackInfo@VValue@v8@@@v8@@@Z 10061290 f   zoom_node_setting_video_ctrl.obj
 0001:000602f0       ?IsAutoTurnOffVideoWhenJoinMeetingEnabled@ZoomNodeSettingVideoCtrlWrap@@SAXABV?$FunctionCallbackInfo@VValue@v8@@@v8@@@Z 100612f0 f   zoom_node_setting_video_ctrl.obj
 0001:00060350       ?IsFaceBeautyEffectEnabled@ZoomNodeSettingVideoCtrlWrap@@SAXABV?$FunctionCallbackInfo@VValue@v8@@@v8@@@Z 10061350 f   zoom_node_setting_video_ctrl.obj
 0001:000603b0       ?IsHDVideoEnabled@ZoomNodeSettingVideoCtrlWrap@@SAXABV?$FunctionCallbackInfo@VValue@v8@@@v8@@@Z 100613b0 f   zoom_node_setting_video_ctrl.obj
 0001:00060410       ?IsHardwareEncodeEnabled@ZoomNodeSettingVideoCtrlWrap@@SAXABV?$FunctionCallbackInfo@VValue@v8@@@v8@@@Z 10061410 f   zoom_node_setting_video_ctrl.obj
 0001:00060470       ?IsHideNoVideoUsersOnWallViewEnabled@ZoomNodeSettingVideoCtrlWrap@@SAXABV?$FunctionCallbackInfo@VValue@v8@@@v8@@@Z 10061470 f   zoom_node_setting_video_ctrl.obj
 0001:000604d0       ?IsMirrorEffectEnabled@ZoomNodeSettingVideoCtrlWrap@@SAXABV?$FunctionCallbackInfo@VValue@v8@@@v8@@@Z 100614d0 f   zoom_node_setting_video_ctrl.obj
 0001:00060530       ?IsSpotlightSelfEnabled@ZoomNodeSettingVideoCtrlWrap@@SAXABV?$FunctionCallbackInfo@VValue@v8@@@v8@@@Z 10061530 f   zoom_node_setting_video_ctrl.obj
 0001:00060590       ?SelectVideoCamera@ZoomNodeSettingVideoCtrlWrap@@SAXABV?$FunctionCallbackInfo@VValue@v8@@@v8@@@Z 10061590 f   zoom_node_setting_video_ctrl.obj
 0001:000607a0       ?SetComputerCamDeviceChangedCB@ZoomNodeSettingVideoCtrlWrap@@SAXABV?$FunctionCallbackInfo@VValue@v8@@@v8@@@Z 100617a0 f   zoom_node_setting_video_ctrl.obj
 0001:000609b0       ?SetDefaultCamDeviceChangedCB@ZoomNodeSettingVideoCtrlWrap@@SAXABV?$FunctionCallbackInfo@VValue@v8@@@v8@@@Z 100619b0 f   zoom_node_setting_video_ctrl.obj
 0001:00060bc0       ??0ZoomNodeSettingAudioCtrlWrap@@AAE@XZ 10061bc0 f   zoom_node_setting_audio_ctrl.obj
 0001:00060c10       ??1ZoomNodeSettingAudioCtrlWrap@@EAE@XZ 10061c10 f   zoom_node_setting_audio_ctrl.obj
 0001:00060c80       ??_G?$ZoomWrapObject@VZoomNodeSettingAudioCtrlWrap@@@@MAEPAXI@Z 10061c80 f i zoom_node_setting_audio_ctrl.obj
 0001:00060c80       ??_E?$ZoomWrapObject@VZoomNodeSettingAudioCtrlWrap@@@@MAEPAXI@Z 10061c80 f i zoom_node_setting_audio_ctrl.obj
 0001:00060ce0       ??_GZoomNodeSettingAudioCtrlWrap@@EAEPAXI@Z 10061ce0 f i zoom_node_setting_audio_ctrl.obj
 0001:00060ce0       ??_EZoomNodeSettingAudioCtrlWrap@@EAEPAXI@Z 10061ce0 f i zoom_node_setting_audio_ctrl.obj
 0001:00060d70       ?EnableAlwaysMuteMicWhenJoinVoip@ZoomNodeSettingAudioCtrlWrap@@SAXABV?$FunctionCallbackInfo@VValue@v8@@@v8@@@Z 10061d70 f   zoom_node_setting_audio_ctrl.obj
 0001:00060ef0       ?EnableAutoAdjustMic@ZoomNodeSettingAudioCtrlWrap@@SAXABV?$FunctionCallbackInfo@VValue@v8@@@v8@@@Z 10061ef0 f   zoom_node_setting_audio_ctrl.obj
 0001:00061070       ?EnableAutoJoinAudio@ZoomNodeSettingAudioCtrlWrap@@SAXABV?$FunctionCallbackInfo@VValue@v8@@@v8@@@Z 10062070 f   zoom_node_setting_audio_ctrl.obj
 0001:000611f0       ?EnableEchoCancellation@ZoomNodeSettingAudioCtrlWrap@@SAXABV?$FunctionCallbackInfo@VValue@v8@@@v8@@@Z 100621f0 f   zoom_node_setting_audio_ctrl.obj
 0001:00061370       ?EnableHoldSpaceKeyToSpeak@ZoomNodeSettingAudioCtrlWrap@@SAXABV?$FunctionCallbackInfo@VValue@v8@@@v8@@@Z 10062370 f   zoom_node_setting_audio_ctrl.obj
 0001:000614f0       ?EnableMicOriginalInput@ZoomNodeSettingAudioCtrlWrap@@SAXABV?$FunctionCallbackInfo@VValue@v8@@@v8@@@Z 100624f0 f   zoom_node_setting_audio_ctrl.obj
 0001:00061670       ?EnableStereoAudio@ZoomNodeSettingAudioCtrlWrap@@SAXABV?$FunctionCallbackInfo@VValue@v8@@@v8@@@Z 10062670 f   zoom_node_setting_audio_ctrl.obj
 0001:000617f0       ?EnableSuppressAudioNotify@ZoomNodeSettingAudioCtrlWrap@@SAXABV?$FunctionCallbackInfo@VValue@v8@@@v8@@@Z 100627f0 f   zoom_node_setting_audio_ctrl.obj
 0001:00061970       ?GetMicList@ZoomNodeSettingAudioCtrlWrap@@SAXABV?$FunctionCallbackInfo@VValue@v8@@@v8@@@Z 10062970 f   zoom_node_setting_audio_ctrl.obj
 0001:00061e20       ?GetMicVol@ZoomNodeSettingAudioCtrlWrap@@SAXABV?$FunctionCallbackInfo@VValue@v8@@@v8@@@Z 10062e20 f   zoom_node_setting_audio_ctrl.obj
 0001:000620d0       ?GetSpeakerList@ZoomNodeSettingAudioCtrlWrap@@SAXABV?$FunctionCallbackInfo@VValue@v8@@@v8@@@Z 100630d0 f   zoom_node_setting_audio_ctrl.obj
 0001:00062580       ?GetSpeakerVol@ZoomNodeSettingAudioCtrlWrap@@SAXABV?$FunctionCallbackInfo@VValue@v8@@@v8@@@Z 10063580 f   zoom_node_setting_audio_ctrl.obj
 0001:00062830       ?IsAlwaysMuteMicWhenJoinVoipEnabled@ZoomNodeSettingAudioCtrlWrap@@SAXABV?$FunctionCallbackInfo@VValue@v8@@@v8@@@Z 10063830 f   zoom_node_setting_audio_ctrl.obj
 0001:00062890       ?IsAutoAdjustMicEnabled@ZoomNodeSettingAudioCtrlWrap@@SAXABV?$FunctionCallbackInfo@VValue@v8@@@v8@@@Z 10063890 f   zoom_node_setting_audio_ctrl.obj
 0001:000628f0       ?IsAutoJoinAudioEnabled@ZoomNodeSettingAudioCtrlWrap@@SAXABV?$FunctionCallbackInfo@VValue@v8@@@v8@@@Z 100638f0 f   zoom_node_setting_audio_ctrl.obj
 0001:00062950       ?IsEchoCancellationEnabled@ZoomNodeSettingAudioCtrlWrap@@SAXABV?$FunctionCallbackInfo@VValue@v8@@@v8@@@Z 10063950 f   zoom_node_setting_audio_ctrl.obj
 0001:000629b0       ?IsHoldSpaceKeyToSpeakEnabled@ZoomNodeSettingAudioCtrlWrap@@SAXABV?$FunctionCallbackInfo@VValue@v8@@@v8@@@Z 100639b0 f   zoom_node_setting_audio_ctrl.obj
 0001:00062a10       ?IsMicOriginalInputEnable@ZoomNodeSettingAudioCtrlWrap@@SAXABV?$FunctionCallbackInfo@VValue@v8@@@v8@@@Z 10063a10 f   zoom_node_setting_audio_ctrl.obj
 0001:00062a70       ?IsStereoAudioEnable@ZoomNodeSettingAudioCtrlWrap@@SAXABV?$FunctionCallbackInfo@VValue@v8@@@v8@@@Z 10063a70 f   zoom_node_setting_audio_ctrl.obj
 0001:00062ad0       ?IsSuppressAudioNotifyEnabled@ZoomNodeSettingAudioCtrlWrap@@SAXABV?$FunctionCallbackInfo@VValue@v8@@@v8@@@Z 10063ad0 f   zoom_node_setting_audio_ctrl.obj
 0001:00062b30       ?SelectMic@ZoomNodeSettingAudioCtrlWrap@@SAXABV?$FunctionCallbackInfo@VValue@v8@@@v8@@@Z 10063b30 f   zoom_node_setting_audio_ctrl.obj
 0001:00062e40       ?SelectSpeaker@ZoomNodeSettingAudioCtrlWrap@@SAXABV?$FunctionCallbackInfo@VValue@v8@@@v8@@@Z 10063e40 f   zoom_node_setting_audio_ctrl.obj
 0001:00063150       ?SetComputerMicDeviceChangedCB@ZoomNodeSettingAudioCtrlWrap@@SAXABV?$FunctionCallbackInfo@VValue@v8@@@v8@@@Z 10064150 f   zoom_node_setting_audio_ctrl.obj
 0001:00063360       ?SetComputerSpeakerDeviceChangedCB@ZoomNodeSettingAudioCtrlWrap@@SAXABV?$FunctionCallbackInfo@VValue@v8@@@v8@@@Z 10064360 f   zoom_node_setting_audio_ctrl.obj
 0001:00063570       ?SetDefaultMicDeviceChangedCB@ZoomNodeSettingAudioCtrlWrap@@SAXABV?$FunctionCallbackInfo@VValue@v8@@@v8@@@Z 10064570 f   zoom_node_setting_audio_ctrl.obj
 0001:00063780       ?SetDefaultSpeakerDeviceChangedCB@ZoomNodeSettingAudioCtrlWrap@@SAXABV?$FunctionCallbackInfo@VValue@v8@@@v8@@@Z 10064780 f   zoom_node_setting_audio_ctrl.obj
 0001:00063990       ?SetMicVol@ZoomNodeSettingAudioCtrlWrap@@SAXABV?$FunctionCallbackInfo@VValue@v8@@@v8@@@Z 10064990 f   zoom_node_setting_audio_ctrl.obj
 0001:00063b10       ?SetSpeakerVol@ZoomNodeSettingAudioCtrlWrap@@SAXABV?$FunctionCallbackInfo@VValue@v8@@@v8@@@Z 10064b10 f   zoom_node_setting_audio_ctrl.obj
 0001:00063c90       ??0ZoomNodeSettingGeneralCtrlWrap@@AAE@XZ 10064c90 f   zoom_node_setting_general_ctrl.obj
 0001:00063cb0       ??1ZoomNodeSettingGeneralCtrlWrap@@EAE@XZ 10064cb0 f   zoom_node_setting_general_ctrl.obj
 0001:00063d00       ??_G?$ZoomWrapObject@VZoomNodeSettingGeneralCtrlWrap@@@@MAEPAXI@Z 10064d00 f i zoom_node_setting_general_ctrl.obj
 0001:00063d00       ??_E?$ZoomWrapObject@VZoomNodeSettingGeneralCtrlWrap@@@@MAEPAXI@Z 10064d00 f i zoom_node_setting_general_ctrl.obj
 0001:00063d60       ??_EZoomNodeSettingGeneralCtrlWrap@@EAEPAXI@Z 10064d60 f i zoom_node_setting_general_ctrl.obj
 0001:00063d60       ??_GZoomNodeSettingGeneralCtrlWrap@@EAEPAXI@Z 10064d60 f i zoom_node_setting_general_ctrl.obj
 0001:00063dc0       ?EnableAccelerateGPUWhenShare@ZoomNodeSettingGeneralCtrlWrap@@SAXABV?$FunctionCallbackInfo@VValue@v8@@@v8@@@Z 10064dc0 f   zoom_node_setting_general_ctrl.obj
 0001:00063f40       ?EnableAutoFitToWindowWhenViewSharing@ZoomNodeSettingGeneralCtrlWrap@@SAXABV?$FunctionCallbackInfo@VValue@v8@@@v8@@@Z 10064f40 f   zoom_node_setting_general_ctrl.obj
 0001:000640c0       ?EnableAutoFullScreenVideoWhenJoinMeeting@ZoomNodeSettingGeneralCtrlWrap@@SAXABV?$FunctionCallbackInfo@VValue@v8@@@v8@@@Z 100650c0 f   zoom_node_setting_general_ctrl.obj
 0001:00064240       ?EnableAutoFullScreenVideoWhenViewShare@ZoomNodeSettingGeneralCtrlWrap@@SAXABV?$FunctionCallbackInfo@VValue@v8@@@v8@@@Z 10065240 f   zoom_node_setting_general_ctrl.obj
 0001:000643c0       ?EnableDisplayReminderWindowWhenExit@ZoomNodeSettingGeneralCtrlWrap@@SAXABV?$FunctionCallbackInfo@VValue@v8@@@v8@@@Z 100653c0 f   zoom_node_setting_general_ctrl.obj
 0001:00064540       ?EnableDualScreenMode@ZoomNodeSettingGeneralCtrlWrap@@SAXABV?$FunctionCallbackInfo@VValue@v8@@@v8@@@Z 10065540 f   zoom_node_setting_general_ctrl.obj
 0001:000646c0       ?EnableRemoteControlAllApplications@ZoomNodeSettingGeneralCtrlWrap@@SAXABV?$FunctionCallbackInfo@VValue@v8@@@v8@@@Z 100656c0 f   zoom_node_setting_general_ctrl.obj
 0001:00064840       ?EnableShowMyMeetingElapseTime@ZoomNodeSettingGeneralCtrlWrap@@SAXABV?$FunctionCallbackInfo@VValue@v8@@@v8@@@Z 10065840 f   zoom_node_setting_general_ctrl.obj
 0001:000649c0       ?EnableSplitScreenMode@ZoomNodeSettingGeneralCtrlWrap@@SAXABV?$FunctionCallbackInfo@VValue@v8@@@v8@@@Z 100659c0 f   zoom_node_setting_general_ctrl.obj
 0001:00064b40       ?IsAccelerateGPUWhenShareEnabled@ZoomNodeSettingGeneralCtrlWrap@@SAXABV?$FunctionCallbackInfo@VValue@v8@@@v8@@@Z 10065b40 f   zoom_node_setting_general_ctrl.obj
 0001:00064de0       ?IsAeroModeInSharingTurnOff@ZoomNodeSettingGeneralCtrlWrap@@SAXABV?$FunctionCallbackInfo@VValue@v8@@@v8@@@Z 10065de0 f   zoom_node_setting_general_ctrl.obj
 0001:00064e40       ?IsAutoFitToWindowWhenViewSharingEnabled@ZoomNodeSettingGeneralCtrlWrap@@SAXABV?$FunctionCallbackInfo@VValue@v8@@@v8@@@Z 10065e40 f   zoom_node_setting_general_ctrl.obj
 0001:00064ea0       ?IsAutoFullScreenVideoWhenJoinMeetingEnabled@ZoomNodeSettingGeneralCtrlWrap@@SAXABV?$FunctionCallbackInfo@VValue@v8@@@v8@@@Z 10065ea0 f   zoom_node_setting_general_ctrl.obj
 0001:00064f00       ?IsAutoFullScreenVideoWhenViewShareEnabled@ZoomNodeSettingGeneralCtrlWrap@@SAXABV?$FunctionCallbackInfo@VValue@v8@@@v8@@@Z 10065f00 f   zoom_node_setting_general_ctrl.obj
 0001:00064f60       ?IsCurrentOSSupportAccelerateGPUWhenShare@ZoomNodeSettingGeneralCtrlWrap@@SAXABV?$FunctionCallbackInfo@VValue@v8@@@v8@@@Z 10065f60 f   zoom_node_setting_general_ctrl.obj
 0001:00064fc0       ?IsDisplayReminderWindowWhenExitEnabled@ZoomNodeSettingGeneralCtrlWrap@@SAXABV?$FunctionCallbackInfo@VValue@v8@@@v8@@@Z 10065fc0 f   zoom_node_setting_general_ctrl.obj
 0001:00065020       ?IsDualScreenModeEnabled@ZoomNodeSettingGeneralCtrlWrap@@SAXABV?$FunctionCallbackInfo@VValue@v8@@@v8@@@Z 10066020 f   zoom_node_setting_general_ctrl.obj
 0001:00065080       ?IsRemoteControlAllApplicationsEnabled@ZoomNodeSettingGeneralCtrlWrap@@SAXABV?$FunctionCallbackInfo@VValue@v8@@@v8@@@Z 10066080 f   zoom_node_setting_general_ctrl.obj
 0001:000650e0       ?IsShowMyMeetingElapseTimeEnabled@ZoomNodeSettingGeneralCtrlWrap@@SAXABV?$FunctionCallbackInfo@VValue@v8@@@v8@@@Z 100660e0 f   zoom_node_setting_general_ctrl.obj
 0001:00065140       ?IsSplitScreenModeEnabled@ZoomNodeSettingGeneralCtrlWrap@@SAXABV?$FunctionCallbackInfo@VValue@v8@@@v8@@@Z 10066140 f   zoom_node_setting_general_ctrl.obj
 0001:000651a0       ?TurnOffAeroModeInSharing@ZoomNodeSettingGeneralCtrlWrap@@SAXABV?$FunctionCallbackInfo@VValue@v8@@@v8@@@Z 100661a0 f   zoom_node_setting_general_ctrl.obj
 0001:00065320       ??0ZoomNodeSettingUIStrategyCtrlWrap@@AAE@XZ 10066320 f   zoom_node_setting_ui_strategy_ctrl.obj
 0001:00065340       ??1ZoomNodeSettingUIStrategyCtrlWrap@@EAE@XZ 10066340 f   zoom_node_setting_ui_strategy_ctrl.obj
 0001:00065390       ??_E?$ZoomWrapObject@VZoomNodeSettingUIStrategyCtrlWrap@@@@MAEPAXI@Z 10066390 f i zoom_node_setting_ui_strategy_ctrl.obj
 0001:00065390       ??_G?$ZoomWrapObject@VZoomNodeSettingUIStrategyCtrlWrap@@@@MAEPAXI@Z 10066390 f i zoom_node_setting_ui_strategy_ctrl.obj
 0001:000653f0       ??_EZoomNodeSettingUIStrategyCtrlWrap@@EAEPAXI@Z 100663f0 f i zoom_node_setting_ui_strategy_ctrl.obj
 0001:000653f0       ??_GZoomNodeSettingUIStrategyCtrlWrap@@EAEPAXI@Z 100663f0 f i zoom_node_setting_ui_strategy_ctrl.obj
 0001:00065450       ?ConfSettingDialogShownTabPage@ZoomNodeSettingUIStrategyCtrlWrap@@SAXABV?$FunctionCallbackInfo@VValue@v8@@@v8@@@Z 10066450 f   zoom_node_setting_ui_strategy_ctrl.obj
 0001:000655c0       ?DisableAccountSettingTabPage@ZoomNodeSettingUIStrategyCtrlWrap@@SAXABV?$FunctionCallbackInfo@VValue@v8@@@v8@@@Z 100665c0 f   zoom_node_setting_ui_strategy_ctrl.obj
 0001:00065740       ?DisableAdvancedFeatures4GeneralSetting@ZoomNodeSettingUIStrategyCtrlWrap@@SAXABV?$FunctionCallbackInfo@VValue@v8@@@v8@@@Z 10066740 f   zoom_node_setting_ui_strategy_ctrl.obj
 0001:000658c0       ??0ZoomNodeSettingStatisticCtrlWrap@@AAE@XZ 100668c0 f   zoom_node_setting_statistic_ctrl.obj
 0001:000658e0       ??1ZoomNodeSettingStatisticCtrlWrap@@EAE@XZ 100668e0 f   zoom_node_setting_statistic_ctrl.obj
 0001:00065930       ??_G?$ZoomWrapObject@VZoomNodeSettingStatisticCtrlWrap@@@@MAEPAXI@Z 10066930 f i zoom_node_setting_statistic_ctrl.obj
 0001:00065930       ??_E?$ZoomWrapObject@VZoomNodeSettingStatisticCtrlWrap@@@@MAEPAXI@Z 10066930 f i zoom_node_setting_statistic_ctrl.obj
 0001:00065990       ??_GZoomNodeSettingStatisticCtrlWrap@@EAEPAXI@Z 10066990 f i zoom_node_setting_statistic_ctrl.obj
 0001:00065990       ??_EZoomNodeSettingStatisticCtrlWrap@@EAEPAXI@Z 10066990 f i zoom_node_setting_statistic_ctrl.obj
 0001:000659f0       ?QueryAudioStatisticInfo@ZoomNodeSettingStatisticCtrlWrap@@SAXABV?$FunctionCallbackInfo@VValue@v8@@@v8@@@Z 100669f0 f   zoom_node_setting_statistic_ctrl.obj
 0001:00065e70       ?QueryOverallStatisticInfo@ZoomNodeSettingStatisticCtrlWrap@@SAXABV?$FunctionCallbackInfo@VValue@v8@@@v8@@@Z 10066e70 f   zoom_node_setting_statistic_ctrl.obj
 0001:00066170       ?QueryShareStatisticInfo@ZoomNodeSettingStatisticCtrlWrap@@SAXABV?$FunctionCallbackInfo@VValue@v8@@@v8@@@Z 10067170 f   zoom_node_setting_statistic_ctrl.obj
 0001:000667b0       ?QueryVideoStatisticInfo@ZoomNodeSettingStatisticCtrlWrap@@SAXABV?$FunctionCallbackInfo@VValue@v8@@@v8@@@Z 100677b0 f   zoom_node_setting_statistic_ctrl.obj
 0001:00066df0       ??0ZoomNodeSettingAccessibilityCtrlWrap@@AAE@XZ 10067df0 f   zoom_node_setting_accessibility_ctrl.obj
 0001:00066e10       ??1ZoomNodeSettingAccessibilityCtrlWrap@@EAE@XZ 10067e10 f   zoom_node_setting_accessibility_ctrl.obj
 0001:00066e60       ??_E?$ZoomWrapObject@VZoomNodeSettingAccessibilityCtrlWrap@@@@MAEPAXI@Z 10067e60 f i zoom_node_setting_accessibility_ctrl.obj
 0001:00066e60       ??_G?$ZoomWrapObject@VZoomNodeSettingAccessibilityCtrlWrap@@@@MAEPAXI@Z 10067e60 f i zoom_node_setting_accessibility_ctrl.obj
 0001:00066ec0       ??_EZoomNodeSettingAccessibilityCtrlWrap@@EAEPAXI@Z 10067ec0 f i zoom_node_setting_accessibility_ctrl.obj
 0001:00066ec0       ??_GZoomNodeSettingAccessibilityCtrlWrap@@EAEPAXI@Z 10067ec0 f i zoom_node_setting_accessibility_ctrl.obj
 0001:00066f20       ?EnableAlwaysShowMeetingControls@ZoomNodeSettingAccessibilityCtrlWrap@@SAXABV?$FunctionCallbackInfo@VValue@v8@@@v8@@@Z 10067f20 f   zoom_node_setting_accessibility_ctrl.obj
 0001:000670a0       ?IsAlwaysShowMeetingControlsEnable@ZoomNodeSettingAccessibilityCtrlWrap@@SAXABV?$FunctionCallbackInfo@VValue@v8@@@v8@@@Z 100680a0 f   zoom_node_setting_accessibility_ctrl.obj
 0001:00067340       ??0ZoomNodeSettingRecordingCtrlWrap@@AAE@XZ 10068340 f   zoom_node_setting_recording_ctrl.obj
 0001:00067390       ??1ZoomNodeSettingRecordingCtrlWrap@@EAE@XZ 10068390 f   zoom_node_setting_recording_ctrl.obj
 0001:00067400       ??_G?$ZoomWrapObject@VZoomNodeSettingRecordingCtrlWrap@@@@MAEPAXI@Z 10068400 f i zoom_node_setting_recording_ctrl.obj
 0001:00067400       ??_E?$ZoomWrapObject@VZoomNodeSettingRecordingCtrlWrap@@@@MAEPAXI@Z 10068400 f i zoom_node_setting_recording_ctrl.obj
 0001:00067460       ??_EZoomNodeSettingRecordingCtrlWrap@@EAEPAXI@Z 10068460 f i zoom_node_setting_recording_ctrl.obj
 0001:00067460       ??_GZoomNodeSettingRecordingCtrlWrap@@EAEPAXI@Z 10068460 f i zoom_node_setting_recording_ctrl.obj
 0001:000674f0       ?CanGetCloudRecordingStorageInfo@ZoomNodeSettingRecordingCtrlWrap@@SAXABV?$FunctionCallbackInfo@VValue@v8@@@v8@@@Z 100684f0 f   zoom_node_setting_recording_ctrl.obj
 0001:00067550       ?CanGetRecordingManagementURL@ZoomNodeSettingRecordingCtrlWrap@@SAXABV?$FunctionCallbackInfo@VValue@v8@@@v8@@@Z 10068550 f   zoom_node_setting_recording_ctrl.obj
 0001:000677f0       ?EnableAddTimestampWatermark@ZoomNodeSettingRecordingCtrlWrap@@SAXABV?$FunctionCallbackInfo@VValue@v8@@@v8@@@Z 100687f0 f   zoom_node_setting_recording_ctrl.obj
 0001:00067970       ?EnableMultiAudioStreamRecord@ZoomNodeSettingRecordingCtrlWrap@@SAXABV?$FunctionCallbackInfo@VValue@v8@@@v8@@@Z 10068970 f   zoom_node_setting_recording_ctrl.obj
 0001:00067af0       ?EnableOptimizeFor3rdPartyVideoEditor@ZoomNodeSettingRecordingCtrlWrap@@SAXABV?$FunctionCallbackInfo@VValue@v8@@@v8@@@Z 10068af0 f   zoom_node_setting_recording_ctrl.obj
 0001:00067c70       ?EnablePlaceVideoNextToShareInRecord@ZoomNodeSettingRecordingCtrlWrap@@SAXABV?$FunctionCallbackInfo@VValue@v8@@@v8@@@Z 10068c70 f   zoom_node_setting_recording_ctrl.obj
 0001:00067df0       ?EnableSelectRecordFileLocationAfterMeeting@ZoomNodeSettingRecordingCtrlWrap@@SAXABV?$FunctionCallbackInfo@VValue@v8@@@v8@@@Z 10068df0 f   zoom_node_setting_recording_ctrl.obj
 0001:00067f70       ?EnableShowVideoThumbnailWhenShare@ZoomNodeSettingRecordingCtrlWrap@@SAXABV?$FunctionCallbackInfo@VValue@v8@@@v8@@@Z 10068f70 f   zoom_node_setting_recording_ctrl.obj
 0001:000680f0       ?GetCloudRecordingStorageInfo@ZoomNodeSettingRecordingCtrlWrap@@SAXABV?$FunctionCallbackInfo@VValue@v8@@@v8@@@Z 100690f0 f   zoom_node_setting_recording_ctrl.obj
 0001:00068150       ?GetRecordingManagementURL@ZoomNodeSettingRecordingCtrlWrap@@SAXABV?$FunctionCallbackInfo@VValue@v8@@@v8@@@Z 10069150 f   zoom_node_setting_recording_ctrl.obj
 0001:00068260       ?GetRecordingPath@ZoomNodeSettingRecordingCtrlWrap@@SAXABV?$FunctionCallbackInfo@VValue@v8@@@v8@@@Z 10069260 f   zoom_node_setting_recording_ctrl.obj
 0001:00068370       ?IsAddTimestampWatermarkEnabled@ZoomNodeSettingRecordingCtrlWrap@@SAXABV?$FunctionCallbackInfo@VValue@v8@@@v8@@@Z 10069370 f   zoom_node_setting_recording_ctrl.obj
 0001:000683d0       ?IsMultiAudioStreamRecordEnabled@ZoomNodeSettingRecordingCtrlWrap@@SAXABV?$FunctionCallbackInfo@VValue@v8@@@v8@@@Z 100693d0 f   zoom_node_setting_recording_ctrl.obj
 0001:00068430       ?IsOptimizeFor3rdPartyVideoEditorEnabled@ZoomNodeSettingRecordingCtrlWrap@@SAXABV?$FunctionCallbackInfo@VValue@v8@@@v8@@@Z 10069430 f   zoom_node_setting_recording_ctrl.obj
 0001:00068490       ?IsPlaceVideoNextToShareInRecordEnabled@ZoomNodeSettingRecordingCtrlWrap@@SAXABV?$FunctionCallbackInfo@VValue@v8@@@v8@@@Z 10069490 f   zoom_node_setting_recording_ctrl.obj
 0001:000684f0       ?IsSelectRecordFileLocationAfterMeetingEnabled@ZoomNodeSettingRecordingCtrlWrap@@SAXABV?$FunctionCallbackInfo@VValue@v8@@@v8@@@Z 100694f0 f   zoom_node_setting_recording_ctrl.obj
 0001:00068550       ?IsShowVideoThumbnailWhenShareEnabled@ZoomNodeSettingRecordingCtrlWrap@@SAXABV?$FunctionCallbackInfo@VValue@v8@@@v8@@@Z 10069550 f   zoom_node_setting_recording_ctrl.obj
 0001:000685b0       ?SetRecordingPath@ZoomNodeSettingRecordingCtrlWrap@@SAXABV?$FunctionCallbackInfo@VValue@v8@@@v8@@@Z 100695b0 f   zoom_node_setting_recording_ctrl.obj
 0001:000687c0       ?SetonCloudRecordingStorageInfoCB@ZoomNodeSettingRecordingCtrlWrap@@SAXABV?$FunctionCallbackInfo@VValue@v8@@@v8@@@Z 100697c0 f   zoom_node_setting_recording_ctrl.obj
 0001:000689d0       ??0ZoomNodeCustomizedResourceWrap@@AAE@XZ 100699d0 f   zoom_node_customized_resource.obj
 0001:000689f0       ??1ZoomNodeCustomizedResourceWrap@@EAE@XZ 100699f0 f   zoom_node_customized_resource.obj
 0001:00068a40       ??_G?$ZoomWrapObject@VZoomNodeCustomizedResourceWrap@@@@MAEPAXI@Z 10069a40 f i zoom_node_customized_resource.obj
 0001:00068a40       ??_E?$ZoomWrapObject@VZoomNodeCustomizedResourceWrap@@@@MAEPAXI@Z 10069a40 f i zoom_node_customized_resource.obj
 0001:00068aa0       ??_EZoomNodeCustomizedResourceWrap@@EAEPAXI@Z 10069aa0 f i zoom_node_customized_resource.obj
 0001:00068aa0       ??_GZoomNodeCustomizedResourceWrap@@EAEPAXI@Z 10069aa0 f i zoom_node_customized_resource.obj
 0001:00068b00       ?AddCustomizedPictureResource@ZoomNodeCustomizedResourceWrap@@SAXABV?$FunctionCallbackInfo@VValue@v8@@@v8@@@Z 10069b00 f   zoom_node_customized_resource.obj
 0001:00068e00       ?AddCustomizedStringResource@ZoomNodeCustomizedResourceWrap@@SAXABV?$FunctionCallbackInfo@VValue@v8@@@v8@@@Z 10069e00 f   zoom_node_customized_resource.obj
 0001:00069060       ?AddCustomizedURLResource@ZoomNodeCustomizedResourceWrap@@SAXABV?$FunctionCallbackInfo@VValue@v8@@@v8@@@Z 1006a060 f   zoom_node_customized_resource.obj
 0001:000692c0       ??0ZoomNodeDirectShareHelperWrap@@AAE@XZ 1006a2c0 f   zoom_node_direct_share_helper.obj
 0001:00069310       ??1ZoomNodeDirectShareHelperWrap@@EAE@XZ 1006a310 f   zoom_node_direct_share_helper.obj
 0001:00069380       ??_E?$ZoomWrapObject@VZoomNodeDirectShareHelperWrap@@@@MAEPAXI@Z 1006a380 f i zoom_node_direct_share_helper.obj
 0001:00069380       ??_G?$ZoomWrapObject@VZoomNodeDirectShareHelperWrap@@@@MAEPAXI@Z 1006a380 f i zoom_node_direct_share_helper.obj
 0001:000693e0       ??_EZoomNodeDirectShareHelperWrap@@EAEPAXI@Z 1006a3e0 f i zoom_node_direct_share_helper.obj
 0001:000693e0       ??_GZoomNodeDirectShareHelperWrap@@EAEPAXI@Z 1006a3e0 f i zoom_node_direct_share_helper.obj
 0001:00069470       ?CanStartDirectShare@ZoomNodeDirectShareHelperWrap@@SAXABV?$FunctionCallbackInfo@VValue@v8@@@v8@@@Z 1006a470 f   zoom_node_direct_share_helper.obj
 0001:000694d0       ?Cancel@ZoomNodeDirectShareHelperWrap@@SAXABV?$FunctionCallbackInfo@VValue@v8@@@v8@@@Z 1006a4d0 f   zoom_node_direct_share_helper.obj
 0001:00069530       ?IsDirectShareInProgress@ZoomNodeDirectShareHelperWrap@@SAXABV?$FunctionCallbackInfo@VValue@v8@@@v8@@@Z 1006a530 f   zoom_node_direct_share_helper.obj
 0001:00069590       ?SetDirectShareStatusUpdateCB@ZoomNodeDirectShareHelperWrap@@SAXABV?$FunctionCallbackInfo@VValue@v8@@@v8@@@Z 1006a590 f   zoom_node_direct_share_helper.obj
 0001:000697a0       ?StartDirectShare@ZoomNodeDirectShareHelperWrap@@SAXABV?$FunctionCallbackInfo@VValue@v8@@@v8@@@Z 1006a7a0 f   zoom_node_direct_share_helper.obj
 0001:00069800       ?StopDirectShare@ZoomNodeDirectShareHelperWrap@@SAXABV?$FunctionCallbackInfo@VValue@v8@@@v8@@@Z 1006a800 f   zoom_node_direct_share_helper.obj
 0001:00069860       ?TryWithMeetingNumber@ZoomNodeDirectShareHelperWrap@@SAXABV?$FunctionCallbackInfo@VValue@v8@@@v8@@@Z 1006a860 f   zoom_node_direct_share_helper.obj
 0001:00069a30       ?TryWithPairingCode@ZoomNodeDirectShareHelperWrap@@SAXABV?$FunctionCallbackInfo@VValue@v8@@@v8@@@Z 1006aa30 f   zoom_node_direct_share_helper.obj
 0001:00069c40       ??$ZNGetDefaultValue@_K@@YAXAA_K@Z 1006ac40 f i zoom_node_video_raw_data.obj
 0001:00069c50       ??$_Buynode_if_nil@_K@?$_Tree@V?$_Tset_traits@_KU?$less@_K@std@@V?$allocator@_K@2@$0A@@std@@@std@@IAEPAU?$_Tree_node@_KPAX@1@U_Nil@1@$$QA_K@Z 1006ac50 f i zoom_node_video_raw_data.obj
 0001:00069cc0       ??$_Eqrange@I@?$_Tree@V?$_Tmap_traits@IPAVIMainThreadTask@@U?$less@I@std@@V?$allocator@U?$pair@$$CBIPAVIMainThreadTask@@@std@@@3@$0A@@std@@@std@@IBE?AU?$pair@V?$_Tree_const_iterator@V?$_Tree_val@U?$_Tree_simple_types@U?$pair@$$CBIPAVIMainThreadTask@@@std@@@std@@@std@@@std@@V12@@1@ABI@Z 1006acc0 f i zoom_node_video_raw_data.obj
 0001:00069d60       ??$_Insert_at@AAU?$pair@$$CBIH@std@@PAU?$_Tree_node@U?$pair@$$CBIH@std@@PAX@2@@?$_Tree@V?$_Tmap_traits@IHU?$less@I@std@@V?$allocator@U?$pair@$$CBIH@std@@@2@$0A@@std@@@std@@IAE?AV?$_Tree_iterator@V?$_Tree_val@U?$_Tree_simple_types@U?$pair@$$CBIH@std@@@std@@@std@@@1@_NPAU?$_Tree_node@U?$pair@$$CBIH@std@@PAX@1@AAU?$pair@$$CBIH@1@1@Z 1006ad60 f i zoom_node_video_raw_data.obj
 0001:00069f70       ??$_Insert_at@AAU?$pair@$$CBIPAVIMainThreadTask@@@std@@PAU?$_Tree_node@U?$pair@$$CBIPAVIMainThreadTask@@@std@@PAX@2@@?$_Tree@V?$_Tmap_traits@IPAVIMainThreadTask@@U?$less@I@std@@V?$allocator@U?$pair@$$CBIPAVIMainThreadTask@@@std@@@3@$0A@@std@@@std@@IAE?AV?$_Tree_iterator@V?$_Tree_val@U?$_Tree_simple_types@U?$pair@$$CBIPAVIMainThreadTask@@@std@@@std@@@std@@@1@_NPAU?$_Tree_node@U?$pair@$$CBIPAVIMainThreadTask@@@std@@PAX@1@AAU?$pair@$$CBIPAVIMainThreadTask@@@1@1@Z 1006af70 f i zoom_node_video_raw_data.obj
 0001:0006a180       ??$_Insert_at@_KU_Nil@std@@@?$_Tree@V?$_Tset_traits@_KU?$less@_K@std@@V?$allocator@_K@2@$0A@@std@@@std@@IAE?AV?$_Tree_const_iterator@V?$_Tree_val@U?$_Tree_simple_types@_K@std@@@std@@@1@_NPAU?$_Tree_node@_KPAX@1@$$QA_KU_Nil@1@@Z 1006b180 f i zoom_node_video_raw_data.obj
 0001:0006a380       ??$_Insert_nohint@AAU?$pair@$$CBIH@std@@PAU?$_Tree_node@U?$pair@$$CBIH@std@@PAX@2@@?$_Tree@V?$_Tmap_traits@IHU?$less@I@std@@V?$allocator@U?$pair@$$CBIH@std@@@2@$0A@@std@@@std@@IAE?AU?$pair@V?$_Tree_iterator@V?$_Tree_val@U?$_Tree_simple_types@U?$pair@$$CBIH@std@@@std@@@std@@@std@@_N@1@_NAAU?$pair@$$CBIH@1@PAU?$_Tree_node@U?$pair@$$CBIH@std@@PAX@1@@Z 1006b380 f i zoom_node_video_raw_data.obj
 0001:0006a490       ??$_Insert_nohint@AAU?$pair@$$CBIPAVIMainThreadTask@@@std@@PAU?$_Tree_node@U?$pair@$$CBIPAVIMainThreadTask@@@std@@PAX@2@@?$_Tree@V?$_Tmap_traits@IPAVIMainThreadTask@@U?$less@I@std@@V?$allocator@U?$pair@$$CBIPAVIMainThreadTask@@@std@@@3@$0A@@std@@@std@@IAE?AU?$pair@V?$_Tree_iterator@V?$_Tree_val@U?$_Tree_simple_types@U?$pair@$$CBIPAVIMainThreadTask@@@std@@@std@@@std@@@std@@_N@1@_NAAU?$pair@$$CBIPAVIMainThreadTask@@@1@PAU?$_Tree_node@U?$pair@$$CBIPAVIMainThreadTask@@@std@@PAX@1@@Z 1006b490 f i zoom_node_video_raw_data.obj
 0001:0006a5a0       ??$_Insert_nohint@_KU_Nil@std@@@?$_Tree@V?$_Tset_traits@_KU?$less@_K@std@@V?$allocator@_K@2@$0A@@std@@@std@@IAE?AU?$pair@V?$_Tree_const_iterator@V?$_Tree_val@U?$_Tree_simple_types@_K@std@@@std@@@std@@_N@1@_N$$QA_KU_Nil@1@@Z 1006b5a0 f i zoom_node_video_raw_data.obj
 0001:0006a6f0       ??$insert@U?$pair@IH@std@@@?$_Tree@V?$_Tmap_traits@IHU?$less@I@std@@V?$allocator@U?$pair@$$CBIH@std@@@2@$0A@@std@@@std@@QAE?AU?$pair@V?$_Tree_iterator@V?$_Tree_val@U?$_Tree_simple_types@U?$pair@$$CBIH@std@@@std@@@std@@@std@@_N@1@$$QAU?$pair@IH@1@@Z 1006b6f0 f i zoom_node_video_raw_data.obj
 0001:0006a770       ??$insert@U?$pair@IPAVVideoRawDataTask@?BI@??onVideoRawDataReceived@VideoRawDataHelper@@UAEXPAVYUVRawDataI420@ZOOMSDKRAWDATA@@PAV?$IVector@_K@@@Z@@std@@@?$_Tree@V?$_Tmap_traits@IPAVIMainThreadTask@@U?$less@I@std@@V?$allocator@U?$pair@$$CBIPAVIMainThreadTask@@@std@@@3@$0A@@std@@@std@@QAE?AU?$pair@V?$_Tree_iterator@V?$_Tree_val@U?$_Tree_simple_types@U?$pair@$$CBIPAVIMainThreadTask@@@std@@@std@@@std@@@std@@_N@1@$$QAU?$pair@IPAVVideoRawDataTask@?BI@??onVideoRawDataReceived@VideoRawDataHelper@@UAEXPAVYUVRawDataI420@ZOOMSDKRAWDATA@@PAV?$IVector@_K@@@Z@@1@@Z 1006b770 f i zoom_node_video_raw_data.obj
 0001:0006a7f0       ??0?$CZNodeSetImpl@_K@@QAE@XZ 1006b7f0 f i zoom_node_video_raw_data.obj
 0001:0006a850       ??0VideoRawDataHelper@@QAE@XZ 1006b850 f i zoom_node_video_raw_data.obj
 0001:0006aa30       ??0ZoomNodeVideoRawDataWrap@@AAE@XZ 1006ba30 f   zoom_node_video_raw_data.obj
 0001:0006aa50       ??1?$CZNodeSetImpl@_K@@UAE@XZ 1006ba50 f i zoom_node_video_raw_data.obj
 0001:0006aa90       ??1?$IVector@_K@@UAE@XZ    1006ba90 f i zoom_node_video_raw_data.obj
 0001:0006aaa0       ??1IMainThreadTask@@UAE@XZ 1006baa0 f i zoom_node_video_raw_data.obj
 0001:0006aab0       ??1VideoRawDataHelper@@UAE@XZ 1006bab0 f i zoom_node_video_raw_data.obj
 0001:0006abf0       ??1ZoomNodeVideoRawDataWrap@@EAE@XZ 1006bbf0 f   zoom_node_video_raw_data.obj
 0001:0006ac40       ??E?$_Tree_unchecked_const_iterator@V?$_Tree_val@U?$_Tree_simple_types@U?$pair@$$CBIH@std@@@std@@@std@@U_Iterator_base0@2@@std@@QAEAAV01@XZ 1006bc40 f i zoom_node_video_raw_data.obj
 0001:0006acb0       ??E?$_Tree_unchecked_const_iterator@V?$_Tree_val@U?$_Tree_simple_types@U?$pair@$$CBIPAVIMainThreadTask@@@std@@@std@@@std@@U_Iterator_base0@2@@std@@QAEAAV01@XZ 1006bcb0 f i zoom_node_video_raw_data.obj
 0001:0006ad20       ??E?$_Tree_unchecked_const_iterator@V?$_Tree_val@U?$_Tree_simple_types@_K@std@@@std@@U_Iterator_base0@2@@std@@QAEAAV01@XZ 1006bd20 f i zoom_node_video_raw_data.obj
 0001:0006ad90       ??F?$_Tree_unchecked_const_iterator@V?$_Tree_val@U?$_Tree_simple_types@U?$pair@$$CBIH@std@@@std@@@std@@U_Iterator_base0@2@@std@@QAEAAV01@XZ 1006bd90 f i zoom_node_video_raw_data.obj
 0001:0006ae10       ??F?$_Tree_unchecked_const_iterator@V?$_Tree_val@U?$_Tree_simple_types@U?$pair@$$CBIPAVIMainThreadTask@@@std@@@std@@@std@@U_Iterator_base0@2@@std@@QAEAAV01@XZ 1006be10 f i zoom_node_video_raw_data.obj
 0001:0006ae90       ??F?$_Tree_unchecked_const_iterator@V?$_Tree_val@U?$_Tree_simple_types@_K@std@@@std@@U_Iterator_base0@2@@std@@QAEAAV01@XZ 1006be90 f i zoom_node_video_raw_data.obj
 0001:0006af10       ??_E?$CZNodeSetImpl@_K@@UAEPAXI@Z 1006bf10 f i zoom_node_video_raw_data.obj
 0001:0006af10       ??_G?$CZNodeSetImpl@_K@@UAEPAXI@Z 1006bf10 f i zoom_node_video_raw_data.obj
 0001:0006af70       ??_G?$IVector@_K@@UAEPAXI@Z 1006bf70 f i zoom_node_video_raw_data.obj
 0001:0006af70       ??_E?$IVector@_K@@UAEPAXI@Z 1006bf70 f i zoom_node_video_raw_data.obj
 0001:0006afa0       ??_E?$ZoomWrapObject@VZoomNodeVideoRawDataWrap@@@@MAEPAXI@Z 1006bfa0 f i zoom_node_video_raw_data.obj
 0001:0006afa0       ??_G?$ZoomWrapObject@VZoomNodeVideoRawDataWrap@@@@MAEPAXI@Z 1006bfa0 f i zoom_node_video_raw_data.obj
 0001:0006b000       ??_GIMainThreadTask@@UAEPAXI@Z 1006c000 f i zoom_node_video_raw_data.obj
 0001:0006b000       ??_EIMainThreadTask@@UAEPAXI@Z 1006c000 f i zoom_node_video_raw_data.obj
 0001:0006b030       ??_GVideoRawDataHelper@@UAEPAXI@Z 1006c030 f i zoom_node_video_raw_data.obj
 0001:0006b030       ??_EVideoRawDataHelper@@UAEPAXI@Z 1006c030 f i zoom_node_video_raw_data.obj
 0001:0006b060       ??_EVideoRawDataTask@?BI@??onVideoRawDataReceived@VideoRawDataHelper@@UAEXPAVYUVRawDataI420@ZOOMSDKRAWDATA@@PAV?$IVector@_K@@@Z@UAEPAXI@Z 1006c060 f i zoom_node_video_raw_data.obj
 0001:0006b060       ??_GVideoRawDataTask@?BI@??onVideoRawDataReceived@VideoRawDataHelper@@UAEXPAVYUVRawDataI420@ZOOMSDKRAWDATA@@PAV?$IVector@_K@@@Z@UAEPAXI@Z 1006c060 f i zoom_node_video_raw_data.obj
 0001:0006b090       ??_GZoomNodeVideoRawDataWrap@@EAEPAXI@Z 1006c090 f i zoom_node_video_raw_data.obj
 0001:0006b090       ??_EZoomNodeVideoRawDataWrap@@EAEPAXI@Z 1006c090 f i zoom_node_video_raw_data.obj
 0001:0006b0f0       ?GetCount@?$CZNodeSetImpl@_K@@UAEHXZ 1006c0f0 f i zoom_node_video_raw_data.obj
 0001:0006b100       ?GetItem@?$CZNodeSetImpl@_K@@UAE_KH@Z 1006c100 f i zoom_node_video_raw_data.obj
 0001:0006b1d0       ?GetLocalDeviceStatus@ZoomNodeVideoRawDataWrap@@SAXABV?$FunctionCallbackInfo@VValue@v8@@@v8@@@Z 1006c1d0 f   zoom_node_video_raw_data.obj
 0001:0006b210       ?RotateLocalDevice@ZoomNodeVideoRawDataWrap@@SAXABV?$FunctionCallbackInfo@VValue@v8@@@v8@@@Z 1006c210 f   zoom_node_video_raw_data.obj
 0001:0006b340       ?SetRawDataCB@ZoomNodeVideoRawDataWrap@@SAXABV?$FunctionCallbackInfo@VValue@v8@@@v8@@@Z 1006c340 f   zoom_node_video_raw_data.obj
 0001:0006b540       ?SetRawDataVideoUserDataOffCB@ZoomNodeVideoRawDataWrap@@SAXABV?$FunctionCallbackInfo@VValue@v8@@@v8@@@Z 1006c540 f   zoom_node_video_raw_data.obj
 0001:0006b740       ?SetRawDataVideoUserDataOnCB@ZoomNodeVideoRawDataWrap@@SAXABV?$FunctionCallbackInfo@VValue@v8@@@v8@@@Z 1006c740 f   zoom_node_video_raw_data.obj
 0001:0006b940       ?SetRawDataVideoUserLeftCB@ZoomNodeVideoRawDataWrap@@SAXABV?$FunctionCallbackInfo@VValue@v8@@@v8@@@Z 1006c940 f   zoom_node_video_raw_data.obj
 0001:0006bb40       ?Start@ZoomNodeVideoRawDataWrap@@SAXABV?$FunctionCallbackInfo@VValue@v8@@@v8@@@Z 1006cb40 f   zoom_node_video_raw_data.obj
 0001:0006bcd0       ?StartPipeServer@ZoomNodeVideoRawDataWrap@@SAXABV?$FunctionCallbackInfo@VValue@v8@@@v8@@@Z 1006ccd0 f   zoom_node_video_raw_data.obj
 0001:0006bd40       ?Stop@ZoomNodeVideoRawDataWrap@@SAXABV?$FunctionCallbackInfo@VValue@v8@@@v8@@@Z 1006cd40 f   zoom_node_video_raw_data.obj
 0001:0006bdc0       ?StopPipeServer@ZoomNodeVideoRawDataWrap@@SAXABV?$FunctionCallbackInfo@VValue@v8@@@v8@@@Z 1006cdc0 f   zoom_node_video_raw_data.obj
 0001:0006be30       ?Subscribe@ZoomNodeVideoRawDataWrap@@SAXABV?$FunctionCallbackInfo@VValue@v8@@@v8@@@Z 1006ce30 f   zoom_node_video_raw_data.obj
 0001:0006c060       ?UnSubscribe@ZoomNodeVideoRawDataWrap@@SAXABV?$FunctionCallbackInfo@VValue@v8@@@v8@@@Z 1006d060 f   zoom_node_video_raw_data.obj
 0001:0006c240       ?UpdateData@IMainThreadTask@@UAEXPAX0@Z 1006d240 f i zoom_node_video_raw_data.obj
 0001:0006c290       ?_Erase@?$_Tree@V?$_Tmap_traits@IHU?$less@I@std@@V?$allocator@U?$pair@$$CBIH@std@@@2@$0A@@std@@@std@@IAEXPAU?$_Tree_node@U?$pair@$$CBIH@std@@PAX@2@@Z 1006d290 f i zoom_node_video_raw_data.obj
 0001:0006c2e0       ?_Erase@?$_Tree@V?$_Tmap_traits@IPAVIMainThreadTask@@U?$less@I@std@@V?$allocator@U?$pair@$$CBIPAVIMainThreadTask@@@std@@@3@$0A@@std@@@std@@IAEXPAU?$_Tree_node@U?$pair@$$CBIPAVIMainThreadTask@@@std@@PAX@2@@Z 1006d2e0 f i zoom_node_video_raw_data.obj
 0001:0006c330       ?_Erase@?$_Tree@V?$_Tset_traits@_KU?$less@_K@std@@V?$allocator@_K@2@$0A@@std@@@std@@IAEXPAU?$_Tree_node@_KPAX@2@@Z 1006d330 f i zoom_node_video_raw_data.obj
 0001:0006c380       ?_Lrotate@?$_Tree@V?$_Tmap_traits@IHU?$less@I@std@@V?$allocator@U?$pair@$$CBIH@std@@@2@$0A@@std@@@std@@IAEXPAU?$_Tree_node@U?$pair@$$CBIH@std@@PAX@2@@Z 1006d380 f i zoom_node_video_raw_data.obj
 0001:0006c3f0       ?_Lrotate@?$_Tree@V?$_Tmap_traits@IPAVIMainThreadTask@@U?$less@I@std@@V?$allocator@U?$pair@$$CBIPAVIMainThreadTask@@@std@@@3@$0A@@std@@@std@@IAEXPAU?$_Tree_node@U?$pair@$$CBIPAVIMainThreadTask@@@std@@PAX@2@@Z 1006d3f0 f i zoom_node_video_raw_data.obj
 0001:0006c460       ?_Lrotate@?$_Tree@V?$_Tset_traits@_KU?$less@_K@std@@V?$allocator@_K@2@$0A@@std@@@std@@IAEXPAU?$_Tree_node@_KPAX@2@@Z 1006d460 f i zoom_node_video_raw_data.obj
 0001:0006c4d0       ?_Rrotate@?$_Tree@V?$_Tmap_traits@IHU?$less@I@std@@V?$allocator@U?$pair@$$CBIH@std@@@2@$0A@@std@@@std@@IAEXPAU?$_Tree_node@U?$pair@$$CBIH@std@@PAX@2@@Z 1006d4d0 f i zoom_node_video_raw_data.obj
 0001:0006c540       ?_Rrotate@?$_Tree@V?$_Tmap_traits@IPAVIMainThreadTask@@U?$less@I@std@@V?$allocator@U?$pair@$$CBIPAVIMainThreadTask@@@std@@@3@$0A@@std@@@std@@IAEXPAU?$_Tree_node@U?$pair@$$CBIPAVIMainThreadTask@@@std@@PAX@2@@Z 1006d540 f i zoom_node_video_raw_data.obj
 0001:0006c5b0       ?_Rrotate@?$_Tree@V?$_Tset_traits@_KU?$less@_K@std@@V?$allocator@_K@2@$0A@@std@@@std@@IAEXPAU?$_Tree_node@_KPAX@2@@Z 1006d5b0 f i zoom_node_video_raw_data.obj
 0001:0006c620       ?clear@?$_Tree@V?$_Tmap_traits@IHU?$less@I@std@@V?$allocator@U?$pair@$$CBIH@std@@@2@$0A@@std@@@std@@QAEXXZ 1006d620 f i zoom_node_video_raw_data.obj
 0001:0006c680       ?clear@?$_Tree@V?$_Tmap_traits@IPAVIMainThreadTask@@U?$less@I@std@@V?$allocator@U?$pair@$$CBIPAVIMainThreadTask@@@std@@@3@$0A@@std@@@std@@QAEXXZ 1006d680 f i zoom_node_video_raw_data.obj
 0001:0006c6e0       ?clear@?$_Tree@V?$_Tset_traits@_KU?$less@_K@std@@V?$allocator@_K@2@$0A@@std@@@std@@QAEXXZ 1006d6e0 f i zoom_node_video_raw_data.obj
 0001:0006c740       ?erase@?$_Tree@V?$_Tmap_traits@IHU?$less@I@std@@V?$allocator@U?$pair@$$CBIH@std@@@2@$0A@@std@@@std@@QAE?AV?$_Tree_iterator@V?$_Tree_val@U?$_Tree_simple_types@U?$pair@$$CBIH@std@@@std@@@std@@@2@V?$_Tree_const_iterator@V?$_Tree_val@U?$_Tree_simple_types@U?$pair@$$CBIH@std@@@std@@@std@@@2@0@Z 1006d740 f i zoom_node_video_raw_data.obj
 0001:0006c810       ?erase@?$_Tree@V?$_Tmap_traits@IHU?$less@I@std@@V?$allocator@U?$pair@$$CBIH@std@@@2@$0A@@std@@@std@@QAE?AV?$_Tree_iterator@V?$_Tree_val@U?$_Tree_simple_types@U?$pair@$$CBIH@std@@@std@@@std@@@2@V?$_Tree_const_iterator@V?$_Tree_val@U?$_Tree_simple_types@U?$pair@$$CBIH@std@@@std@@@std@@@2@@Z 1006d810 f i zoom_node_video_raw_data.obj
 0001:0006cae0       ?erase@?$_Tree@V?$_Tmap_traits@IPAVIMainThreadTask@@U?$less@I@std@@V?$allocator@U?$pair@$$CBIPAVIMainThreadTask@@@std@@@3@$0A@@std@@@std@@QAE?AV?$_Tree_iterator@V?$_Tree_val@U?$_Tree_simple_types@U?$pair@$$CBIPAVIMainThreadTask@@@std@@@std@@@std@@@2@V?$_Tree_const_iterator@V?$_Tree_val@U?$_Tree_simple_types@U?$pair@$$CBIPAVIMainThreadTask@@@std@@@std@@@std@@@2@0@Z 1006dae0 f i zoom_node_video_raw_data.obj
 0001:0006cbb0       ?erase@?$_Tree@V?$_Tmap_traits@IPAVIMainThreadTask@@U?$less@I@std@@V?$allocator@U?$pair@$$CBIPAVIMainThreadTask@@@std@@@3@$0A@@std@@@std@@QAE?AV?$_Tree_iterator@V?$_Tree_val@U?$_Tree_simple_types@U?$pair@$$CBIPAVIMainThreadTask@@@std@@@std@@@std@@@2@V?$_Tree_const_iterator@V?$_Tree_val@U?$_Tree_simple_types@U?$pair@$$CBIPAVIMainThreadTask@@@std@@@std@@@std@@@2@@Z 1006dbb0 f i zoom_node_video_raw_data.obj
 0001:0006ce80       ?erase@?$_Tree@V?$_Tset_traits@_KU?$less@_K@std@@V?$allocator@_K@2@$0A@@std@@@std@@QAE?AV?$_Tree_const_iterator@V?$_Tree_val@U?$_Tree_simple_types@_K@std@@@std@@@2@V32@0@Z 1006de80 f i zoom_node_video_raw_data.obj
 0001:0006cf50       ?erase@?$_Tree@V?$_Tset_traits@_KU?$less@_K@std@@V?$allocator@_K@2@$0A@@std@@@std@@QAE?AV?$_Tree_const_iterator@V?$_Tree_val@U?$_Tree_simple_types@_K@std@@@std@@@2@V32@@Z 1006df50 f i zoom_node_video_raw_data.obj
 0001:0006d220       ?find@?$_Tree@V?$_Tmap_traits@IHU?$less@I@std@@V?$allocator@U?$pair@$$CBIH@std@@@2@$0A@@std@@@std@@QAE?AV?$_Tree_iterator@V?$_Tree_val@U?$_Tree_simple_types@U?$pair@$$CBIH@std@@@std@@@std@@@2@ABI@Z 1006e220 f i zoom_node_video_raw_data.obj
 0001:0006d280       ?find@?$_Tree@V?$_Tmap_traits@IPAVIMainThreadTask@@U?$less@I@std@@V?$allocator@U?$pair@$$CBIPAVIMainThreadTask@@@std@@@3@$0A@@std@@@std@@QAE?AV?$_Tree_iterator@V?$_Tree_val@U?$_Tree_simple_types@U?$pair@$$CBIPAVIMainThreadTask@@@std@@@std@@@std@@@2@ABI@Z 1006e280 f i zoom_node_video_raw_data.obj
 0001:0006d2e0       ?onConnect@VideoRawDataHelper@@UAEXXZ 1006e2e0 f i zoom_node_video_raw_data.obj
 0001:0006d2f0       ?onDeviceRunning@VideoRawDataHelper@@UAEXPAX@Z 1006e2f0 f i zoom_node_video_raw_data.obj
 0001:0006d300       ?onDeviceStop@VideoRawDataHelper@@UAEXPAX@Z 1006e300 f i zoom_node_video_raw_data.obj
 0001:0006d310       ?onDisconnect@VideoRawDataHelper@@UAEXXZ 1006e310 f i zoom_node_video_raw_data.obj
 0001:0006d320       ?onIdle@VideoRawDataHelper@@UAEXXZ 1006e320 f i zoom_node_video_raw_data.obj
 0001:0006d330       ?onMessageRecvNotification@VideoRawDataHelper@@UAEXPAVUVIPCMessage@@@Z 1006e330 f i zoom_node_video_raw_data.obj
 0001:0006d3e0       ?onSubscribedVideoUserDataOff@VideoRawDataHelper@@UAEXPAV?$IVector@_K@@@Z 1006e3e0 f i zoom_node_video_raw_data.obj
 0001:0006d540       ?onSubscribedVideoUserDataOn@VideoRawDataHelper@@UAEXPAV?$IVector@_K@@@Z 1006e540 f i zoom_node_video_raw_data.obj
 0001:0006d6a0       ?onSubscribedVideoUserLeft@VideoRawDataHelper@@UAEXPAV?$IVector@_K@@@Z 1006e6a0 f i zoom_node_video_raw_data.obj
 0001:0006d800       ?onVideoRawDataReceived@VideoRawDataHelper@@UAEXPAVYUVRawDataI420@ZOOMSDKRAWDATA@@PAV?$IVector@_K@@@Z 1006e800 f i zoom_node_video_raw_data.obj
 0001:0006dbe0       ?onVideoRawDataReceived_MainThread@VideoRawDataHelper@@UAEXPAVYUVRawDataI420@ZOOMSDKRAWDATA@@PAV?$IVector@_K@@@Z 1006ebe0 f i zoom_node_video_raw_data.obj
 0001:0006df30       _sprintf                   1006ef30 f i zoom_node_video_raw_data.obj
 0001:0006df70       ??0ZoomNodeAudioRawDataWrap@@AAE@XZ 1006ef70 f   zoom_node_audio_raw_data.obj
 0001:0006df90       ??1AudioRawDataHelper@@UAE@XZ 1006ef90 f i zoom_node_audio_raw_data.obj
 0001:0006e030       ??1ZoomNodeAudioRawDataWrap@@EAE@XZ 1006f030 f   zoom_node_audio_raw_data.obj
 0001:0006e080       ??_G?$ZoomWrapObject@VZoomNodeAudioRawDataWrap@@@@MAEPAXI@Z 1006f080 f i zoom_node_audio_raw_data.obj
 0001:0006e080       ??_E?$ZoomWrapObject@VZoomNodeAudioRawDataWrap@@@@MAEPAXI@Z 1006f080 f i zoom_node_audio_raw_data.obj
 0001:0006e0e0       ??_GAudioRawDataHelper@@UAEPAXI@Z 1006f0e0 f i zoom_node_audio_raw_data.obj
 0001:0006e0e0       ??_EAudioRawDataHelper@@UAEPAXI@Z 1006f0e0 f i zoom_node_audio_raw_data.obj
 0001:0006e110       ??_EMixedAudioRawDataTask@?N@??onMixedAudioRawDataReceived@AudioRawDataHelper@@UAEXPAVAudioRawData@ZOOMSDKRAWDATA@@@Z@UAEPAXI@Z 1006f110 f i zoom_node_audio_raw_data.obj
 0001:0006e110       ??_GMixedAudioRawDataTask@?N@??onMixedAudioRawDataReceived@AudioRawDataHelper@@UAEXPAVAudioRawData@ZOOMSDKRAWDATA@@@Z@UAEPAXI@Z 1006f110 f i zoom_node_audio_raw_data.obj
 0001:0006e140       ??_EOneWayAudioRawDataTask@?N@??onOneWayAudioRawDataReceived@AudioRawDataHelper@@UAEXPAVAudioRawData@ZOOMSDKRAWDATA@@I@Z@UAEPAXI@Z 1006f140 f i zoom_node_audio_raw_data.obj
 0001:0006e140       ??_GOneWayAudioRawDataTask@?N@??onOneWayAudioRawDataReceived@AudioRawDataHelper@@UAEXPAVAudioRawData@ZOOMSDKRAWDATA@@I@Z@UAEPAXI@Z 1006f140 f i zoom_node_audio_raw_data.obj
 0001:0006e170       ??_EZoomNodeAudioRawDataWrap@@EAEPAXI@Z 1006f170 f i zoom_node_audio_raw_data.obj
 0001:0006e170       ??_GZoomNodeAudioRawDataWrap@@EAEPAXI@Z 1006f170 f i zoom_node_audio_raw_data.obj
 0001:0006e250       ?SetRawDataCB@ZoomNodeAudioRawDataWrap@@SAXABV?$FunctionCallbackInfo@VValue@v8@@@v8@@@Z 1006f250 f   zoom_node_audio_raw_data.obj
 0001:0006e570       ?Start@ZoomNodeAudioRawDataWrap@@SAXABV?$FunctionCallbackInfo@VValue@v8@@@v8@@@Z 1006f570 f   zoom_node_audio_raw_data.obj
 0001:0006e6e0       ?StartPipeServer@ZoomNodeAudioRawDataWrap@@SAXABV?$FunctionCallbackInfo@VValue@v8@@@v8@@@Z 1006f6e0 f   zoom_node_audio_raw_data.obj
 0001:0006e750       ?Stop@ZoomNodeAudioRawDataWrap@@SAXABV?$FunctionCallbackInfo@VValue@v8@@@v8@@@Z 1006f750 f   zoom_node_audio_raw_data.obj
 0001:0006e7d0       ?StopPipeServer@ZoomNodeAudioRawDataWrap@@SAXABV?$FunctionCallbackInfo@VValue@v8@@@v8@@@Z 1006f7d0 f   zoom_node_audio_raw_data.obj
 0001:0006e840       ?onMixedAudioRawDataReceived@AudioRawDataHelper@@UAEXPAVAudioRawData@ZOOMSDKRAWDATA@@@Z 1006f840 f i zoom_node_audio_raw_data.obj
 0001:0006e8f0       ?onMixedAudioRawDataReceived_MainThread@AudioRawDataHelper@@UAEXPAVAudioRawData@ZOOMSDKRAWDATA@@@Z 1006f8f0 f i zoom_node_audio_raw_data.obj
 0001:0006ead0       ?onOneWayAudioRawDataReceived@AudioRawDataHelper@@UAEXPAVAudioRawData@ZOOMSDKRAWDATA@@I@Z 1006fad0 f i zoom_node_audio_raw_data.obj
 0001:0006eb90       ?onOneWayAudioRawDataReceived_MainThread@AudioRawDataHelper@@UAEXPAVAudioRawData@ZOOMSDKRAWDATA@@I@Z 1006fb90 f i zoom_node_audio_raw_data.obj
 0001:0006edb0       ??$insert@U?$pair@IPAVShareRawDataTask@?BI@??onShareRawDataReceived@ShareRawDataHelper@@UAEXPAVYUVRawDataI420@ZOOMSDKRAWDATA@@PAV?$IVector@_K@@@Z@@std@@@?$_Tree@V?$_Tmap_traits@IPAVIMainThreadTask@@U?$less@I@std@@V?$allocator@U?$pair@$$CBIPAVIMainThreadTask@@@std@@@3@$0A@@std@@@std@@QAE?AU?$pair@V?$_Tree_iterator@V?$_Tree_val@U?$_Tree_simple_types@U?$pair@$$CBIPAVIMainThreadTask@@@std@@@std@@@std@@@std@@_N@1@$$QAU?$pair@IPAVShareRawDataTask@?BI@??onShareRawDataReceived@ShareRawDataHelper@@UAEXPAVYUVRawDataI420@ZOOMSDKRAWDATA@@PAV?$IVector@_K@@@Z@@1@@Z 1006fdb0 f i zoom_node_share_raw_data.obj
 0001:0006ee30       ??0ShareRawDataHelper@@QAE@XZ 1006fe30 f i zoom_node_share_raw_data.obj
 0001:0006f010       ??0ZoomNodeShareRawDataWrap@@AAE@XZ 10070010 f   zoom_node_share_raw_data.obj
 0001:0006f030       ??1ShareRawDataHelper@@UAE@XZ 10070030 f i zoom_node_share_raw_data.obj
 0001:0006f170       ??1ZoomNodeShareRawDataWrap@@EAE@XZ 10070170 f   zoom_node_share_raw_data.obj
 0001:0006f1c0       ??_G?$ZoomWrapObject@VZoomNodeShareRawDataWrap@@@@MAEPAXI@Z 100701c0 f i zoom_node_share_raw_data.obj
 0001:0006f1c0       ??_E?$ZoomWrapObject@VZoomNodeShareRawDataWrap@@@@MAEPAXI@Z 100701c0 f i zoom_node_share_raw_data.obj
 0001:0006f220       ??_EShareRawDataHelper@@UAEPAXI@Z 10070220 f i zoom_node_share_raw_data.obj
 0001:0006f220       ??_GShareRawDataHelper@@UAEPAXI@Z 10070220 f i zoom_node_share_raw_data.obj
 0001:0006f250       ??_GShareRawDataTask@?BI@??onShareRawDataReceived@ShareRawDataHelper@@UAEXPAVYUVRawDataI420@ZOOMSDKRAWDATA@@PAV?$IVector@_K@@@Z@UAEPAXI@Z 10070250 f i zoom_node_share_raw_data.obj
 0001:0006f250       ??_EShareRawDataTask@?BI@??onShareRawDataReceived@ShareRawDataHelper@@UAEXPAVYUVRawDataI420@ZOOMSDKRAWDATA@@PAV?$IVector@_K@@@Z@UAEPAXI@Z 10070250 f i zoom_node_share_raw_data.obj
 0001:0006f280       ??_GZoomNodeShareRawDataWrap@@EAEPAXI@Z 10070280 f i zoom_node_share_raw_data.obj
 0001:0006f280       ??_EZoomNodeShareRawDataWrap@@EAEPAXI@Z 10070280 f i zoom_node_share_raw_data.obj
 0001:0006f3d0       ?SetRawDataCB@ZoomNodeShareRawDataWrap@@SAXABV?$FunctionCallbackInfo@VValue@v8@@@v8@@@Z 100703d0 f   zoom_node_share_raw_data.obj
 0001:0006f5d0       ?SetRawDataShareUserDataOffCB@ZoomNodeShareRawDataWrap@@SAXABV?$FunctionCallbackInfo@VValue@v8@@@v8@@@Z 100705d0 f   zoom_node_share_raw_data.obj
 0001:0006f7d0       ?SetRawDataShareUserDataOnCB@ZoomNodeShareRawDataWrap@@SAXABV?$FunctionCallbackInfo@VValue@v8@@@v8@@@Z 100707d0 f   zoom_node_share_raw_data.obj
 0001:0006f9d0       ?SetRawDataShareUserLeftCB@ZoomNodeShareRawDataWrap@@SAXABV?$FunctionCallbackInfo@VValue@v8@@@v8@@@Z 100709d0 f   zoom_node_share_raw_data.obj
 0001:0006fbd0       ?Start@ZoomNodeShareRawDataWrap@@SAXABV?$FunctionCallbackInfo@VValue@v8@@@v8@@@Z 10070bd0 f   zoom_node_share_raw_data.obj
 0001:0006fd60       ?StartPipeServer@ZoomNodeShareRawDataWrap@@SAXABV?$FunctionCallbackInfo@VValue@v8@@@v8@@@Z 10070d60 f   zoom_node_share_raw_data.obj
 0001:0006fdd0       ?Stop@ZoomNodeShareRawDataWrap@@SAXABV?$FunctionCallbackInfo@VValue@v8@@@v8@@@Z 10070dd0 f   zoom_node_share_raw_data.obj
 0001:0006fe50       ?StopPipeServer@ZoomNodeShareRawDataWrap@@SAXABV?$FunctionCallbackInfo@VValue@v8@@@v8@@@Z 10070e50 f   zoom_node_share_raw_data.obj
 0001:0006fec0       ?Subscribe@ZoomNodeShareRawDataWrap@@SAXABV?$FunctionCallbackInfo@VValue@v8@@@v8@@@Z 10070ec0 f   zoom_node_share_raw_data.obj
 0001:000700f0       ?UnSubscribe@ZoomNodeShareRawDataWrap@@SAXABV?$FunctionCallbackInfo@VValue@v8@@@v8@@@Z 100710f0 f   zoom_node_share_raw_data.obj
 0001:00070310       ?onConnect@ShareRawDataHelper@@UAEXXZ 10071310 f i zoom_node_share_raw_data.obj
 0001:00070320       ?onDeviceRunning@ShareRawDataHelper@@UAEXPAX@Z 10071320 f i zoom_node_share_raw_data.obj
 0001:00070330       ?onDeviceStop@ShareRawDataHelper@@UAEXPAX@Z 10071330 f i zoom_node_share_raw_data.obj
 0001:00070340       ?onDisconnect@ShareRawDataHelper@@UAEXXZ 10071340 f i zoom_node_share_raw_data.obj
 0001:00070350       ?onIdle@ShareRawDataHelper@@UAEXXZ 10071350 f i zoom_node_share_raw_data.obj
 0001:00070360       ?onMessageRecvNotification@ShareRawDataHelper@@UAEXPAVUVIPCMessage@@@Z 10071360 f i zoom_node_share_raw_data.obj
 0001:00070410       ?onShareRawDataReceived@ShareRawDataHelper@@UAEXPAVYUVRawDataI420@ZOOMSDKRAWDATA@@PAV?$IVector@_K@@@Z 10071410 f i zoom_node_share_raw_data.obj
 0001:000707f0       ?onShareRawDataReceived_MainThread@ShareRawDataHelper@@UAEXPAVYUVRawDataI420@ZOOMSDKRAWDATA@@PAV?$IVector@_K@@@Z 100717f0 f i zoom_node_share_raw_data.obj
 0001:00070b40       ?onSubscribedShareUserDataOff@ShareRawDataHelper@@UAEXPAV?$IVector@_K@@@Z 10071b40 f i zoom_node_share_raw_data.obj
 0001:00070ca0       ?onSubscribedShareUserDataOn@ShareRawDataHelper@@UAEXPAV?$IVector@_K@@@Z 10071ca0 f i zoom_node_share_raw_data.obj
 0001:00070e00       ?onSubscribedShareUserLeft@ShareRawDataHelper@@UAEXPAV?$IVector@_K@@@Z 10071e00 f i zoom_node_share_raw_data.obj
 0001:00070f60       ?_Chassign@?$basic_string@DU?$char_traits@D@std@@V?$allocator@D@2@@std@@QAEXIID@Z 10071f60 f i zoom_v8_to_c.obj
 0001:00070fc0       ?append@?$basic_string@DU?$char_traits@D@std@@V?$allocator@D@2@@std@@QAEAAV12@ID@Z 10071fc0 f i zoom_v8_to_c.obj
 0001:00071090       ?convertV8String2Wstring@@YAXV?$Local@VString@v8@@@v8@@AAV?$basic_string@_WU?$char_traits@_W@std@@V?$allocator@_W@2@@std@@@Z 10072090 f   zoom_v8_to_c.obj
 0001:000711c0       ?utf8to16@@YAXPBDAAV?$basic_string@_WU?$char_traits@_W@std@@V?$allocator@_W@2@@std@@@Z 100721c0 f   zoom_v8_to_c.obj
 0001:00071250       ?zoom_v8toc@@YAXV?$Local@VBoolean@v8@@@v8@@AA_N@Z 10072250 f   zoom_v8_to_c.obj
 0001:00071280       ?zoom_v8toc@@YAXV?$Local@VString@v8@@@v8@@AAV?$basic_string@_WU?$char_traits@_W@std@@V?$allocator@_W@2@@std@@@Z 10072280 f   zoom_v8_to_c.obj
 0001:000712a0       ?zs2s@@YA?AV?$basic_string@DU?$char_traits@D@std@@V?$allocator@D@2@@std@@ABV?$basic_string@_WU?$char_traits@_W@std@@V?$allocator@_W@2@@2@@Z 100722a0 f   zoom_v8_to_c.obj
 0001:00071350       ?MakeUVIPCMsg@@YAPAVUVIPCMessage@@PAVAudioRawData@ZOOMSDKRAWDATA@@II@Z 10072350 f   raw_data_format.obj
 0001:00071420       ?MakeUVIPCMsg@@YAPAVUVIPCMessage@@PAVYUVRawDataI420@ZOOMSDKRAWDATA@@PAV?$IVector@_K@@I@Z 10072420 f   raw_data_format.obj
 0001:00071680       ??$?0V?$allocator@U?$pair@QAXPAVUVIPC@@@std@@@std@@@?$_Wrap_alloc@V?$allocator@U?$_Tree_node@U?$pair@QAXPAVUVIPC@@@std@@PAX@std@@@std@@@std@@QAE@ABV?$allocator@U?$pair@QAXPAVUVIPC@@@std@@@1@@Z 10072680 f i uv_ipc_common.obj
 0001:00071690       ??$_Insert@ABQAVUVIPCMessage@@@?$list@PAVUVIPCMessage@@V?$allocator@PAVUVIPCMessage@@@std@@@std@@QAEXV?$_List_unchecked_const_iterator@V?$_List_val@U?$_List_simple_types@PAVUVIPCMessage@@@std@@@std@@U_Iterator_base0@2@@1@ABQAVUVIPCMessage@@@Z 10072690 f i uv_ipc_common.obj
 0001:00071730       ??$_Insert_at@AAU?$pair@QAXPAVUVIPC@@@std@@PAU?$_Tree_node@U?$pair@QAXPAVUVIPC@@@std@@PAX@2@@?$_Tree@V?$_Tmap_traits@PAXPAVUVIPC@@U?$less@PAX@std@@V?$allocator@U?$pair@QAXPAVUVIPC@@@std@@@3@$0A@@std@@@std@@IAE?AV?$_Tree_iterator@V?$_Tree_val@U?$_Tree_simple_types@U?$pair@QAXPAVUVIPC@@@std@@@std@@@std@@@1@_NPAU?$_Tree_node@U?$pair@QAXPAVUVIPC@@@std@@PAX@1@AAU?$pair@QAXPAVUVIPC@@@1@1@Z 10072730 f i uv_ipc_common.obj
 0001:00071940       ??$_Insert_nohint@AAU?$pair@QAXPAVUVIPC@@@std@@PAU?$_Tree_node@U?$pair@QAXPAVUVIPC@@@std@@PAX@2@@?$_Tree@V?$_Tmap_traits@PAXPAVUVIPC@@U?$less@PAX@std@@V?$allocator@U?$pair@QAXPAVUVIPC@@@std@@@3@$0A@@std@@@std@@IAE?AU?$pair@V?$_Tree_iterator@V?$_Tree_val@U?$_Tree_simple_types@U?$pair@QAXPAVUVIPC@@@std@@@std@@@std@@@std@@_N@1@_NAAU?$pair@QAXPAVUVIPC@@@1@PAU?$_Tree_node@U?$pair@QAXPAVUVIPC@@@std@@PAX@1@@Z 10072940 f i uv_ipc_common.obj
 0001:00071a50       ??$destroy@PAU?$_Tree_node@U?$pair@QAXPAVUVIPC@@@std@@PAX@std@@@?$_Wrap_alloc@V?$allocator@U?$_Tree_node@U?$pair@QAXPAVUVIPC@@@std@@PAX@std@@@std@@@std@@QAEXPAPAU?$_Tree_node@U?$pair@QAXPAVUVIPC@@@std@@PAX@1@@Z 10072a50 f i uv_ipc_common.obj
 0001:00071a60       ??$insert@U?$pair@PAXPAVUVIPC@@@std@@@?$_Tree@V?$_Tmap_traits@PAXPAVUVIPC@@U?$less@PAX@std@@V?$allocator@U?$pair@QAXPAVUVIPC@@@std@@@3@$0A@@std@@@std@@QAE?AU?$pair@V?$_Tree_iterator@V?$_Tree_val@U?$_Tree_simple_types@U?$pair@QAXPAVUVIPC@@@std@@@std@@@std@@@std@@_N@1@$$QAU?$pair@PAXPAVUVIPC@@@1@@Z 10072a60 f i uv_ipc_common.obj
 0001:00071ae0       ??0UVIPC@@QAE@XZ           10072ae0 f   uv_ipc_common.obj
 0001:00071be0       ??0UVIPCMessage@@QAE@PBDH_N@Z 10072be0 f   uv_ipc_common.obj
 0001:00071cb0       ??1?$list@PAVUVIPCMessage@@V?$allocator@PAVUVIPCMessage@@@std@@@std@@QAE@XZ 10072cb0 f i uv_ipc_common.obj
 0001:00071d00       ??1UVIPC@@UAE@XZ           10072d00 f   uv_ipc_common.obj
 0001:00071dd0       ??1UVIPCLocker@@UAE@XZ     10072dd0 f i uv_ipc_common.obj
 0001:00071df0       ??1UVIPCMessage@@MAE@XZ    10072df0 f   uv_ipc_common.obj
 0001:00071e20       ??E?$_Tree_unchecked_const_iterator@V?$_Tree_val@U?$_Tree_simple_types@U?$pair@QAXPAVUVIPC@@@std@@@std@@@std@@U_Iterator_base0@2@@std@@QAEAAV01@XZ 10072e20 f i uv_ipc_common.obj
 0001:00071e90       ??F?$_Tree_unchecked_const_iterator@V?$_Tree_val@U?$_Tree_simple_types@U?$pair@QAXPAVUVIPC@@@std@@@std@@@std@@U_Iterator_base0@2@@std@@QAEAAV01@XZ 10072e90 f i uv_ipc_common.obj
 0001:00071f10       ??_GUVIPC@@UAEPAXI@Z       10072f10 f i uv_ipc_common.obj
 0001:00071f10       ??_EUVIPC@@UAEPAXI@Z       10072f10 f i uv_ipc_common.obj
 0001:00071f40       ??_GUVIPCLocker@@UAEPAXI@Z 10072f40 f i uv_ipc_common.obj
 0001:00071f40       ??_EUVIPCLocker@@UAEPAXI@Z 10072f40 f i uv_ipc_common.obj
 0001:00071f80       ??_GUVIPCMessage@@MAEPAXI@Z 10072f80 f i uv_ipc_common.obj
 0001:00071f80       ??_EUVIPCMessage@@MAEPAXI@Z 10072f80 f i uv_ipc_common.obj
 0001:00071fd0       ?AddRef@UVIPCMessage@@UAE_NXZ 10072fd0 f i uv_ipc_common.obj
 0001:00071ff0       ?GetBuf@UVIPCMessage@@QAEPADXZ 10072ff0 f   uv_ipc_common.obj
 0001:00072000       ?GetLen@UVIPCMessage@@QAEHXZ 10073000 f   uv_ipc_common.obj
 0001:00072010       ?GetRealBuf@UVIPCMessage@@QAEPADXZ 10073010 f   uv_ipc_common.obj
 0001:00072030       ?GetRealLen@UVIPCMessage@@QAEHXZ 10073030 f   uv_ipc_common.obj
 0001:00072050       ?IsRunning@UVIPC@@QAE_N_N@Z 10073050 f   uv_ipc_common.obj
 0001:00072080       ?Lock@UVIPCLocker@@QAEX_N@Z 10073080 f   uv_ipc_common.obj
 0001:000720b0       ?Release@UVIPCMessage@@UAEHXZ 100730b0 f i uv_ipc_common.obj
 0001:000720e0       ?SendMessageA@UVIPC@@QAE_NPAVUVIPCMessage@@@Z 100730e0 f   uv_ipc_common.obj
 0001:00072140       ?SendMessageA@UVIPC@@QAE_NPBDH@Z 10073140 f   uv_ipc_common.obj
 0001:000721f0       ?Start@UVIPC@@QAE_NPAD_NPAUuv_loop_s@@PAVUVIPCSink@@@Z 100731f0 f   uv_ipc_common.obj
 0001:000723a0       ?StartWithClient@UVIPC@@AAE_NPAD_NPAUuv_loop_s@@@Z 100733a0 f   uv_ipc_common.obj
 0001:00072430       ?StartWithServer@UVIPC@@AAE_NPAD_NPAUuv_loop_s@@@Z 10073430 f   uv_ipc_common.obj
 0001:000724e0       ?Stop@UVIPC@@QAE_NXZ       100734e0 f   uv_ipc_common.obj
 0001:00072630       ?Unlock@UVIPCLocker@@QAEX_N@Z 10073630 f   uv_ipc_common.obj
 0001:00072660       ?_Erase@?$_Tree@V?$_Tmap_traits@PAXPAVUVIPC@@U?$less@PAX@std@@V?$allocator@U?$pair@QAXPAVUVIPC@@@std@@@3@$0A@@std@@@std@@IAEXPAU?$_Tree_node@U?$pair@QAXPAVUVIPC@@@std@@PAX@2@@Z 10073660 f i uv_ipc_common.obj
 0001:000726b0       ?_Lrotate@?$_Tree@V?$_Tmap_traits@PAXPAVUVIPC@@U?$less@PAX@std@@V?$allocator@U?$pair@QAXPAVUVIPC@@@std@@@3@$0A@@std@@@std@@IAEXPAU?$_Tree_node@U?$pair@QAXPAVUVIPC@@@std@@PAX@2@@Z 100736b0 f i uv_ipc_common.obj
 0001:00072720       ?_Rrotate@?$_Tree@V?$_Tmap_traits@PAXPAVUVIPC@@U?$less@PAX@std@@V?$allocator@U?$pair@QAXPAVUVIPC@@@std@@@3@$0A@@std@@@std@@IAEXPAU?$_Tree_node@U?$pair@QAXPAVUVIPC@@@std@@PAX@2@@Z 10073720 f i uv_ipc_common.obj
 0001:00072790       ?alloc_buffer_for_uv_pipe@@YAXPAUuv_handle_s@@IPAUuv_buf_t@@@Z 10073790 f   uv_ipc_common.obj
 0001:000727b0       ?clear@?$_Tree@V?$_Tmap_traits@PAXPAVUVIPC@@U?$less@PAX@std@@V?$allocator@U?$pair@QAXPAVUVIPC@@@std@@@3@$0A@@std@@@std@@QAEXXZ 100737b0 f i uv_ipc_common.obj
 0001:00072810       ?erase@?$_Tree@V?$_Tmap_traits@PAXPAVUVIPC@@U?$less@PAX@std@@V?$allocator@U?$pair@QAXPAVUVIPC@@@std@@@3@$0A@@std@@@std@@QAE?AV?$_Tree_iterator@V?$_Tree_val@U?$_Tree_simple_types@U?$pair@QAXPAVUVIPC@@@std@@@std@@@std@@@2@V?$_Tree_const_iterator@V?$_Tree_val@U?$_Tree_simple_types@U?$pair@QAXPAVUVIPC@@@std@@@std@@@std@@@2@0@Z 10073810 f i uv_ipc_common.obj
 0001:000728e0       ?erase@?$_Tree@V?$_Tmap_traits@PAXPAVUVIPC@@U?$less@PAX@std@@V?$allocator@U?$pair@QAXPAVUVIPC@@@std@@@3@$0A@@std@@@std@@QAE?AV?$_Tree_iterator@V?$_Tree_val@U?$_Tree_simple_types@U?$pair@QAXPAVUVIPC@@@std@@@std@@@std@@@2@V?$_Tree_const_iterator@V?$_Tree_val@U?$_Tree_simple_types@U?$pair@QAXPAVUVIPC@@@std@@@std@@@std@@@2@@Z 100738e0 f i uv_ipc_common.obj
 0001:00072bb0       ?on_pipe_client_connection_cb@@YAXPAUuv_stream_s@@H@Z 10073bb0 f   uv_ipc_common.obj
 0001:00072be0       ?on_pipe_data_read_cb@@YAXPAUuv_stream_s@@HPBUuv_buf_t@@@Z 10073be0 f   uv_ipc_common.obj
 0001:00072c70       ?on_server_connected_cb@@YAXPAUuv_connect_s@@H@Z 10073c70 f   uv_ipc_common.obj
 0001:00072ca0       ?on_write_data_cb@@YAXPAUuv_write_s@@H@Z 10073ca0 f   uv_ipc_common.obj
 0001:00072ce0       ?uv_cb_client_connection_notify@UVIPC@@AAEXPAUuv_stream_s@@H@Z 10073ce0 f   uv_ipc_common.obj
 0001:00072df0       ?uv_cb_ipc_timer@UVIPC@@AAEXPAUuv_timer_s@@@Z 10073df0 f   uv_ipc_common.obj
 0001:00073000       ?uv_cb_pipe_data_read@UVIPC@@AAEXPAUuv_stream_s@@HPBUuv_buf_t@@@Z 10074000 f   uv_ipc_common.obj
 0001:000731a0       ?uv_cb_pipe_data_write@UVIPC@@AAEXPAUuv_write_s@@H@Z 100741a0 f   uv_ipc_common.obj
 0001:000731b0       ?uv_cb_server_connected_notify@UVIPC@@AAEXPAUuv_connect_s@@H@Z 100741b0 f   uv_ipc_common.obj
 0001:000732e0       ?uv_ipc_timer_cb@@YAXPAUuv_timer_s@@@Z 100742e0 f   uv_ipc_common.obj
 0001:00073300       ??0RawDataUVIPCServer@@QAE@XZ 10074300 f   raw_data_uv_ipc_server.obj
 0001:00073330       ??0WorkThreadParam@RawDataUVIPCServer@@QAE@XZ 10074330 f i raw_data_uv_ipc_server.obj
 0001:000733a0       ??1RawDataUVIPCServer@@UAE@XZ 100743a0 f   raw_data_uv_ipc_server.obj
 0001:00073400       ??_ERawDataUVIPCServer@@UAEPAXI@Z 10074400 f i raw_data_uv_ipc_server.obj
 0001:00073400       ??_GRawDataUVIPCServer@@UAEPAXI@Z 10074400 f i raw_data_uv_ipc_server.obj
 0001:00073470       ?SendMessageA@RawDataUVIPCServer@@QAE_NPAVUVIPCMessage@@@Z 10074470 f   raw_data_uv_ipc_server.obj
 0001:00073490       ?SendMessageA@RawDataUVIPCServer@@QAE_NPBDH@Z 10074490 f   raw_data_uv_ipc_server.obj
 0001:000734b0       ?StartPipeServer@RawDataUVIPCServer@@QAE_NPADPAVUVIPCSink@@@Z 100744b0 f   raw_data_uv_ipc_server.obj
 0001:00073560       ?StopPipeServer@RawDataUVIPCServer@@QAE_NXZ 10074560 f   raw_data_uv_ipc_server.obj
 0001:000735b0       ?onConnect@RawDataUVIPCServer@@UAEXXZ 100745b0 f   raw_data_uv_ipc_server.obj
 0001:000735d0       ?onDisconnect@RawDataUVIPCServer@@UAEXXZ 100745d0 f   raw_data_uv_ipc_server.obj
 0001:000735f0       ?onIdle@RawDataUVIPCServer@@UAEXXZ 100745f0 f   raw_data_uv_ipc_server.obj
 0001:00073610       ?onMessageRecvNotification@RawDataUVIPCServer@@UAEXPAVUVIPCMessage@@@Z 10074610 f   raw_data_uv_ipc_server.obj
 0001:00073630       ?work_thread_proc@@YAXPAX@Z 10074630 f   raw_data_uv_ipc_server.obj
 0001:00073740       ?work_thread_sync_proc@@YAXPAUuv_async_s@@@Z 10074740 f   raw_data_uv_ipc_server.obj
 0001:00073780       ?Init_MainThread_RunLoop@@YAXH@Z 10074780 f   run_task_to_main_thread.obj
 0001:000737c0       ?MainThread_RunLoop@@YGJHIJ@Z 100747c0 f   run_task_to_main_thread.obj
 0001:00073820       ?PostTaskToMainThread@@YA_NPAVIMainThreadTask@@@Z 10074820 f   run_task_to_main_thread.obj
 0001:00073860       ?Uninit_MainThread_RunLoop@@YAXXZ 10074860 f   run_task_to_main_thread.obj
 0001:00073890       _Node_HasRawDataLicense    10074890 f   zoom_raw_data_wrap.obj
 0001:000738d0       _Node_RetrieveAudioRawDataChannel 100748d0 f   zoom_raw_data_wrap.obj
 0001:00073910       _Node_RetrieveShareRawDataChannel 10074910 f   zoom_raw_data_wrap.obj
 0001:00073950       _Node_RetrieveVideoRawDataChannel 10074950 f   zoom_raw_data_wrap.obj
 0001:00073990       ??0ZoomNodeRawDataLicenseWrap@@AAE@XZ 10074990 f   zoom_node_raw_data_license.obj
 0001:000739b0       ??1ZoomNodeRawDataLicenseWrap@@EAE@XZ 100749b0 f   zoom_node_raw_data_license.obj
 0001:00073a00       ??_G?$ZoomWrapObject@VZoomNodeRawDataLicenseWrap@@@@MAEPAXI@Z 10074a00 f i zoom_node_raw_data_license.obj
 0001:00073a00       ??_E?$ZoomWrapObject@VZoomNodeRawDataLicenseWrap@@@@MAEPAXI@Z 10074a00 f i zoom_node_raw_data_license.obj
 0001:00073a60       ??_EZoomNodeRawDataLicenseWrap@@EAEPAXI@Z 10074a60 f i zoom_node_raw_data_license.obj
 0001:00073a60       ??_GZoomNodeRawDataLicenseWrap@@EAEPAXI@Z 10074a60 f i zoom_node_raw_data_license.obj
 0001:00073ac0       ?HasRawDataLicense@ZoomNodeRawDataLicenseWrap@@SAXABV?$FunctionCallbackInfo@VValue@v8@@@v8@@@Z 10074ac0 f   zoom_node_raw_data_license.obj
 0001:00073b10       ??0ZoomNodeSDKSMSHelperWrap@@AAE@XZ 10074b10 f   zoom_node_sdk_sms_helper.obj
 0001:00073b60       ??1ZoomNodeSDKSMSHelperWrap@@EAE@XZ 10074b60 f   zoom_node_sdk_sms_helper.obj
 0001:00073bd0       ??_G?$ZoomWrapObject@VZoomNodeSDKSMSHelperWrap@@@@MAEPAXI@Z 10074bd0 f i zoom_node_sdk_sms_helper.obj
 0001:00073bd0       ??_E?$ZoomWrapObject@VZoomNodeSDKSMSHelperWrap@@@@MAEPAXI@Z 10074bd0 f i zoom_node_sdk_sms_helper.obj
 0001:00073c30       ??_GZoomNodeSDKSMSHelperWrap@@EAEPAXI@Z 10074c30 f i zoom_node_sdk_sms_helper.obj
 0001:00073c30       ??_EZoomNodeSDKSMSHelperWrap@@EAEPAXI@Z 10074c30 f i zoom_node_sdk_sms_helper.obj
 0001:00073cc0       ?EnableZoomAuthRealNameMeetingUIShown@ZoomNodeSDKSMSHelperWrap@@SAXABV?$FunctionCallbackInfo@VValue@v8@@@v8@@@Z 10074cc0 f   zoom_node_sdk_sms_helper.obj
 0001:00073e40       ?GetReVerifySMSVerificationCodeHandler@ZoomNodeSDKSMSHelperWrap@@SAXABV?$FunctionCallbackInfo@VValue@v8@@@v8@@@Z 10074e40 f   zoom_node_sdk_sms_helper.obj
 0001:00073ea0       ?GetResendSMSVerificationCodeHandler@ZoomNodeSDKSMSHelperWrap@@SAXABV?$FunctionCallbackInfo@VValue@v8@@@v8@@@Z 10074ea0 f   zoom_node_sdk_sms_helper.obj
 0001:00073f00       ?GetSupportPhoneNumberCountryList@ZoomNodeSDKSMSHelperWrap@@SAXABV?$FunctionCallbackInfo@VValue@v8@@@v8@@@Z 10074f00 f   zoom_node_sdk_sms_helper.obj
 0001:00074490       ?Retrieve@ZoomNodeSDKSMSHelperWrap@@SAXABV?$FunctionCallbackInfo@VValue@v8@@@v8@@@Z 10075490 f   zoom_node_sdk_sms_helper.obj
 0001:000747a0       ?Retrieve_CancelAndLeaveMeeting@ZoomNodeSDKSMSHelperWrap@@SAXABV?$FunctionCallbackInfo@VValue@v8@@@v8@@@Z 100757a0 f   zoom_node_sdk_sms_helper.obj
 0001:00074800       ?SetDefaultCellPhoneInfo@ZoomNodeSDKSMSHelperWrap@@SAXABV?$FunctionCallbackInfo@VValue@v8@@@v8@@@Z 10075800 f   zoom_node_sdk_sms_helper.obj
 0001:00074b10       ?SetNeedRealNameAuthMeetingNotificationCB@ZoomNodeSDKSMSHelperWrap@@SAXABV?$FunctionCallbackInfo@VValue@v8@@@v8@@@Z 10075b10 f   zoom_node_sdk_sms_helper.obj
 0001:00074d20       ?SetRetrieveSMSVerificationCodeResultNotificationCB@ZoomNodeSDKSMSHelperWrap@@SAXABV?$FunctionCallbackInfo@VValue@v8@@@v8@@@Z 10075d20 f   zoom_node_sdk_sms_helper.obj
 0001:00074f30       ?SetVerifySMSVerificationCodeResultNotificationCB@ZoomNodeSDKSMSHelperWrap@@SAXABV?$FunctionCallbackInfo@VValue@v8@@@v8@@@Z 10075f30 f   zoom_node_sdk_sms_helper.obj
 0001:00075140       ?Verify@ZoomNodeSDKSMSHelperWrap@@SAXABV?$FunctionCallbackInfo@VValue@v8@@@v8@@@Z 10076140 f   zoom_node_sdk_sms_helper.obj
 0001:000754d0       ?Verify_CancelAndLeaveMeeting@ZoomNodeSDKSMSHelperWrap@@SAXABV?$FunctionCallbackInfo@VValue@v8@@@v8@@@Z 100764d0 f   zoom_node_sdk_sms_helper.obj
 0001:0007556a       _OutputDebugStringA@4      1007656a f   kernel32:KERNEL32.dll
 0001:00075570       _OutputDebugStringW@4      10076570 f   kernel32:KERNEL32.dll
 0001:00075576       _GetLastError@0            10076576 f   kernel32:KERNEL32.dll
 0001:0007557c       _FreeLibrary@4             1007657c f   kernel32:KERNEL32.dll
 0001:00075582       _GetModuleFileNameW@12     10076582 f   kernel32:KERNEL32.dll
 0001:00075588       _GetModuleHandleA@4        10076588 f   kernel32:KERNEL32.dll
 0001:0007558e       _GetModuleHandleExA@12     1007658e f   kernel32:KERNEL32.dll
 0001:00075594       _GetProcAddress@8          10076594 f   kernel32:KERNEL32.dll
 0001:0007559a       _LoadLibraryW@4            1007659a f   kernel32:KERNEL32.dll
 0001:000755a0       _WideCharToMultiByte@32    100765a0 f   kernel32:KERNEL32.dll
 0001:000755a6       _GetCurrentThreadId@0      100765a6 f   kernel32:KERNEL32.dll
 0001:000755ac       _MultiByteToWideChar@24    100765ac f   kernel32:KERNEL32.dll
 0001:000755b2       _Sleep@4                   100765b2 f   kernel32:KERNEL32.dll
 0001:000755b8       _RegisterWindowMessageA@4  100765b8 f   user32:USER32.dll
 0001:000755be       _PostThreadMessageA@16     100765be f   user32:USER32.dll
 0001:000755c4       _SetWindowsHookExW@16      100765c4 f   user32:USER32.dll
 0001:000755ca       _UnhookWindowsHookEx@4     100765ca f   user32:USER32.dll
 0001:000755d0       _CallNextHookEx@16         100765d0 f   user32:USER32.dll
 0001:000755d6       __imp_load_??0HandleScope@v8@@QAE@PAVIsolate@1@@Z 100765d6 f   node:node.exe
 0001:000755e0       __tailMerge_node_exe       100765e0 f i node:node.exe
 0001:000755f1       ??0HandleScope@v8@@QAE@PAVIsolate@1@@Z 100765f1 f   node:node.exe
 0001:000755f7       __imp_load_??1HandleScope@v8@@QAE@XZ 100765f7 f   node:node.exe
 0001:00075601       ??1HandleScope@v8@@QAE@XZ  10076601 f   node:node.exe
 0001:00075607       __imp_load_?CreateHandle@HandleScope@v8@@KAPAIPAVIsolate@internal@2@I@Z 10076607 f   node:node.exe
 0001:00075611       ?CreateHandle@HandleScope@v8@@KAPAIPAVIsolate@internal@2@I@Z 10076611 f   node:node.exe
 0001:00075617       __imp_load_?New@Integer@v8@@SA?AV?$Local@VInteger@v8@@@2@PAVIsolate@2@H@Z 10076617 f   node:node.exe
 0001:00075621       ?New@Integer@v8@@SA?AV?$Local@VInteger@v8@@@2@PAVIsolate@2@H@Z 10076621 f   node:node.exe
 0001:00075627       __imp_load_?Call@Function@v8@@QAE?AV?$MaybeLocal@VValue@v8@@@2@V?$Local@VContext@v8@@@2@V?$Local@VValue@v8@@@2@HQAV52@@Z 10076627 f   node:node.exe
 0001:00075631       ?Call@Function@v8@@QAE?AV?$MaybeLocal@VValue@v8@@@2@V?$Local@VContext@v8@@@2@V?$Local@VValue@v8@@@2@HQAV52@@Z 10076631 f   node:node.exe
 0001:00075637       __imp_load_?GetCurrent@Isolate@v8@@SAPAV12@XZ 10076637 f   node:node.exe
 0001:00075641       ?GetCurrent@Isolate@v8@@SAPAV12@XZ 10076641 f   node:node.exe
 0001:00075647       __imp_load_?GetCurrentContext@Isolate@v8@@QAE?AV?$Local@VContext@v8@@@2@XZ 10076647 f   node:node.exe
 0001:00075651       ?GetCurrentContext@Isolate@v8@@QAE?AV?$Local@VContext@v8@@@2@XZ 10076651 f   node:node.exe
 0001:00075657       __imp_load_?DisposeGlobal@V8@v8@@CAXPAI@Z 10076657 f   node:node.exe
 0001:00075661       ?DisposeGlobal@V8@v8@@CAXPAI@Z 10076661 f   node:node.exe
 0001:00075667       __imp_load_?Global@Context@v8@@QAE?AV?$Local@VObject@v8@@@2@XZ 10076667 f   node:node.exe
 0001:00075671       ?Global@Context@v8@@QAE?AV?$Local@VObject@v8@@@2@XZ 10076671 f   node:node.exe
 0001:00075677       __imp_load_?IsFunction@Value@v8@@QBE_NXZ 10076677 f   node:node.exe
 0001:00075681       ?IsFunction@Value@v8@@QBE_NXZ 10076681 f   node:node.exe
 0001:00075687       __imp_load_?IsBoolean@Value@v8@@QBE_NXZ 10076687 f   node:node.exe
 0001:00075691       ?IsBoolean@Value@v8@@QBE_NXZ 10076691 f   node:node.exe
 0001:00075697       __imp_load_?IsNumber@Value@v8@@QBE_NXZ 10076697 f   node:node.exe
 0001:000756a1       ?IsNumber@Value@v8@@QBE_NXZ 100766a1 f   node:node.exe
 0001:000756a7       __imp_load_?BooleanValue@Value@v8@@QBE_NXZ 100766a7 f   node:node.exe
 0001:000756b1       ?BooleanValue@Value@v8@@QBE_NXZ 100766b1 f   node:node.exe
 0001:000756b7       __imp_load_?NumberValue@Value@v8@@QBENXZ 100766b7 f   node:node.exe
 0001:000756c1       ?NumberValue@Value@v8@@QBENXZ 100766c1 f   node:node.exe
 0001:000756c7       __imp_load_?NewFromUtf8@String@v8@@SA?AV?$MaybeLocal@VString@v8@@@2@PAVIsolate@2@PBDW4NewStringType@2@H@Z 100766c7 f   node:node.exe
 0001:000756d1       ?NewFromUtf8@String@v8@@SA?AV?$MaybeLocal@VString@v8@@@2@PAVIsolate@2@PBDW4NewStringType@2@H@Z 100766d1 f   node:node.exe
 0001:000756d7       __imp_load_?New@Number@v8@@SA?AV?$Local@VNumber@v8@@@2@PAVIsolate@2@N@Z 100766d7 f   node:node.exe
 0001:000756e1       ?New@Number@v8@@SA?AV?$Local@VNumber@v8@@@2@PAVIsolate@2@N@Z 100766e1 f   node:node.exe
 0001:000756e7       __imp_load_?Value@Integer@v8@@QBE_JXZ 100766e7 f   node:node.exe
 0001:000756f1       ?Value@Integer@v8@@QBE_JXZ 100766f1 f   node:node.exe
 0001:000756f7       __imp_load_?Set@Object@v8@@QAE?AV?$Maybe@_N@2@V?$Local@VContext@v8@@@2@V?$Local@VValue@v8@@@2@1@Z 100766f7 f   node:node.exe
 0001:00075701       ?Set@Object@v8@@QAE?AV?$Maybe@_N@2@V?$Local@VContext@v8@@@2@V?$Local@VValue@v8@@@2@1@Z 10076701 f   node:node.exe
 0001:00075707       __imp_load_?Set@Object@v8@@QAE?AV?$Maybe@_N@2@V?$Local@VContext@v8@@@2@IV?$Local@VValue@v8@@@2@@Z 10076707 f   node:node.exe
 0001:00075711       ?Set@Object@v8@@QAE?AV?$Maybe@_N@2@V?$Local@VContext@v8@@@2@IV?$Local@VValue@v8@@@2@@Z 10076711 f   node:node.exe
 0001:00075717       __imp_load_?InternalFieldCount@Object@v8@@QAEHXZ 10076717 f   node:node.exe
 0001:00075721       ?InternalFieldCount@Object@v8@@QAEHXZ 10076721 f   node:node.exe
 0001:00075727       __imp_load_?SetAlignedPointerInInternalField@Object@v8@@QAEXHPAX@Z 10076727 f   node:node.exe
 0001:00075731       ?SetAlignedPointerInInternalField@Object@v8@@QAEXHPAX@Z 10076731 f   node:node.exe
 0001:00075737       __imp_load_?GetIsolate@Object@v8@@QAEPAVIsolate@2@XZ 10076737 f   node:node.exe
 0001:00075741       ?GetIsolate@Object@v8@@QAEPAVIsolate@2@XZ 10076741 f   node:node.exe
 0001:00075747       __imp_load_?New@Object@v8@@SA?AV?$Local@VObject@v8@@@2@PAVIsolate@2@@Z 10076747 f   node:node.exe
 0001:00075751       ?New@Object@v8@@SA?AV?$Local@VObject@v8@@@2@PAVIsolate@2@@Z 10076751 f   node:node.exe
 0001:00075757       __imp_load_?New@Array@v8@@SA?AV?$Local@VArray@v8@@@2@PAVIsolate@2@H@Z 10076757 f   node:node.exe
 0001:00075761       ?New@Array@v8@@SA?AV?$Local@VArray@v8@@@2@PAVIsolate@2@H@Z 10076761 f   node:node.exe
 0001:00075767       __imp_load_?NewInstance@Function@v8@@QBE?AV?$MaybeLocal@VObject@v8@@@2@V?$Local@VContext@v8@@@2@HQAV?$Local@VValue@v8@@@2@@Z 10076767 f   node:node.exe
 0001:00075771       ?NewInstance@Function@v8@@QBE?AV?$MaybeLocal@VObject@v8@@@2@V?$Local@VContext@v8@@@2@HQAV?$Local@VValue@v8@@@2@@Z 10076771 f   node:node.exe
 0001:00075777       __imp_load_?SetName@Function@v8@@QAEXV?$Local@VString@v8@@@2@@Z 10076777 f   node:node.exe
 0001:00075781       ?SetName@Function@v8@@QAEXV?$Local@VString@v8@@@2@@Z 10076781 f   node:node.exe
 0001:00075787       __imp_load_?Set@Template@v8@@QAEXV?$Local@VName@v8@@@2@V?$Local@VData@v8@@@2@W4PropertyAttribute@2@@Z 10076787 f   node:node.exe
 0001:00075791       ?Set@Template@v8@@QAEXV?$Local@VName@v8@@@2@V?$Local@VData@v8@@@2@W4PropertyAttribute@2@@Z 10076791 f   node:node.exe
 0001:00075797       __imp_load_?New@FunctionTemplate@v8@@SA?AV?$Local@VFunctionTemplate@v8@@@2@PAVIsolate@2@P6AXABV?$FunctionCallbackInfo@VValue@v8@@@2@@ZV?$Local@VValue@v8@@@2@V?$Local@VSignature@v8@@@2@HW4ConstructorBehavior@2@W4SideEffectType@2@@Z 10076797 f   node:node.exe
 0001:000757a1       ?New@FunctionTemplate@v8@@SA?AV?$Local@VFunctionTemplate@v8@@@2@PAVIsolate@2@P6AXABV?$FunctionCallbackInfo@VValue@v8@@@2@@ZV?$Local@VValue@v8@@@2@V?$Local@VSignature@v8@@@2@HW4ConstructorBehavior@2@W4SideEffectType@2@@Z 100767a1 f   node:node.exe
 0001:000757a7       __imp_load_?GetFunction@FunctionTemplate@v8@@QAE?AV?$MaybeLocal@VFunction@v8@@@2@V?$Local@VContext@v8@@@2@@Z 100767a7 f   node:node.exe
 0001:000757b1       ?GetFunction@FunctionTemplate@v8@@QAE?AV?$MaybeLocal@VFunction@v8@@@2@V?$Local@VContext@v8@@@2@@Z 100767b1 f   node:node.exe
 0001:000757b7       __imp_load_?InstanceTemplate@FunctionTemplate@v8@@QAE?AV?$Local@VObjectTemplate@v8@@@2@XZ 100767b7 f   node:node.exe
 0001:000757c1       ?InstanceTemplate@FunctionTemplate@v8@@QAE?AV?$Local@VObjectTemplate@v8@@@2@XZ 100767c1 f   node:node.exe
 0001:000757c7       __imp_load_?PrototypeTemplate@FunctionTemplate@v8@@QAE?AV?$Local@VObjectTemplate@v8@@@2@XZ 100767c7 f   node:node.exe
 0001:000757d1       ?PrototypeTemplate@FunctionTemplate@v8@@QAE?AV?$Local@VObjectTemplate@v8@@@2@XZ 100767d1 f   node:node.exe
 0001:000757d7       __imp_load_?SetClassName@FunctionTemplate@v8@@QAEXV?$Local@VString@v8@@@2@@Z 100767d7 f   node:node.exe
 0001:000757e1       ?SetClassName@FunctionTemplate@v8@@QAEXV?$Local@VString@v8@@@2@@Z 100767e1 f   node:node.exe
 0001:000757e7       __imp_load_?SetInternalFieldCount@ObjectTemplate@v8@@QAEXH@Z 100767e7 f   node:node.exe
 0001:000757f1       ?SetInternalFieldCount@ObjectTemplate@v8@@QAEXH@Z 100767f1 f   node:node.exe
 0001:000757f7       __imp_load_?New@Signature@v8@@SA?AV?$Local@VSignature@v8@@@2@PAVIsolate@2@V?$Local@VFunctionTemplate@v8@@@2@@Z 100767f7 f   node:node.exe
 0001:00075801       ?New@Signature@v8@@SA?AV?$Local@VSignature@v8@@@2@PAVIsolate@2@V?$Local@VFunctionTemplate@v8@@@2@@Z 10076801 f   node:node.exe
 0001:00075807       __imp_load_?TypeError@Exception@v8@@SA?AV?$Local@VValue@v8@@@2@V?$Local@VString@v8@@@2@@Z 10076807 f   node:node.exe
 0001:00075811       ?TypeError@Exception@v8@@SA?AV?$Local@VValue@v8@@@2@V?$Local@VString@v8@@@2@@Z 10076811 f   node:node.exe
 0001:00075817       __imp_load_?ThrowException@Isolate@v8@@QAE?AV?$Local@VValue@v8@@@2@V32@@Z 10076817 f   node:node.exe
 0001:00075821       ?ThrowException@Isolate@v8@@QAE?AV?$Local@VValue@v8@@@2@V32@@Z 10076821 f   node:node.exe
 0001:00075827       __imp_load_?GlobalizeReference@V8@v8@@CAPAIPAVIsolate@internal@2@PAI@Z 10076827 f   node:node.exe
 0001:00075831       ?GlobalizeReference@V8@v8@@CAPAIPAVIsolate@internal@2@PAI@Z 10076831 f   node:node.exe
 0001:00075837       __imp_load_?CopyPersistent@V8@v8@@CAPAIPAI@Z 10076837 f   node:node.exe
 0001:00075841       ?CopyPersistent@V8@v8@@CAPAIPAI@Z 10076841 f   node:node.exe
 0001:00075847       __imp_load_?MakeWeak@V8@v8@@CAXPAIPAXP6AXABV?$WeakCallbackInfo@X@2@@ZW4WeakCallbackType@2@@Z 10076847 f   node:node.exe
 0001:00075851       ?MakeWeak@V8@v8@@CAXPAIPAXP6AXABV?$WeakCallbackInfo@X@2@@ZW4WeakCallbackType@2@@Z 10076851 f   node:node.exe
 0001:00075857       __imp_load_?ClearWeak@V8@v8@@CAPAXPAI@Z 10076857 f   node:node.exe
 0001:00075861       ?ClearWeak@V8@v8@@CAPAXPAI@Z 10076861 f   node:node.exe
 0001:00075867       __imp_load_?FromJustIsNothing@V8@v8@@CAXXZ 10076867 f   node:node.exe
 0001:00075871       ?FromJustIsNothing@V8@v8@@CAXXZ 10076871 f   node:node.exe
 0001:00075877       __imp_load_?ToLocalEmpty@V8@v8@@CAXXZ 10076877 f   node:node.exe
 0001:00075881       ?ToLocalEmpty@V8@v8@@CAXXZ 10076881 f   node:node.exe
 0001:00075887       __imp_load__node_module_register 10076887 f   node:node.exe
 0001:00075891       _node_module_register      10076891 f   node:node.exe
 0001:00075897       __imp_load_?New@ArrayBuffer@v8@@SA?AV?$Local@VArrayBuffer@v8@@@2@PAVIsolate@2@I@Z 10076897 f   node:node.exe
 0001:000758a1       ?New@ArrayBuffer@v8@@SA?AV?$Local@VArrayBuffer@v8@@@2@PAVIsolate@2@I@Z 100768a1 f   node:node.exe
 0001:000758a7       __imp_load_?New@ArrayBuffer@v8@@SA?AV?$Local@VArrayBuffer@v8@@@2@PAVIsolate@2@PAXIW4ArrayBufferCreationMode@2@@Z 100768a7 f   node:node.exe
 0001:000758b1       ?New@ArrayBuffer@v8@@SA?AV?$Local@VArrayBuffer@v8@@@2@PAVIsolate@2@PAXIW4ArrayBufferCreationMode@2@@Z 100768b1 f   node:node.exe
 0001:000758b7       __imp_load_?GetContents@ArrayBuffer@v8@@QAE?AVContents@12@XZ 100768b7 f   node:node.exe
 0001:000758c1       ?GetContents@ArrayBuffer@v8@@QAE?AVContents@12@XZ 100768c1 f   node:node.exe
 0001:000758c7       __imp_load_?New@Uint8Array@v8@@SA?AV?$Local@VUint8Array@v8@@@2@V?$Local@VArrayBuffer@v8@@@2@II@Z 100768c7 f   node:node.exe
 0001:000758d1       ?New@Uint8Array@v8@@SA?AV?$Local@VUint8Array@v8@@@2@V?$Local@VArrayBuffer@v8@@@2@II@Z 100768d1 f   node:node.exe
 0001:000758d7       __imp_load_?New@BigUint64Array@v8@@SA?AV?$Local@VBigUint64Array@v8@@@2@V?$Local@VArrayBuffer@v8@@@2@II@Z 100768d7 f   node:node.exe
 0001:000758e1       ?New@BigUint64Array@v8@@SA?AV?$Local@VBigUint64Array@v8@@@2@V?$Local@VArrayBuffer@v8@@@2@II@Z 100768e1 f   node:node.exe
 0001:000758e7       __imp_load_?Utf8Length@String@v8@@QBEHXZ 100768e7 f   node:node.exe
 0001:000758f1       ?Utf8Length@String@v8@@QBEHXZ 100768f1 f   node:node.exe
 0001:000758f7       __imp_load_?Utf8Length@String@v8@@QBEHPAVIsolate@2@@Z 100768f7 f   node:node.exe
 0001:00075901       ?Utf8Length@String@v8@@QBEHPAVIsolate@2@@Z 10076901 f   node:node.exe
 0001:00075907       __imp_load_?WriteUtf8@String@v8@@QBEHPAVIsolate@2@PADHPAHH@Z 10076907 f   node:node.exe
 0001:00075911       ?WriteUtf8@String@v8@@QBEHPAVIsolate@2@PADHPAHH@Z 10076911 f   node:node.exe
 0001:00075917       __imp_load__uv_close       10076917 f   node:node.exe
 0001:00075921       _uv_close                  10076921 f   node:node.exe
 0001:00075927       __imp_load__uv_listen      10076927 f   node:node.exe
 0001:00075931       _uv_listen                 10076931 f   node:node.exe
 0001:00075937       __imp_load__uv_accept      10076937 f   node:node.exe
 0001:00075941       _uv_accept                 10076941 f   node:node.exe
 0001:00075947       __imp_load__uv_read_start  10076947 f   node:node.exe
 0001:00075951       _uv_read_start             10076951 f   node:node.exe
 0001:00075957       __imp_load__uv_read_stop   10076957 f   node:node.exe
 0001:00075961       _uv_read_stop              10076961 f   node:node.exe
 0001:00075967       __imp_load__uv_write       10076967 f   node:node.exe
 0001:00075971       _uv_write                  10076971 f   node:node.exe
 0001:00075977       __imp_load__uv_pipe_init   10076977 f   node:node.exe
 0001:00075981       _uv_pipe_init              10076981 f   node:node.exe
 0001:00075987       __imp_load__uv_pipe_bind   10076987 f   node:node.exe
 0001:00075991       _uv_pipe_bind              10076991 f   node:node.exe
 0001:00075997       __imp_load__uv_pipe_connect 10076997 f   node:node.exe
 0001:000759a1       _uv_pipe_connect           100769a1 f   node:node.exe
 0001:000759a7       __imp_load__uv_timer_init  100769a7 f   node:node.exe
 0001:000759b1       _uv_timer_init             100769b1 f   node:node.exe
 0001:000759b7       __imp_load__uv_timer_start 100769b7 f   node:node.exe
 0001:000759c1       _uv_timer_start            100769c1 f   node:node.exe
 0001:000759c7       __imp_load__uv_rwlock_init 100769c7 f   node:node.exe
 0001:000759d1       _uv_rwlock_init            100769d1 f   node:node.exe
 0001:000759d7       __imp_load__uv_rwlock_destroy 100769d7 f   node:node.exe
 0001:000759e1       _uv_rwlock_destroy         100769e1 f   node:node.exe
 0001:000759e7       __imp_load__uv_rwlock_rdlock 100769e7 f   node:node.exe
 0001:000759f1       _uv_rwlock_rdlock          100769f1 f   node:node.exe
 0001:000759f7       __imp_load__uv_rwlock_rdunlock 100769f7 f   node:node.exe
 0001:00075a01       _uv_rwlock_rdunlock        10076a01 f   node:node.exe
 0001:00075a07       __imp_load__uv_rwlock_wrlock 10076a07 f   node:node.exe
 0001:00075a11       _uv_rwlock_wrlock          10076a11 f   node:node.exe
 0001:00075a17       __imp_load__uv_rwlock_wrunlock 10076a17 f   node:node.exe
 0001:00075a21       _uv_rwlock_wrunlock        10076a21 f   node:node.exe
 0001:00075a27       __imp_load__uv_loop_init   10076a27 f   node:node.exe
 0001:00075a31       _uv_loop_init              10076a31 f   node:node.exe
 0001:00075a37       __imp_load__uv_loop_close  10076a37 f   node:node.exe
 0001:00075a41       _uv_loop_close             10076a41 f   node:node.exe
 0001:00075a47       __imp_load__uv_run         10076a47 f   node:node.exe
 0001:00075a51       _uv_run                    10076a51 f   node:node.exe
 0001:00075a57       __imp_load__uv_stop        10076a57 f   node:node.exe
 0001:00075a61       _uv_stop                   10076a61 f   node:node.exe
 0001:00075a67       __imp_load__uv_async_init  10076a67 f   node:node.exe
 0001:00075a71       _uv_async_init             10076a71 f   node:node.exe
 0001:00075a77       __imp_load__uv_async_send  10076a77 f   node:node.exe
 0001:00075a81       _uv_async_send             10076a81 f   node:node.exe
 0001:00075a87       __imp_load__uv_thread_create 10076a87 f   node:node.exe
 0001:00075a91       _uv_thread_create          10076a91 f   node:node.exe
 0001:00075a97       ??0bad_alloc@std@@QAE@ABV01@@Z 10076a97 f i libcpmt:xthrow.obj
 0001:00075ac0       ??0bad_alloc@std@@QAE@XZ   10076ac0 f i libcpmt:xthrow.obj
 0001:00075ade       ??0bad_function_call@std@@QAE@ABV01@@Z 10076ade f i libcpmt:xthrow.obj
 0001:00075b07       ??0bad_function_call@std@@QAE@XZ 10076b07 f i libcpmt:xthrow.obj
 0001:00075b1c       ??0exception@std@@QAE@ABV01@@Z 10076b1c f i libcpmt:xthrow.obj
 0001:00075b53       ??0exception@std@@QAE@QBD@Z 10076b53 f i libcpmt:xthrow.obj
 0001:00075b97       ??0exception@std@@QAE@QBDH@Z 10076b97 f i libcpmt:xthrow.obj
 0001:00075bbb       ??0exception@std@@QAE@XZ   10076bbb f i libcpmt:xthrow.obj
 0001:00075bd0       ??0invalid_argument@std@@QAE@ABV01@@Z 10076bd0 f i libcpmt:xthrow.obj
 0001:00075bf9       ??0invalid_argument@std@@QAE@PBD@Z 10076bf9 f i libcpmt:xthrow.obj
 0001:00075c22       ??0length_error@std@@QAE@ABV01@@Z 10076c22 f i libcpmt:xthrow.obj
 0001:00075c4b       ??0length_error@std@@QAE@PBD@Z 10076c4b f i libcpmt:xthrow.obj
 0001:00075c74       ??0logic_error@std@@QAE@ABV01@@Z 10076c74 f i libcpmt:xthrow.obj
 0001:00075c9d       ??0logic_error@std@@QAE@PBD@Z 10076c9d f i libcpmt:xthrow.obj
 0001:00075cc6       ??0out_of_range@std@@QAE@ABV01@@Z 10076cc6 f i libcpmt:xthrow.obj
 0001:00075cef       ??0out_of_range@std@@QAE@PBD@Z 10076cef f i libcpmt:xthrow.obj
 0001:00075d18       ??0overflow_error@std@@QAE@ABV01@@Z 10076d18 f i libcpmt:xthrow.obj
 0001:00075d41       ??0overflow_error@std@@QAE@PBD@Z 10076d41 f i libcpmt:xthrow.obj
 0001:00075d6a       ??0regex_error@std@@QAE@ABV01@@Z 10076d6a f i libcpmt:xthrow.obj
 0001:00075d9e       ??0regex_error@std@@QAE@W4error_type@regex_constants@1@@Z 10076d9e f i libcpmt:xthrow.obj
 0001:00075dda       ??0runtime_error@std@@QAE@ABV01@@Z 10076dda f i libcpmt:xthrow.obj
 0001:00075e03       ??0runtime_error@std@@QAE@PBD@Z 10076e03 f i libcpmt:xthrow.obj
 0001:00075e2c       ??1bad_alloc@std@@UAE@XZ   10076e2c f i libcpmt:xthrow.obj
 0001:00075e41       ??1bad_function_call@std@@UAE@XZ 10076e41 f i libcpmt:xthrow.obj
 0001:00075e56       ??1exception@std@@UAE@XZ   10076e56 f i libcpmt:xthrow.obj
 0001:00075e6b       ??1invalid_argument@std@@UAE@XZ 10076e6b f i libcpmt:xthrow.obj
 0001:00075e80       ??1length_error@std@@UAE@XZ 10076e80 f i libcpmt:xthrow.obj
 0001:00075e95       ??1logic_error@std@@UAE@XZ 10076e95 f i libcpmt:xthrow.obj
 0001:00075eaa       ??1out_of_range@std@@UAE@XZ 10076eaa f i libcpmt:xthrow.obj
 0001:00075ebf       ??1overflow_error@std@@UAE@XZ 10076ebf f i libcpmt:xthrow.obj
 0001:00075ed4       ??1regex_error@std@@UAE@XZ 10076ed4 f i libcpmt:xthrow.obj
 0001:00075ee9       ??1runtime_error@std@@UAE@XZ 10076ee9 f i libcpmt:xthrow.obj
 0001:00075efe       ??_Gbad_alloc@std@@UAEPAXI@Z 10076efe f i libcpmt:xthrow.obj
 0001:00075efe       ??_Ebad_alloc@std@@UAEPAXI@Z 10076efe f i libcpmt:xthrow.obj
 0001:00075f36       ??_Ebad_function_call@std@@UAEPAXI@Z 10076f36 f i libcpmt:xthrow.obj
 0001:00075f36       ??_Gbad_function_call@std@@UAEPAXI@Z 10076f36 f i libcpmt:xthrow.obj
 0001:00075f6e       ??_Gexception@std@@UAEPAXI@Z 10076f6e f i libcpmt:xthrow.obj
 0001:00075f6e       ??_Eexception@std@@UAEPAXI@Z 10076f6e f i libcpmt:xthrow.obj
 0001:00075fa6       ??_Einvalid_argument@std@@UAEPAXI@Z 10076fa6 f i libcpmt:xthrow.obj
 0001:00075fa6       ??_Ginvalid_argument@std@@UAEPAXI@Z 10076fa6 f i libcpmt:xthrow.obj
 0001:00075fde       ??_Glength_error@std@@UAEPAXI@Z 10076fde f i libcpmt:xthrow.obj
 0001:00075fde       ??_Elength_error@std@@UAEPAXI@Z 10076fde f i libcpmt:xthrow.obj
 0001:00076016       ??_Elogic_error@std@@UAEPAXI@Z 10077016 f i libcpmt:xthrow.obj
 0001:00076016       ??_Glogic_error@std@@UAEPAXI@Z 10077016 f i libcpmt:xthrow.obj
 0001:0007604e       ??_Gout_of_range@std@@UAEPAXI@Z 1007704e f i libcpmt:xthrow.obj
 0001:0007604e       ??_Eout_of_range@std@@UAEPAXI@Z 1007704e f i libcpmt:xthrow.obj
 0001:00076086       ??_Eoverflow_error@std@@UAEPAXI@Z 10077086 f i libcpmt:xthrow.obj
 0001:00076086       ??_Goverflow_error@std@@UAEPAXI@Z 10077086 f i libcpmt:xthrow.obj
 0001:000760be       ??_Eregex_error@std@@UAEPAXI@Z 100770be f i libcpmt:xthrow.obj
 0001:000760be       ??_Gregex_error@std@@UAEPAXI@Z 100770be f i libcpmt:xthrow.obj
 0001:000760f6       ??_Gruntime_error@std@@UAEPAXI@Z 100770f6 f i libcpmt:xthrow.obj
 0001:000760f6       ??_Eruntime_error@std@@UAEPAXI@Z 100770f6 f i libcpmt:xthrow.obj
 0001:0007612e       ?_Stringify@regex_error@std@@CAPBDW4error_type@regex_constants@2@@Z 1007712e f i libcpmt:xthrow.obj
 0001:0007621e       ?_Xbad_alloc@std@@YAXXZ    1007721e f   libcpmt:xthrow.obj
 0001:00076242       ?_Xbad_function_call@std@@YAXXZ 10077242 f   libcpmt:xthrow.obj
 0001:00076266       ?_Xinvalid_argument@std@@YAXPBD@Z 10077266 f   libcpmt:xthrow.obj
 0001:0007628e       ?_Xlength_error@std@@YAXPBD@Z 1007728e f   libcpmt:xthrow.obj
 0001:000762b6       ?_Xout_of_range@std@@YAXPBD@Z 100772b6 f   libcpmt:xthrow.obj
 0001:000762de       ?_Xoverflow_error@std@@YAXPBD@Z 100772de f   libcpmt:xthrow.obj
 0001:00076306       ?_Xregex_error@std@@YAXW4error_type@regex_constants@1@@Z 10077306 f   libcpmt:xthrow.obj
 0001:0007632e       ?_Xruntime_error@std@@YAXPBD@Z 1007732e f   libcpmt:xthrow.obj
 0001:00076356       ?what@bad_function_call@std@@UBEPBDXZ 10077356 f i libcpmt:xthrow.obj
 0001:0007635c       ?what@exception@std@@UBEPBDXZ 1007735c f i libcpmt:xthrow.obj
 0001:0007636c       ??0stl_critical_section_concrt@details@Concurrency@@QAE@XZ 1007736c f i libcpmt:mutex.obj
 0001:00076392       ??0stl_critical_section_interface@details@Concurrency@@QAE@XZ 10077392 f i libcpmt:mutex.obj
 0001:00076395       ??0stl_critical_section_vista@details@Concurrency@@QAE@XZ 10077395 f i libcpmt:mutex.obj
 0001:000763bd       ??0stl_critical_section_win7@details@Concurrency@@QAE@XZ 100773bd f i libcpmt:mutex.obj
 0001:000763d9       ??1GlobalCore@details@Concurrency@@QAE@XZ 100773d9 f i libcpmt:mutex.obj
 0001:000763e9       ??2@YAPAXIPAX@Z            100773e9 f i libcpmt:mutex.obj
 0001:000763f3       ??3@YAXPAX0@Z              100773f3 f i libcpmt:mutex.obj
 0001:000763f4       ??_EGlobalCore@details@Concurrency@@QAEPAXI@Z 100773f4 f i libcpmt:mutex.obj
 0001:0007649e       ??_Gcritical_section@Concurrency@@QAEPAXI@Z 1007749e f i libcpmt:mutex.obj
 0001:000764c8       ??_H@YGXPAXIIP6EPAX0@Z@Z   100774c8 f i libcpmt:mutex.obj
 0001:000764fc       ?__empty_global_delete@@YAXPAX@Z 100774fc f i libcpmt:mutex.obj
 0001:000764fd       ?__empty_global_delete@@YAXPAXI@Z 100774fd f i libcpmt:mutex.obj
 0001:000764fe       ?_get_cs@_Mtx_internal_imp_t@@QAEPAVstl_critical_section_interface@details@Concurrency@@XZ 100774fe f i libcpmt:mutex.obj
 0001:00076502       ?are_vista_sync_apis_available@details@Concurrency@@YA_NXZ 10077502 f i libcpmt:mutex.obj
 0001:00076518       ?are_win7_sync_apis_available@details@Concurrency@@YA_NXZ 10077518 f i libcpmt:mutex.obj
 0001:0007652e       ?create_stl_critical_section@details@Concurrency@@YAXPAVstl_critical_section_interface@12@@Z 1007752e f i libcpmt:mutex.obj
 0001:000765c0       ?destroy@stl_critical_section_concrt@details@Concurrency@@UAEXXZ 100775c0 f i libcpmt:mutex.obj
 0001:000765ca       ?destroy@stl_critical_section_vista@details@Concurrency@@UAEXXZ 100775ca f i libcpmt:mutex.obj
 0001:000765d7       ?destroy@stl_critical_section_win7@details@Concurrency@@UAEXXZ 100775d7 f i libcpmt:mutex.obj
 0001:000765d8       ?lock@stl_critical_section_concrt@details@Concurrency@@UAEXXZ 100775d8 f i libcpmt:mutex.obj
 0001:000765e2       ?lock@stl_critical_section_vista@details@Concurrency@@UAEXXZ 100775e2 f i libcpmt:mutex.obj
 0001:000765ef       ?lock@stl_critical_section_win7@details@Concurrency@@UAEXXZ 100775ef f i libcpmt:mutex.obj
 0001:000767e3       ?try_lock@stl_critical_section_concrt@details@Concurrency@@UAE_NXZ 100777e3 f i libcpmt:mutex.obj
 0001:000767ed       ?try_lock@stl_critical_section_vista@details@Concurrency@@UAE_NXZ 100777ed f i libcpmt:mutex.obj
 0001:00076802       ?try_lock@stl_critical_section_win7@details@Concurrency@@UAE_NXZ 10077802 f i libcpmt:mutex.obj
 0001:0007681b       ?try_lock_for@stl_critical_section_concrt@details@Concurrency@@UAE_NI@Z 1007781b f i libcpmt:mutex.obj
 0001:0007682a       ?try_lock_for@stl_critical_section_vista@details@Concurrency@@UAE_NI@Z 1007782a f i libcpmt:mutex.obj
 0001:00076841       ?try_lock_for@stl_critical_section_win7@details@Concurrency@@UAE_NI@Z 10077841 f i libcpmt:mutex.obj
 0001:0007684b       ?unlock@stl_critical_section_concrt@details@Concurrency@@UAEXXZ 1007784b f i libcpmt:mutex.obj
 0001:00076855       ?unlock@stl_critical_section_vista@details@Concurrency@@UAEXXZ 10077855 f i libcpmt:mutex.obj
 0001:00076862       ?unlock@stl_critical_section_win7@details@Concurrency@@UAEXXZ 10077862 f i libcpmt:mutex.obj
 0001:0007686f       __Mtx_clear_owner          1007786f f   libcpmt:mutex.obj
 0001:00076881       __Mtx_current_owns         10077881 f   libcpmt:mutex.obj
 0001:000768aa       __Mtx_destroy              100778aa f   libcpmt:mutex.obj
 0001:000768ca       __Mtx_destroy_in_situ      100778ca f   libcpmt:mutex.obj
 0001:000768ef       __Mtx_getconcrtcs          100778ef f   libcpmt:mutex.obj
 0001:000768fc       __Mtx_init                 100778fc f   libcpmt:mutex.obj
 0001:0007693a       __Mtx_init_in_situ         1007793a f   libcpmt:mutex.obj
 0001:00076963       __Mtx_lock                 10077963 f   libcpmt:mutex.obj
 0001:00076978       __Mtx_reset_owner          10077978 f   libcpmt:mutex.obj
 0001:00076991       __Mtx_timedlock            10077991 f   libcpmt:mutex.obj
 0001:000769b1       __Mtx_trylock              100779b1 f   libcpmt:mutex.obj
 0001:000769f7       __Mtx_unlock               100779f7 f   libcpmt:mutex.obj
 0001:00076a2b       ___set_stl_sync_api_mode   10077a2b f   libcpmt:mutex.obj
 0001:00076a3b       ??$?0ABV?$allocator@D@std@@$$V@?$_Compressed_pair@U?$_Wrap_alloc@V?$allocator@D@std@@@std@@V?$_String_val@U?$_Simple_types@D@std@@@2@$00@std@@QAE@U_One_then_variadic_args_t@1@ABV?$allocator@D@1@@Z 10077a3b f i libcpmt:thread0.obj
 0001:00076a4b       ??$?0V?$allocator@D@std@@$$V@?$_Compressed_pair@U?$_Wrap_alloc@V?$allocator@D@std@@@std@@V?$_String_val@U?$_Simple_types@D@std@@@2@$00@std@@QAE@U_One_then_variadic_args_t@1@$$QAV?$allocator@D@1@@Z 10077a4b f i libcpmt:thread0.obj
 0001:00076a5b       ??$_Addressof@D@std@@YAPADAADU?$integral_constant@_N$0A@@0@@Z 10077a5b f i libcpmt:thread0.obj
 0001:00076a65       ??$_Allocate@D@std@@YAPADIPAD_N@Z 10077a65 f i libcpmt:thread0.obj
 0001:00076ace       ??$_Deallocate@D@std@@YAXPADI@Z 10077ace f i libcpmt:thread0.obj
 0001:00076b1c       ??$_Immortalize@V_Generic_error_category@std@@@std@@YAAAV_Generic_error_category@0@XZ 10077b1c f i libcpmt:thread0.obj
 0001:00076b5f       ??$addressof@D@std@@YAPADAAD@Z 10077b5f f i libcpmt:thread0.obj
 0001:00076b69       ??$construct@PADAAPAD@?$_Wrap_alloc@V?$allocator@D@std@@@std@@QAEXPAPADAAPAD@Z 10077b69 f i libcpmt:thread0.obj
 0001:00076b83       ??$construct@PADAAPAD@?$allocator@D@std@@QAEXPAPADAAPAD@Z 10077b83 f i libcpmt:thread0.obj
 0001:00076b9d       ??$construct@PADAAPAD@?$allocator_traits@V?$allocator@D@std@@@std@@SAXAAV?$allocator@D@1@PAPADAAPAD@Z 10077b9d f i libcpmt:thread0.obj
 0001:00076bb4       ??$destroy@PAD@?$_Wrap_alloc@V?$allocator@D@std@@@std@@QAEXPAPAD@Z 10077bb4 f i libcpmt:thread0.obj
 0001:00076bb7       ??$destroy@PAD@?$allocator@D@std@@QAEXPAPAD@Z 10077bb7 f i libcpmt:thread0.obj
 0001:00076bba       ??$destroy@PAD@?$allocator_traits@V?$allocator@D@std@@@std@@SAXAAV?$allocator@D@1@PAPAD@Z 10077bba f i libcpmt:thread0.obj
 0001:00076bbb       ??$forward@AAPAD@std@@YAAAPADAAPAD@Z 10077bbb f i libcpmt:thread0.obj
 0001:00076bc5       ??$forward@ABV?$allocator@D@std@@@std@@YAABV?$allocator@D@0@ABV10@@Z 10077bc5 f i libcpmt:thread0.obj
 0001:00076bcf       ??$forward@V?$allocator@D@std@@@std@@YA$$QAV?$allocator@D@0@AAV10@@Z 10077bcf f i libcpmt:thread0.obj
 0001:00076bd9       ??$forward@V?$basic_string@DU?$char_traits@D@std@@V?$allocator@D@2@@std@@@std@@YA$$QAV?$basic_string@DU?$char_traits@D@std@@V?$allocator@D@2@@0@AAV10@@Z 10077bd9 f i libcpmt:thread0.obj
 0001:00076be3       ??$move@AAU?$_Wrap_alloc@V?$allocator@D@std@@@std@@@std@@YA$$QAU?$_Wrap_alloc@V?$allocator@D@std@@@0@AAU10@@Z 10077be3 f i libcpmt:thread0.obj
 0001:00076bed       ??$move@AAV?$allocator@D@std@@@std@@YA$$QAV?$allocator@D@0@AAV10@@Z 10077bed f i libcpmt:thread0.obj
 0001:00076bf7       ??0?$_Immortalizer@V_Generic_error_category@std@@@std@@QAE@XZ 10077bf7 f i libcpmt:thread0.obj
 0001:00076c10       ??0?$_String_alloc@U?$_String_base_types@DV?$allocator@D@std@@@std@@@std@@QAE@$$QAV?$allocator@D@1@@Z 10077c10 f i libcpmt:thread0.obj
 0001:00076c20       ??0?$_String_alloc@U?$_String_base_types@DV?$allocator@D@std@@@std@@@std@@QAE@ABV?$allocator@D@1@@Z 10077c20 f i libcpmt:thread0.obj
 0001:00076c30       ??0?$_String_val@U?$_Simple_types@D@std@@@std@@QAE@XZ 10077c30 f i libcpmt:thread0.obj
 0001:00076c3d       ??0?$_Wrap_alloc@V?$allocator@D@std@@@std@@QAE@ABV?$allocator@D@1@@Z 10077c3d f i libcpmt:thread0.obj
 0001:00076c42       ??0?$allocator@D@std@@QAE@ABV01@@Z 10077c42 f i libcpmt:thread0.obj
 0001:00076c47       ??0?$allocator@D@std@@QAE@XZ 10077c47 f i libcpmt:thread0.obj
 0001:00076c4a       ??0?$basic_string@DU?$char_traits@D@std@@V?$allocator@D@2@@std@@QAE@$$QAV01@@Z 10077c4a f i libcpmt:thread0.obj
 0001:00076c75       ??0?$basic_string@DU?$char_traits@D@std@@V?$allocator@D@2@@std@@QAE@ABV01@@Z 10077c75 f i libcpmt:thread0.obj
 0001:00076ca4       ??0?$basic_string@DU?$char_traits@D@std@@V?$allocator@D@2@@std@@QAE@PBD@Z 10077ca4 f i libcpmt:thread0.obj
 0001:00076cde       ??0_Generic_error_category@std@@QAE@XZ 10077cde f i libcpmt:thread0.obj
 0001:00076cf2       ??0_System_error@std@@IAE@Verror_code@1@ABV?$basic_string@DU?$char_traits@D@std@@V?$allocator@D@2@@1@@Z 10077cf2 f i libcpmt:thread0.obj
 0001:00076d7c       ??0_System_error@std@@QAE@ABV01@@Z 10077d7c f i libcpmt:thread0.obj
 0001:00076db8       ??0error_category@std@@QAE@XZ 10077db8 f i libcpmt:thread0.obj
 0001:00076dc7       ??0error_code@std@@QAE@HABVerror_category@1@@Z 10077dc7 f i libcpmt:thread0.obj
 0001:00076de0       ??0error_condition@std@@QAE@HABVerror_category@1@@Z 10077de0 f i libcpmt:thread0.obj
 0001:00076df9       ??0runtime_error@std@@QAE@ABV?$basic_string@DU?$char_traits@D@std@@V?$allocator@D@2@@1@@Z 10077df9 f i libcpmt:thread0.obj
 0001:00076e2d       ??0system_error@std@@QAE@ABV01@@Z 10077e2d f i libcpmt:thread0.obj
 0001:00076e56       ??0system_error@std@@QAE@HABVerror_category@1@PBD@Z 10077e56 f i libcpmt:thread0.obj
 0001:00076eb7       ??1?$_Immortalizer@V_Generic_error_category@std@@@std@@QAE@XZ 10077eb7 f i libcpmt:thread0.obj
 0001:00076eb8       ??1?$basic_string@DU?$char_traits@D@std@@V?$allocator@D@2@@std@@QAE@XZ 10077eb8 f i libcpmt:thread0.obj
 0001:00076ec4       ??1_Generic_error_category@std@@UAE@XZ 10077ec4 f i libcpmt:thread0.obj
 0001:00076ecb       ??1_System_error@std@@UAE@XZ 10077ecb f i libcpmt:thread0.obj
 0001:00076ee0       ??1error_category@std@@UAE@XZ 10077ee0 f i libcpmt:thread0.obj
 0001:00076ee7       ??1system_error@std@@UAE@XZ 10077ee7 f i libcpmt:thread0.obj
 0001:00076efc       ??8error_category@std@@QBE_NABV01@@Z 10077efc f i libcpmt:thread0.obj
 0001:00076f16       ??8std@@YA_NABVerror_condition@0@0@Z 10077f16 f i libcpmt:thread0.obj
 0001:00076f48       ??_E_Generic_error_category@std@@UAEPAXI@Z 10077f48 f i libcpmt:thread0.obj
 0001:00076f48       ??_G_Generic_error_category@std@@UAEPAXI@Z 10077f48 f i libcpmt:thread0.obj
 0001:00076f73       ??_G_System_error@std@@UAEPAXI@Z 10077f73 f i libcpmt:thread0.obj
 0001:00076f73       ??_E_System_error@std@@UAEPAXI@Z 10077f73 f i libcpmt:thread0.obj
 0001:00076fab       ??_Gerror_category@std@@UAEPAXI@Z 10077fab f i libcpmt:thread0.obj
 0001:00076fab       ??_Eerror_category@std@@UAEPAXI@Z 10077fab f i libcpmt:thread0.obj
 0001:00076fd6       ??_Gsystem_error@std@@UAEPAXI@Z 10077fd6 f i libcpmt:thread0.obj
 0001:00076fd6       ??_Esystem_error@std@@UAEPAXI@Z 10077fd6 f i libcpmt:thread0.obj
 0001:0007700e       ?_Assign_rv@?$basic_string@DU?$char_traits@D@std@@V?$allocator@D@2@@std@@QAEX$$QAV12@@Z 1007800e f i libcpmt:thread0.obj
 0001:0007707c       ?_Bx@?$_String_alloc@U?$_String_base_types@DV?$allocator@D@std@@@std@@@std@@QAEAAT_Bxty@?$_String_val@U?$_Simple_types@D@std@@@2@XZ 1007807c f i libcpmt:thread0.obj
 0001:0007707f       ?_Eos@?$basic_string@DU?$char_traits@D@std@@V?$allocator@D@2@@std@@QAEXI@Z 1007807f f i libcpmt:thread0.obj
 0001:0007709e       ?_Get_data@?$_String_alloc@U?$_String_base_types@DV?$allocator@D@std@@@std@@@std@@QAEAAV?$_String_val@U?$_Simple_types@D@std@@@2@XZ 1007809e f i libcpmt:thread0.obj
 0001:000770a1       ?_Get_data@?$_String_alloc@U?$_String_base_types@DV?$allocator@D@std@@@std@@@std@@QBEABV?$_String_val@U?$_Simple_types@D@std@@@2@XZ 100780a1 f i libcpmt:thread0.obj
 0001:000770a4       ?_Get_first@?$_Compressed_pair@U?$_Wrap_alloc@V?$allocator@D@std@@@std@@V?$_String_val@U?$_Simple_types@D@std@@@2@$00@std@@QAEAAU?$_Wrap_alloc@V?$allocator@D@std@@@2@XZ 100780a4 f i libcpmt:thread0.obj
 0001:000770a7       ?_Get_first@?$_Compressed_pair@U?$_Wrap_alloc@V?$allocator@D@std@@@std@@V?$_String_val@U?$_Simple_types@D@std@@@2@$00@std@@QBEABU?$_Wrap_alloc@V?$allocator@D@std@@@2@XZ 100780a7 f i libcpmt:thread0.obj
 0001:000770aa       ?_Get_second@?$_Compressed_pair@U?$_Wrap_alloc@V?$allocator@D@std@@@std@@V?$_String_val@U?$_Simple_types@D@std@@@2@$00@std@@QAEAAV?$_String_val@U?$_Simple_types@D@std@@@2@XZ 100780aa f i libcpmt:thread0.obj
 0001:000770ad       ?_Get_second@?$_Compressed_pair@U?$_Wrap_alloc@V?$allocator@D@std@@@std@@V?$_String_val@U?$_Simple_types@D@std@@@2@$00@std@@QBEABV?$_String_val@U?$_Simple_types@D@std@@@2@XZ 100780ad f i libcpmt:thread0.obj
 0001:000770b0       ?_Getal@?$_String_alloc@U?$_String_base_types@DV?$allocator@D@std@@@std@@@std@@QAEAAU?$_Wrap_alloc@V?$allocator@D@std@@@2@XZ 100780b0 f i libcpmt:thread0.obj
 0001:000770b3       ?_Getal@?$_String_alloc@U?$_String_base_types@DV?$allocator@D@std@@@std@@@std@@QBEABU?$_Wrap_alloc@V?$allocator@D@std@@@2@XZ 100780b3 f i libcpmt:thread0.obj
 0001:000770b6       ?_Grow@?$basic_string@DU?$char_traits@D@std@@V?$allocator@D@2@@std@@QAE_NI_N@Z 100780b6 f i libcpmt:thread0.obj
 0001:0007712c       ?_Inside@?$basic_string@DU?$char_traits@D@std@@V?$allocator@D@2@@std@@QAE_NPBD@Z 1007812c f i libcpmt:thread0.obj
 0001:00077175       ?_Makestr@_System_error@std@@CA?AV?$basic_string@DU?$char_traits@D@std@@V?$allocator@D@2@@2@Verror_code@2@V32@@Z 10078175 f i libcpmt:thread0.obj
 0001:0007721f       ?_Myptr@?$_String_alloc@U?$_String_base_types@DV?$allocator@D@std@@@std@@@std@@QAEPADXZ 1007821f f i libcpmt:thread0.obj
 0001:0007722c       ?_Myptr@?$_String_alloc@U?$_String_base_types@DV?$allocator@D@std@@@std@@@std@@QBEPBDXZ 1007822c f i libcpmt:thread0.obj
 0001:00077239       ?_Myptr@?$_String_val@U?$_Simple_types@D@std@@@std@@QAEPADXZ 10078239 f i libcpmt:thread0.obj
 0001:00077246       ?_Myptr@?$_String_val@U?$_Simple_types@D@std@@@std@@QBEPBDXZ 10078246 f i libcpmt:thread0.obj
 0001:00077253       ?_Myres@?$_String_alloc@U?$_String_base_types@DV?$allocator@D@std@@@std@@@std@@QAEAAIXZ 10078253 f i libcpmt:thread0.obj
 0001:00077257       ?_Mysize@?$_String_alloc@U?$_String_base_types@DV?$allocator@D@std@@@std@@@std@@QAEAAIXZ 10078257 f i libcpmt:thread0.obj
 0001:0007725b       ?_Mysize@?$_String_alloc@U?$_String_base_types@DV?$allocator@D@std@@@std@@@std@@QBEABIXZ 1007825b f i libcpmt:thread0.obj
 0001:0007725f       ?_Throw_C_error@std@@YAXH@Z 1007825f f   libcpmt:thread0.obj
 0001:00077297       ?_Throw_Cpp_error@std@@YAXH@Z 10078297 f   libcpmt:thread0.obj
 0001:000772d9       ?_Tidy@?$basic_string@DU?$char_traits@D@std@@V?$allocator@D@2@@std@@QAEX_NI@Z 100782d9 f i libcpmt:thread0.obj
 0001:0007733f       ?_Xlen@?$basic_string@DU?$char_traits@D@std@@V?$allocator@D@2@@std@@QBEXXZ 1007833f f i libcpmt:thread0.obj
 0001:0007734c       ?_Xran@?$basic_string@DU?$char_traits@D@std@@V?$allocator@D@2@@std@@QBEXXZ 1007834c f i libcpmt:thread0.obj
 0001:00077359       ?allocate@?$_Wrap_alloc@V?$allocator@D@std@@@std@@QAEPADI@Z 10078359 f i libcpmt:thread0.obj
 0001:00077374       ?append@?$basic_string@DU?$char_traits@D@std@@V?$allocator@D@2@@std@@QAEAAV12@ABV12@@Z 10078374 f i libcpmt:thread0.obj
 0001:0007738b       ?append@?$basic_string@DU?$char_traits@D@std@@V?$allocator@D@2@@std@@QAEAAV12@ABV12@II@Z 1007838b f i libcpmt:thread0.obj
 0001:00077455       ?append@?$basic_string@DU?$char_traits@D@std@@V?$allocator@D@2@@std@@QAEAAV12@PBD@Z 10078455 f i libcpmt:thread0.obj
 0001:0007747b       ?append@?$basic_string@DU?$char_traits@D@std@@V?$allocator@D@2@@std@@QAEAAV12@PBDI@Z 1007847b f i libcpmt:thread0.obj
 0001:00077545       ?assign@?$basic_string@DU?$char_traits@D@std@@V?$allocator@D@2@@std@@QAEAAV12@PBD@Z 10078545 f i libcpmt:thread0.obj
 0001:0007756b       ?assign@?$char_traits@D@std@@SAXAADABD@Z 1007856b f i libcpmt:thread0.obj
 0001:0007757d       ?c_str@?$basic_string@DU?$char_traits@D@std@@V?$allocator@D@2@@std@@QBEPBDXZ 1007857d f i libcpmt:thread0.obj
 0001:0007758a       ?category@error_code@std@@QBEABVerror_category@2@XZ 1007858a f i libcpmt:thread0.obj
 0001:0007758e       ?category@error_condition@std@@QBEABVerror_category@2@XZ 1007858e f i libcpmt:thread0.obj
 0001:00077592       ?copy@?$char_traits@D@std@@SAPADPADPBDI@Z 10078592 f i libcpmt:thread0.obj
 0001:000775ab       ?deallocate@?$allocator@D@std@@QAEXPADI@Z 100785ab f i libcpmt:thread0.obj
 0001:000775c4       ?default_error_condition@error_category@std@@UBE?AVerror_condition@2@H@Z 100785c4 f i libcpmt:thread0.obj
 0001:000775da       ?empty@?$basic_string@DU?$char_traits@D@std@@V?$allocator@D@2@@std@@QBE_NXZ 100785da f i libcpmt:thread0.obj
 0001:000775e5       ?equivalent@error_category@std@@UBE_NABVerror_code@2@H@Z 100785e5 f i libcpmt:thread0.obj
 0001:00077613       ?equivalent@error_category@std@@UBE_NHABVerror_condition@2@@Z 10078613 f i libcpmt:thread0.obj
 0001:00077652       ?erase@?$basic_string@DU?$char_traits@D@std@@V?$allocator@D@2@@std@@QAEAAV12@I@Z 10078652 f i libcpmt:thread0.obj
 0001:00077686       ?generic_category@std@@YAABVerror_category@1@XZ 10078686 f i libcpmt:thread0.obj
 0001:0007768b       ?length@?$char_traits@D@std@@SAIPBD@Z 1007868b f i libcpmt:thread0.obj
 0001:000776af       ?max_size@?$_Wrap_alloc@V?$allocator@D@std@@@std@@QBEIU_Nil@2@@Z 100786af f i libcpmt:thread0.obj
 0001:000776b5       ?max_size@?$allocator@D@std@@QBEIXZ 100786b5 f i libcpmt:thread0.obj
 0001:000776b9       ?max_size@?$allocator_traits@V?$allocator@D@std@@@std@@SAIABV?$allocator@D@2@@Z 100786b9 f i libcpmt:thread0.obj
 0001:000776bd       ?max_size@?$basic_string@DU?$char_traits@D@std@@V?$allocator@D@2@@std@@QBEIXZ 100786bd f i libcpmt:thread0.obj
 0001:000776c1       ?message@_Generic_error_category@std@@UBE?AV?$basic_string@DU?$char_traits@D@std@@V?$allocator@D@2@@2@H@Z 100786c1 f i libcpmt:thread0.obj
 0001:000776ec       ?message@error_code@std@@QBE?AV?$basic_string@DU?$char_traits@D@std@@V?$allocator@D@2@@2@XZ 100786ec f i libcpmt:thread0.obj
 0001:00077724       ?move@?$char_traits@D@std@@SAPADPADPBDI@Z 10078724 f i libcpmt:thread0.obj
 0001:0007773d       ?name@_Generic_error_category@std@@UBEPBDXZ 1007873d f i libcpmt:thread0.obj
 0001:00077743       ?select_on_container_copy_construction@?$_Wrap_alloc@V?$allocator@D@std@@@std@@QBE?AU12@U_Nil@2@@Z 10078743 f i libcpmt:thread0.obj
 0001:0007774f       ?select_on_container_copy_construction@?$allocator_traits@V?$allocator@D@std@@@std@@SA?AV?$allocator@D@2@ABV32@@Z 1007874f f i libcpmt:thread0.obj
 0001:00077759       ?size@?$basic_string@DU?$char_traits@D@std@@V?$allocator@D@2@@std@@QBEIXZ 10078759 f i libcpmt:thread0.obj
 0001:0007775d       ?value@error_code@std@@QBEHXZ 1007875d f i libcpmt:thread0.obj
 0001:00077760       ?value@error_condition@std@@QBEHXZ 10078760 f i libcpmt:thread0.obj
 0001:00077763       __Query_perf_counter       10078763 f   libcpmt:xtime.obj
 0001:00077782       __Query_perf_frequency     10078782 f   libcpmt:xtime.obj
 0001:000777a1       __Xtime_diff_to_millis     100787a1 f   libcpmt:xtime.obj
 0001:000777ea       __Xtime_diff_to_millis2    100787ea f   libcpmt:xtime.obj
 0001:0007783c       __Xtime_get_ticks          1007883c f   libcpmt:xtime.obj
 0001:00077972       _xtime_get                 10078972 f   libcpmt:xtime.obj
 0001:00077ea5       ___crtAcquireSRWLockExclusive 10078ea5 f   libcpmt:winapisupp.obj
 0001:00077ecb       ___crtCloseThreadpoolTimer 10078ecb f   libcpmt:winapisupp.obj
 0001:00077ef4       ___crtCloseThreadpoolWait  10078ef4 f   libcpmt:winapisupp.obj
 0001:00077f1d       ___crtCloseThreadpoolWork  10078f1d f   libcpmt:winapisupp.obj
 0001:00077f43       ___crtCreateEventExW       10078f43 f   libcpmt:winapisupp.obj
 0001:00077f99       ___crtCreateSemaphoreExW   10078f99 f   libcpmt:winapisupp.obj
 0001:00078004       ___crtCreateSymbolicLinkW  10079004 f   libcpmt:winapisupp.obj
 0001:00078043       ___crtCreateThreadpoolTimer 10079043 f   libcpmt:winapisupp.obj
 0001:00078078       ___crtCreateThreadpoolWait 10079078 f   libcpmt:winapisupp.obj
 0001:000780ad       ___crtCreateThreadpoolWork 100790ad f   libcpmt:winapisupp.obj
 0001:000780db       ___crtFlsAlloc             100790db f   libcpmt:winapisupp.obj
 0001:0007810e       ___crtFlsFree              1007910e f   libcpmt:winapisupp.obj
 0001:00078141       ___crtFlsGetValue          10079141 f   libcpmt:winapisupp.obj
 0001:00078174       ___crtFlsSetValue          10079174 f   libcpmt:winapisupp.obj
 0001:000781ab       ___crtFlushProcessWriteBuffers 100791ab f   libcpmt:winapisupp.obj
 0001:000781cb       ___crtFreeLibraryWhenCallbackReturns 100791cb f   libcpmt:winapisupp.obj
 0001:000781f8       ___crtGetCurrentProcessorNumber 100791f8 f   libcpmt:winapisupp.obj
 0001:0007821d       ___crtGetFileInformationByHandleEx 1007921d f   libcpmt:winapisupp.obj
 0001:00078260       ___crtGetSystemTimePreciseAsFileTime 10079260 f   libcpmt:winapisupp.obj
 0001:00078293       ___crtGetTickCount64       10079293 f   libcpmt:winapisupp.obj
 0001:000782c0       ___crtInitOnceExecuteOnce  100792c0 f   libcpmt:winapisupp.obj
 0001:00078371       ___crtInitializeConditionVariable 10079371 f   libcpmt:winapisupp.obj
 0001:00078397       ___crtInitializeCriticalSectionEx 10079397 f   libcpmt:winapisupp.obj
 0001:000783dd       ___crtInitializeSRWLock    100793dd f   libcpmt:winapisupp.obj
 0001:00078403       ___crtIsPackagedApp        10079403 f   libcpmt:winapisupp.obj
 0001:00078429       ___crtReleaseSRWLockExclusive 10079429 f   libcpmt:winapisupp.obj
 0001:0007844f       ___crtSetFileInformationByHandle 1007944f f   libcpmt:winapisupp.obj
 0001:00078492       ___crtSetThreadpoolTimer   10079492 f   libcpmt:winapisupp.obj
 0001:000784c6       ___crtSetThreadpoolWait    100794c6 f   libcpmt:winapisupp.obj
 0001:000784f6       ___crtSleepConditionVariableCS 100794f6 f   libcpmt:winapisupp.obj
 0001:00078524       ___crtSleepConditionVariableSRW 10079524 f   libcpmt:winapisupp.obj
 0001:00078556       ___crtSubmitThreadpoolWork 10079556 f   libcpmt:winapisupp.obj
 0001:0007857c       ___crtTryAcquireSRWLockExclusive 1007957c f   libcpmt:winapisupp.obj
 0001:000785a2       ___crtWaitForThreadpoolTimerCallbacks 100795a2 f   libcpmt:winapisupp.obj
 0001:000785cf       ___crtWakeAllConditionVariable 100795cf f   libcpmt:winapisupp.obj
 0001:000785f5       ___crtWakeConditionVariable 100795f5 f   libcpmt:winapisupp.obj
 0001:0007861b       ___crt_IsPackagedAppHelper 1007961b f   libcpmt:winapisupp.obj
 0001:0007865f       ??$?0ABV?$allocator@_W@std@@$$V@?$_Compressed_pair@U?$_Wrap_alloc@V?$allocator@_W@std@@@std@@V?$_String_val@U?$_Simple_types@_W@std@@@2@$00@std@@QAE@U_One_then_variadic_args_t@1@ABV?$allocator@_W@1@@Z 1007965f f i libcpmt:syserror.obj
 0001:0007866f       ??$_Addressof@_W@std@@YAPA_WAA_WU?$integral_constant@_N$0A@@0@@Z 1007966f f i libcpmt:syserror.obj
 0001:00078679       ??$_Allocate@_W@std@@YAPA_WIPA_W_N@Z 10079679 f i libcpmt:syserror.obj
 0001:000786e7       ??$_Deallocate@_W@std@@YAXPA_WI@Z 100796e7 f i libcpmt:syserror.obj
 0001:0007873a       ??$addressof@_W@std@@YAPA_WAA_W@Z 1007973a f i libcpmt:syserror.obj
 0001:00078744       ??$construct@PA_WAAPA_W@?$_Wrap_alloc@V?$allocator@_W@std@@@std@@QAEXPAPA_WAAPA_W@Z 10079744 f i libcpmt:syserror.obj
 0001:0007875e       ??$construct@PA_WAAPA_W@?$allocator@_W@std@@QAEXPAPA_WAAPA_W@Z 1007975e f i libcpmt:syserror.obj
 0001:00078778       ??$construct@PA_WAAPA_W@?$allocator_traits@V?$allocator@_W@std@@@std@@SAXAAV?$allocator@_W@1@PAPA_WAAPA_W@Z 10079778 f i libcpmt:syserror.obj
 0001:0007878f       ??$destroy@PA_W@?$_Wrap_alloc@V?$allocator@_W@std@@@std@@QAEXPAPA_W@Z 1007978f f i libcpmt:syserror.obj
 0001:00078792       ??$destroy@PA_W@?$allocator@_W@std@@QAEXPAPA_W@Z 10079792 f i libcpmt:syserror.obj
 0001:00078795       ??$destroy@PA_W@?$allocator_traits@V?$allocator@_W@std@@@std@@SAXAAV?$allocator@_W@1@PAPA_W@Z 10079795 f i libcpmt:syserror.obj
 0001:00078796       ??$end@$$CBU_Sys_errtab_t@std@@$0EO@@std@@YAPBU_Sys_errtab_t@0@AAY0EO@$$CBU10@@Z 10079796 f i libcpmt:syserror.obj
 0001:000787a6       ??$end@$$CBU_Win_errtab_t@std@@$0EK@@std@@YAPBU_Win_errtab_t@0@AAY0EK@$$CBU10@@Z 100797a6 f i libcpmt:syserror.obj
 0001:000787b6       ??$forward@AAPA_W@std@@YAAAPA_WAAPA_W@Z 100797b6 f i libcpmt:syserror.obj
 0001:000787c0       ??$forward@ABV?$allocator@_W@std@@@std@@YAABV?$allocator@_W@0@ABV10@@Z 100797c0 f i libcpmt:syserror.obj
 0001:000787ca       ??0?$_String_alloc@U?$_String_base_types@_WV?$allocator@_W@std@@@std@@@std@@QAE@ABV?$allocator@_W@1@@Z 100797ca f i libcpmt:syserror.obj
 0001:000787da       ??0?$_String_val@U?$_Simple_types@_W@std@@@std@@QAE@XZ 100797da f i libcpmt:syserror.obj
 0001:000787e7       ??0?$_Wrap_alloc@V?$allocator@_W@std@@@std@@QAE@ABV?$allocator@_W@1@@Z 100797e7 f i libcpmt:syserror.obj
 0001:000787ec       ??0?$allocator@_W@std@@QAE@ABV01@@Z 100797ec f i libcpmt:syserror.obj
 0001:000787f1       ??0?$allocator@_W@std@@QAE@XZ 100797f1 f i libcpmt:syserror.obj
 0001:000787f4       ??0?$basic_string@_WU?$char_traits@_W@std@@V?$allocator@_W@2@@std@@QAE@I_W@Z 100797f4 f i libcpmt:syserror.obj
 0001:00078826       ??A?$basic_string@_WU?$char_traits@_W@std@@V?$allocator@_W@2@@std@@QAEAA_WI@Z 10079826 f i libcpmt:syserror.obj
 0001:00078840       ?_Bx@?$_String_alloc@U?$_String_base_types@_WV?$allocator@_W@std@@@std@@@std@@QAEAAT_Bxty@?$_String_val@U?$_Simple_types@_W@std@@@2@XZ 10079840 f i libcpmt:syserror.obj
 0001:00078843       ?_Eos@?$basic_string@_WU?$char_traits@_W@std@@V?$allocator@_W@2@@std@@QAEXI@Z 10079843 f i libcpmt:syserror.obj
 0001:00078864       ?_Get_data@?$_String_alloc@U?$_String_base_types@_WV?$allocator@_W@std@@@std@@@std@@QAEAAV?$_String_val@U?$_Simple_types@_W@std@@@2@XZ 10079864 f i libcpmt:syserror.obj
 0001:00078867       ?_Get_first@?$_Compressed_pair@U?$_Wrap_alloc@V?$allocator@_W@std@@@std@@V?$_String_val@U?$_Simple_types@_W@std@@@2@$00@std@@QAEAAU?$_Wrap_alloc@V?$allocator@_W@std@@@2@XZ 10079867 f i libcpmt:syserror.obj
 0001:0007886a       ?_Get_first@?$_Compressed_pair@U?$_Wrap_alloc@V?$allocator@_W@std@@@std@@V?$_String_val@U?$_Simple_types@_W@std@@@2@$00@std@@QBEABU?$_Wrap_alloc@V?$allocator@_W@std@@@2@XZ 1007986a f i libcpmt:syserror.obj
 0001:0007886d       ?_Get_second@?$_Compressed_pair@U?$_Wrap_alloc@V?$allocator@_W@std@@@std@@V?$_String_val@U?$_Simple_types@_W@std@@@2@$00@std@@QAEAAV?$_String_val@U?$_Simple_types@_W@std@@@2@XZ 1007986d f i libcpmt:syserror.obj
 0001:00078870       ?_Getal@?$_String_alloc@U?$_String_base_types@_WV?$allocator@_W@std@@@std@@@std@@QAEAAU?$_Wrap_alloc@V?$allocator@_W@std@@@2@XZ 10079870 f i libcpmt:syserror.obj
 0001:00078873       ?_Getal@?$_String_alloc@U?$_String_base_types@_WV?$allocator@_W@std@@@std@@@std@@QBEABU?$_Wrap_alloc@V?$allocator@_W@std@@@2@XZ 10079873 f i libcpmt:syserror.obj
 0001:00078876       ?_Grow@?$basic_string@_WU?$char_traits@_W@std@@V?$allocator@_W@2@@std@@QAE_NI_N@Z 10079876 f i libcpmt:syserror.obj
 0001:000788f3       ?_Myptr@?$_String_alloc@U?$_String_base_types@_WV?$allocator@_W@std@@@std@@@std@@QAEPA_WXZ 100798f3 f i libcpmt:syserror.obj
 0001:00078900       ?_Myptr@?$_String_val@U?$_Simple_types@_W@std@@@std@@QAEPA_WXZ 10079900 f i libcpmt:syserror.obj
 0001:0007890d       ?_Myres@?$_String_alloc@U?$_String_base_types@_WV?$allocator@_W@std@@@std@@@std@@QAEAAIXZ 1007990d f i libcpmt:syserror.obj
 0001:00078911       ?_Mysize@?$_String_alloc@U?$_String_base_types@_WV?$allocator@_W@std@@@std@@@std@@QAEAAIXZ 10079911 f i libcpmt:syserror.obj
 0001:00078915       ?_Syserror_map@std@@YAPBDH@Z 10079915 f   libcpmt:syserror.obj
 0001:00078943       ?_Tidy@?$basic_string@_WU?$char_traits@_W@std@@V?$allocator@_W@2@@std@@QAEX_NI@Z 10079943 f i libcpmt:syserror.obj
 0001:000789ac       ?_Winerror_map@std@@YAHH@Z 100799ac f   libcpmt:syserror.obj
 0001:000789d6       ?_Winerror_message@std@@YAKKPADK@Z 100799d6 f   libcpmt:syserror.obj
 0001:00078a96       ?_Xlen@?$basic_string@_WU?$char_traits@_W@std@@V?$allocator@_W@2@@std@@QBEXXZ 10079a96 f i libcpmt:syserror.obj
 0001:00078aa3       ?allocate@?$_Wrap_alloc@V?$allocator@_W@std@@@std@@QAEPA_WI@Z 10079aa3 f i libcpmt:syserror.obj
 0001:00078abe       ?assign@?$basic_string@_WU?$char_traits@_W@std@@V?$allocator@_W@2@@std@@QAEAAV12@I_W@Z 10079abe f i libcpmt:syserror.obj
 0001:00078b1b       ?assign@?$char_traits@_W@std@@SAPA_WPA_WI_W@Z 10079b1b f i libcpmt:syserror.obj
 0001:00078b36       ?assign@?$char_traits@_W@std@@SAXAA_WAB_W@Z 10079b36 f i libcpmt:syserror.obj
 0001:00078b4b       ?copy@?$char_traits@_W@std@@SAPA_WPA_WPB_WI@Z 10079b4b f i libcpmt:syserror.obj
 0001:00078b75       ?deallocate@?$allocator@_W@std@@QAEXPA_WI@Z 10079b75 f i libcpmt:syserror.obj
 0001:00078b8e       ?max_size@?$_Wrap_alloc@V?$allocator@_W@std@@@std@@QBEIU_Nil@2@@Z 10079b8e f i libcpmt:syserror.obj
 0001:00078b98       ?max_size@?$allocator@_W@std@@QBEIXZ 10079b98 f i libcpmt:syserror.obj
 0001:00078b9e       ?max_size@?$allocator_traits@V?$allocator@_W@std@@@std@@SAIABV?$allocator@_W@2@@Z 10079b9e f i libcpmt:syserror.obj
 0001:00078ba4       ?max_size@?$basic_string@_WU?$char_traits@_W@std@@V?$allocator@_W@2@@std@@QBEIXZ 10079ba4 f i libcpmt:syserror.obj
 0001:00078baa       _wmemcpy                   10079baa f i libcpmt:syserror.obj
 0001:00078bc9       _wmemset                   10079bc9 f i libcpmt:syserror.obj
 0001:00078bfd       ??2@YAPAXI@Z               10079bfd f   LIBCMT:new_scalar.obj
 0001:00078c3c       ??3@YAXPAX@Z               10079c3c f   LIBCMT:delete_scalar.obj
 0001:00078c41       ??3@YAXPAXI@Z              10079c41 f   LIBCMT:delete_scalar_size.obj
 0001:00078c52       ??$__crt_fast_decode_pointer@PAP6AXXZ@@YAPAP6AXXZQAP6AXXZ@Z 10079c52 f i LIBCMT:utility.obj
 0001:00078c6b       ??$__crt_fast_encode_pointer@PAP6AXXZ@@YAPAP6AXXZQAP6AXXZ@Z 10079c6b f i LIBCMT:utility.obj
 0001:00078c8f       ?__crt_rotate_pointer_value@@YAIIH@Z 10079c8f f i LIBCMT:utility.obj
 0001:00078d33       _NtCurrentTeb              10079d33 f i LIBCMT:utility.obj
 0001:00078d3a       ___scrt_acquire_startup_lock 10079d3a f   LIBCMT:utility.obj
 0001:00078d7c       ___scrt_dllmain_after_initialize_c 10079d7c f   LIBCMT:utility.obj
 0001:00078d9a       ___scrt_dllmain_before_initialize_c 10079d9a f   LIBCMT:utility.obj
 0001:00078dab       ___scrt_dllmain_crt_thread_attach 10079dab f   LIBCMT:utility.obj
 0001:00078dd1       ___scrt_dllmain_crt_thread_detach 10079dd1 f   LIBCMT:utility.obj
 0001:00078de1       ___scrt_dllmain_exception_filter 10079de1 f   LIBCMT:utility.obj
 0001:00078e20       ___scrt_dllmain_uninitialize_c 10079e20 f   LIBCMT:utility.obj
 0001:00078e4b       ___scrt_dllmain_uninitialize_critical 10079e4b f   LIBCMT:utility.obj
 0001:00078e5b       ___scrt_initialize_crt     10079e5b f   LIBCMT:utility.obj
 0001:00078ea2       ___scrt_initialize_onexit_tables 10079ea2 f   LIBCMT:utility.obj
 0001:00078f5e       ___scrt_is_nonwritable_in_current_image 10079f5e f   LIBCMT:utility.obj
 0001:0007900e       ___scrt_release_startup_lock 1007a00e f   LIBCMT:utility.obj
 0001:00079032       ___scrt_uninitialize_crt   1007a032 f   LIBCMT:utility.obj
 0001:00079064       __onexit                   1007a064 f   LIBCMT:utility.obj
 0001:000790ad       _at_quick_exit             1007a0ad f   LIBCMT:utility.obj
 0001:000790ea       _atexit                    1007a0ea f   LIBCMT:utility.obj
 0001:000791f4       ??$__crt_fast_decode_pointer@P6GHPAU_RTL_CONDITION_VARIABLE@@PAU_RTL_CRITICAL_SECTION@@K@Z@@YAP6GHPAU_RTL_CONDITION_VARIABLE@@PAU_RTL_CRITICAL_SECTION@@K@ZQ6GH01K@Z@Z 1007a1f4 f i LIBCMT:thread_safe_statics.obj
 0001:0007920d       ??$__crt_fast_decode_pointer@P6GXPAU_RTL_CONDITION_VARIABLE@@@Z@@YAP6GXPAU_RTL_CONDITION_VARIABLE@@@ZQ6GX0@Z@Z 1007a20d f i LIBCMT:thread_safe_statics.obj
 0001:00079226       ??$__crt_fast_encode_pointer@P6GHPAU_RTL_CONDITION_VARIABLE@@PAU_RTL_CRITICAL_SECTION@@K@Z@@YAP6GHPAU_RTL_CONDITION_VARIABLE@@PAU_RTL_CRITICAL_SECTION@@K@ZQ6GH01K@Z@Z 1007a226 f i LIBCMT:thread_safe_statics.obj
 0001:0007924a       ??$__crt_fast_encode_pointer@P6GXPAU_RTL_CONDITION_VARIABLE@@@Z@@YAP6GXPAU_RTL_CONDITION_VARIABLE@@@ZQ6GX0@Z@Z 1007a24a f i LIBCMT:thread_safe_statics.obj
 0001:00079291       __Init_thread_abort        1007a291 f   LIBCMT:thread_safe_statics.obj
 0001:000792b0       __Init_thread_footer       1007a2b0 f   LIBCMT:thread_safe_statics.obj
 0001:000792fe       __Init_thread_header       1007a2fe f   LIBCMT:thread_safe_statics.obj
 0001:00079355       __Init_thread_lock         1007a355 f   LIBCMT:thread_safe_statics.obj
 0001:00079364       __Init_thread_notify       1007a364 f   LIBCMT:thread_safe_statics.obj
 0001:000793b5       __Init_thread_unlock       1007a3b5 f   LIBCMT:thread_safe_statics.obj
 0001:000793c4       __Init_thread_wait         1007a3c4 f   LIBCMT:thread_safe_statics.obj
 0001:00079442       @__security_check_cookie@4 1007a442 f   LIBCMT:_secchk_.obj
 0001:00079460       __alloca_probe             1007a460 f   LIBCMT:chkstk.obj
 0001:00079460       __chkstk                   1007a460 f   LIBCMT:chkstk.obj
 0001:000794a0       __ftol2_sse                1007a4a0 f   LIBCMT:_ftol2_.obj
 0001:000794a9       __ftol2_pentium4           1007a4a9 f   LIBCMT:_ftol2_.obj
 0001:000794bc       __ftol2_sse_excpt          1007a4bc f   LIBCMT:_ftol2_.obj
 0001:000794e0       __ftol2                    1007a4e0 f   LIBCMT:_ftol2_.obj
 0001:00079590       __ftoui3                   1007a590 f   LIBCMT:_ftol3_.obj
 0001:0007959f       __ftoul3                   1007a59f f   LIBCMT:_ftol3_.obj
 0001:000795ae       __ftol3                    1007a5ae f   LIBCMT:_ftol3_.obj
 0001:000795bb       __ftol3_NaN                1007a5bb f   LIBCMT:_ftol3_.obj
 0001:000795d3       __ftol3_work               1007a5d3 f   LIBCMT:_ftol3_.obj
 0001:00079659       __ftol3_common             1007a659 f   LIBCMT:_ftol3_.obj
 0001:0007971b       __ftol3_arg_error          1007a71b f   LIBCMT:_ftol3_.obj
 0001:0007972d       __ftol3_except             1007a72d f   LIBCMT:_ftol3_.obj
 0001:00079771       __dtoui3                   1007a771 f   LIBCMT:_ftol3_.obj
 0001:00079780       __dtoul3                   1007a780 f   LIBCMT:_ftol3_.obj
 0001:0007978f       __dtol3                    1007a78f f   LIBCMT:_ftol3_.obj
 0001:0007979c       __dtol3_NaN                1007a79c f   LIBCMT:_ftol3_.obj
 0001:000797b9       __dtol3_work               1007a7b9 f   LIBCMT:_ftol3_.obj
 0001:000798a0       __ultod3                   1007a8a0 f   LIBCMT:_ftol3_.obj
 0001:000798e0       __ltod3                    1007a8e0 f   LIBCMT:_ftol3_.obj
 0001:000799e4       ??_U@YAPAXI@Z              1007a9e4 f   LIBCMT:new_array.obj
 0001:000799ef       ??_V@YAXPAX@Z              1007a9ef f   LIBCMT:delete_array.obj
 0001:000799f4       ??1type_info@@UAE@XZ       1007a9f4 f   LIBCMT:std_type_info_static.obj
 0001:000799fb       ??_Etype_info@@UAEPAXI@Z   1007a9fb f i LIBCMT:std_type_info_static.obj
 0001:000799fb       ??_Gtype_info@@UAEPAXI@Z   1007a9fb f i LIBCMT:std_type_info_static.obj
 0001:00079dfe       __CRT_INIT@12              1007adfe f   LIBCMT:dll_dllmain.obj
 0001:00079e09       __DllMainCRTStartup@12     1007ae09 f   LIBCMT:dll_dllmain.obj
 0001:00079e34       ??_M@YGXPAXIHP6EX0@Z@Z     1007ae34 f   LIBCMT:ehvecdtr.obj
 0001:00079e39       ??_M@YGXPAXIIP6EX0@Z@Z     1007ae39 f   LIBCMT:ehvecdtr.obj
 0001:00079ef0       ?__ArrayUnwind@@YGXPAXIIP6EX0@Z@Z 1007aef0 f   LIBCMT:ehvecdtr.obj
 0001:00079f78       ??_V@YAXPAXI@Z             1007af78 f   LIBCMT:delete_array_size.obj
 0001:00079f89       @_guard_check_icall@4      1007af89 f i LIBCMT:checkcfg.obj
 0001:00079f8f       __EH_epilog3               1007af8f f   LIBCMT:ehprolg3.obj
 0001:00079fa9       __EH_epilog3_GS            1007afa9 f   LIBCMT:ehprolg3.obj
 0001:00079fbe       __EH_epilog3_catch_GS      1007afbe f   LIBCMT:ehprolg3.obj
 0001:00079fd3       __EH_prolog3               1007afd3 f   LIBCMT:ehprolg3.obj
 0001:0007a014       __EH_prolog3_GS            1007b014 f   LIBCMT:ehprolg3.obj
 0001:0007a058       __EH_prolog3_catch         1007b058 f   LIBCMT:ehprolg3.obj
 0001:0007a09c       __EH_prolog3_catch_GS      1007b09c f   LIBCMT:ehprolg3.obj
 0001:0007a0f0       __aulldvrm                 1007b0f0 f   LIBCMT:ulldvrm.obj
 0001:0007a1aa       ??0bad_alloc@std@@AAE@QBD@Z 1007b1aa f i LIBCMT:throw_bad_alloc.obj
 0001:0007a1ce       ??0bad_array_new_length@std@@QAE@ABV01@@Z 1007b1ce f i LIBCMT:throw_bad_alloc.obj
 0001:0007a1f7       ??0bad_array_new_length@std@@QAE@XZ 1007b1f7 f i LIBCMT:throw_bad_alloc.obj
 0001:0007a215       ??1bad_array_new_length@std@@UAE@XZ 1007b215 f i LIBCMT:throw_bad_alloc.obj
 0001:0007a22a       ??_Ebad_array_new_length@std@@UAEPAXI@Z 1007b22a f i LIBCMT:throw_bad_alloc.obj
 0001:0007a22a       ??_Gbad_array_new_length@std@@UAEPAXI@Z 1007b22a f i LIBCMT:throw_bad_alloc.obj
 0001:0007a262       ?__scrt_throw_std_bad_alloc@@YAXXZ 1007b262 f   LIBCMT:throw_bad_alloc.obj
 0001:0007a286       ?__scrt_throw_std_bad_array_new_length@@YAXXZ 1007b286 f   LIBCMT:throw_bad_alloc.obj
 0001:0007a2aa       ___isa_available_init      1007b2aa f   LIBCMT:_cpu_disp_.obj
 0001:0007a4b3       ___scrt_is_ucrt_dll_in_use 1007b4b3 f   LIBCMT:ucrt_detection.obj
 0001:0007a4c2       ___scrt_fastfail           1007b4c2 f   LIBCMT:utility_desktop.obj
 0001:0007a623       ___scrt_get_show_window_mode 1007b623 f   LIBCMT:utility_desktop.obj
 0001:0007a662       ___scrt_initialize_winrt   1007b662 f   LIBCMT:utility_desktop.obj
 0001:0007a665       ___scrt_is_managed_app     1007b665 f   LIBCMT:utility_desktop.obj
 0001:0007a6ba       ___scrt_set_unhandled_exception_filter 1007b6ba f   LIBCMT:utility_desktop.obj
 0001:0007a6c9       ___scrt_unhandled_exception_filter@4 1007b6c9 f   LIBCMT:utility_desktop.obj
 0001:0007a71a       __crt_debugger_hook        1007b71a f   LIBCMT:utility_desktop.obj
 0001:0007a730       __SEH_prolog4              1007b730 f   LIBCMT:_sehprolg4_.obj
 0001:0007a776       __SEH_epilog4              1007b776 f   LIBCMT:_sehprolg4_.obj
 0001:0007a7a1       ___raise_securityfailure   1007b7a1 f   LIBCMT:gs_report.obj
 0001:0007a7d3       ___report_gsfailure        1007b7d3 f   LIBCMT:gs_report.obj
 0001:0007a90c       ___report_rangecheckfailure 1007b90c f   LIBCMT:gs_report.obj
 0001:0007a91b       ___report_securityfailure  1007b91b f   LIBCMT:gs_report.obj
 0001:0007aa1f       ___report_securityfailureEx 1007ba1f f   LIBCMT:gs_report.obj
 0001:0007ab7a       ___security_init_cookie    1007bb7a f   LIBCMT:gs_support.obj
 0001:0007ac3d       ?__scrt_initialize_type_info@@YAXXZ 1007bc3d f   LIBCMT:tncleanup.obj
 0001:0007ac4c       ?__scrt_uninitialize_type_info@@YAXXZ 1007bc4c f   LIBCMT:tncleanup.obj
 0001:0007ac5b       ___scrt_initialize_default_local_stdio_options 1007bc5b f   LIBCMT:default_local_stdio_options.obj
 0001:0007ac7f       ___scrt_get_dyn_tls_init_callback 1007bc7f f   LIBCMT:dyn_tls_init.obj
 0001:0007ac85       __RTC_Initialize           1007bc85 f   LIBCMT:_initsect_.obj
 0001:0007acba       __RTC_Terminate            1007bcba f   LIBCMT:_initsect_.obj
 0001:0007acef       @_guard_check_icall_nop@4  1007bcef f i LIBCMT:guard_support.obj
 0001:0007acf0       __guard_icall_checks_enforced 1007bcf0 f i LIBCMT:guard_support.obj
 0001:0007ad06       ??0?$_SpinWait@$00@details@Concurrency@@QAE@P6AXXZ@Z 1007bd06 f i libconcrt:rtlocks.obj
 0001:0007ad1d       ??0?$_SpinWait@$0A@@details@Concurrency@@QAE@P6AXXZ@Z 1007bd1d f i libconcrt:rtlocks.obj
 0001:0007ad34       ??0LockQueueNode@details@Concurrency@@QAE@I@Z 1007bd34 f i libconcrt:rtlocks.obj
 0001:0007ae03       ??0LockQueueNode@details@Concurrency@@QAE@PAVContext@2@I@Z 1007be03 f i libconcrt:rtlocks.obj
 0001:0007ae2d       ??0_NonReentrantBlockingLock@details@Concurrency@@QAE@XZ 1007be2d f   libconcrt:rtlocks.obj
 0001:0007ae47       ??0_NonReentrantPPLLock@details@Concurrency@@QAE@XZ 1007be47 f   libconcrt:rtlocks.obj
 0001:0007ae56       ??0_ReaderWriterLock@details@Concurrency@@QAE@XZ 1007be56 f   libconcrt:rtlocks.obj
 0001:0007ae6a       ??0_ReentrantBlockingLock@details@Concurrency@@QAE@XZ 1007be6a f   libconcrt:rtlocks.obj
 0001:0007ae84       ??0_ReentrantLock@details@Concurrency@@QAE@XZ 1007be84 f   libconcrt:rtlocks.obj
 0001:0007ae94       ??0_ReentrantPPLLock@details@Concurrency@@QAE@XZ 1007be94 f   libconcrt:rtlocks.obj
 0001:0007aeb0       ??0_Scoped_lock@_NonReentrantPPLLock@details@Concurrency@@QAE@AAV123@@Z 1007beb0 f   libconcrt:rtlocks.obj
 0001:0007af06       ??0_Scoped_lock@_ReentrantPPLLock@details@Concurrency@@QAE@AAV123@@Z 1007bf06 f   libconcrt:rtlocks.obj
 0001:0007af59       ??0critical_section@Concurrency@@QAE@XZ 1007bf59 f   libconcrt:rtlocks.obj
 0001:0007af8d       ??0improper_lock@Concurrency@@QAE@ABV01@@Z 1007bf8d f i libconcrt:rtlocks.obj
 0001:0007afb6       ??0reader_writer_lock@Concurrency@@QAE@XZ 1007bfb6 f   libconcrt:rtlocks.obj
 0001:0007aff2       ??0scoped_lock@critical_section@Concurrency@@QAE@AAV12@@Z 1007bff2 f   libconcrt:rtlocks.obj
 0001:0007b048       ??0scoped_lock@reader_writer_lock@Concurrency@@QAE@AAV12@@Z 1007c048 f   libconcrt:rtlocks.obj
 0001:0007b09e       ??0scoped_lock_read@reader_writer_lock@Concurrency@@QAE@AAV12@@Z 1007c09e f   libconcrt:rtlocks.obj
 0001:0007b0ba       ??1_NonReentrantBlockingLock@details@Concurrency@@QAE@XZ 1007c0ba f   libconcrt:rtlocks.obj
 0001:0007b0c4       ??1_ReentrantBlockingLock@details@Concurrency@@QAE@XZ 1007c0c4 f   libconcrt:rtlocks.obj
 0001:0007b0ce       ??1_Scoped_lock@_NonReentrantPPLLock@details@Concurrency@@QAE@XZ 1007c0ce f   libconcrt:rtlocks.obj
 0001:0007b114       ??1_Scoped_lock@_ReentrantPPLLock@details@Concurrency@@QAE@XZ 1007c114 f   libconcrt:rtlocks.obj
 0001:0007b15a       ??1critical_section@Concurrency@@QAE@XZ 1007c15a f   libconcrt:rtlocks.obj
 0001:0007b15b       ??1improper_lock@Concurrency@@UAE@XZ 1007c15b f i libconcrt:rtlocks.obj
 0001:0007b170       ??1reader_writer_lock@Concurrency@@QAE@XZ 1007c170 f   libconcrt:rtlocks.obj
 0001:0007b171       ??1scoped_lock@critical_section@Concurrency@@QAE@XZ 1007c171 f   libconcrt:rtlocks.obj
 0001:0007b1b7       ??1scoped_lock@reader_writer_lock@Concurrency@@QAE@XZ 1007c1b7 f   libconcrt:rtlocks.obj
 0001:0007b1fd       ??1scoped_lock_read@reader_writer_lock@Concurrency@@QAE@XZ 1007c1fd f   libconcrt:rtlocks.obj
 0001:0007b243       ??_Eimproper_lock@Concurrency@@UAEPAXI@Z 1007c243 f i libconcrt:rtlocks.obj
 0001:0007b243       ??_Gimproper_lock@Concurrency@@UAEPAXI@Z 1007c243 f i libconcrt:rtlocks.obj
 0001:0007b27b       ?Block@LockQueueNode@details@Concurrency@@QAEXI@Z 1007c27b f i libconcrt:rtlocks.obj
 0001:0007b325       ?Copy@LockQueueNode@details@Concurrency@@QAEXPAV123@@Z 1007c325 f i libconcrt:rtlocks.obj
 0001:0007b345       ?CurrentContext@SchedulerBase@details@Concurrency@@SAPAVContextBase@23@XZ 1007c345 f i libconcrt:rtlocks.obj
 0001:0007b36f       ?DerefTimerNode@LockQueueNode@details@Concurrency@@QAEXXZ 1007c36f f i libconcrt:rtlocks.obj
 0001:0007b395       ?DispatchNodeTimeoutTimer@LockQueueNode@details@Concurrency@@SGXPAU_TP_CALLBACK_INSTANCE@@PAXPAU_TP_TIMER@@@Z 1007c395 f i libconcrt:rtlocks.obj
 0001:0007b3ec       ?DispatchNodeTimeoutTimerXP@LockQueueNode@details@Concurrency@@SGXPAXE@Z 1007c3ec f i libconcrt:rtlocks.obj
 0001:0007b44b       ?IsBlocked@LockQueueNode@details@Concurrency@@AAE_NXZ 1007c44b f i libconcrt:rtlocks.obj
 0001:0007b452       ?IsOneShotInitialized@SchedulerBase@details@Concurrency@@SA_NXZ 1007c452 f i libconcrt:rtlocks.obj
 0001:0007b467       ?IsPreviousBlocked@LockQueueNode@details@Concurrency@@AAE_NXZ 1007c467 f i libconcrt:rtlocks.obj
 0001:0007b473       ?IsTicketValid@LockQueueNode@details@Concurrency@@AAE_NXZ 1007c473 f i libconcrt:rtlocks.obj
 0001:0007b47e       ?TryCompensateTimer@LockQueueNode@details@Concurrency@@QAEXXZ 1007c47e f i libconcrt:rtlocks.obj
 0001:0007b4ac       ?Unblock@LockQueueNode@details@Concurrency@@QAE_NXZ 1007c4ac f i libconcrt:rtlocks.obj
 0001:0007b4e9       ?UnblockWithoutContext@LockQueueNode@details@Concurrency@@QAEXXZ 1007c4e9 f i libconcrt:rtlocks.obj
 0001:0007b4ee       ?UpdateBlockingState@LockQueueNode@details@Concurrency@@QAEXPAV123@@Z 1007c4ee f i libconcrt:rtlocks.obj
 0001:0007b53a       ?UpdateQueuePosition@LockQueueNode@details@Concurrency@@QAEXPAV123@@Z 1007c53a f i libconcrt:rtlocks.obj
 0001:0007b5bd       ?WaitForNextNode@LockQueueNode@details@Concurrency@@QAEPAV123@XZ 1007c5bd f i libconcrt:rtlocks.obj
 0001:0007b5f5       ?_Acquire@_NonReentrantBlockingLock@details@Concurrency@@QAEXXZ 1007c5f5 f   libconcrt:rtlocks.obj
 0001:0007b5ff       ?_Acquire@_NonReentrantPPLLock@details@Concurrency@@QAEXPAX@Z 1007c5ff f   libconcrt:rtlocks.obj
 0001:0007b614       ?_Acquire@_ReentrantBlockingLock@details@Concurrency@@QAEXXZ 1007c614 f   libconcrt:rtlocks.obj
 0001:0007b61e       ?_Acquire@_ReentrantLock@details@Concurrency@@QAEXXZ 1007c61e f   libconcrt:rtlocks.obj
 0001:0007b68a       ?_Acquire@_ReentrantPPLLock@details@Concurrency@@QAEXPAX@Z 1007c68a f   libconcrt:rtlocks.obj
 0001:0007b6cc       ?_AcquireRead@_ReaderWriterLock@details@Concurrency@@QAEXXZ 1007c6cc f   libconcrt:rtlocks.obj
 0001:0007b708       ?_AcquireWrite@_ReaderWriterLock@details@Concurrency@@QAEXXZ 1007c708 f   libconcrt:rtlocks.obj
 0001:0007b741       ?_Acquire_lock@critical_section@Concurrency@@QAE_NPAX_N@Z 1007c741 f   libconcrt:rtlocks.obj
 0001:0007b80a       ?_Acquire_lock@reader_writer_lock@Concurrency@@QAEXPAX_N@Z 1007c80a f   libconcrt:rtlocks.obj
 0001:0007b8c0       ?_DebugAcquire@_NonReentrantLock@details@Concurrency@@AAEXXZ 1007c8c0 f   libconcrt:rtlocks.obj
 0001:0007b8c1       ?_DebugTryAcquire@_NonReentrantLock@details@Concurrency@@AAE_NXZ 1007c8c1 f   libconcrt:rtlocks.obj
 0001:0007b8c4       ?_DoYield@?$_SpinWait@$00@details@Concurrency@@IAEXXZ 1007c8c4 f i libconcrt:rtlocks.obj
 0001:0007b8d6       ?_DoYield@?$_SpinWait@$0A@@details@Concurrency@@IAEXXZ 1007c8d6 f i libconcrt:rtlocks.obj
 0001:0007b8d9       ?_FlushWriteOwners@_ReaderWriterLock@details@Concurrency@@QAEXXZ 1007c8d9 f   libconcrt:rtlocks.obj
 0001:0007b8f4       ?_Flush_current_owner@critical_section@Concurrency@@QAEXXZ 1007c8f4 f   libconcrt:rtlocks.obj
 0001:0007b912       ?_Get_reader_convoy@reader_writer_lock@Concurrency@@AAEPAXXZ 1007c912 f   libconcrt:rtlocks.obj
 0001:0007b937       ?_Initialize@_SpinCount@details@Concurrency@@SAXXZ 1007c937 f   libconcrt:rtlocks.obj
 0001:0007b953       ?_NumberOfSpins@?$_SpinWait@$00@details@Concurrency@@IAEKXZ 1007c953 f i libconcrt:rtlocks.obj
 0001:0007b957       ?_NumberOfSpins@?$_SpinWait@$0A@@details@Concurrency@@IAEKXZ 1007c957 f i libconcrt:rtlocks.obj
 0001:0007b95b       ?_Release@_NonReentrantBlockingLock@details@Concurrency@@QAEXXZ 1007c95b f   libconcrt:rtlocks.obj
 0001:0007b965       ?_Release@_NonReentrantPPLLock@details@Concurrency@@QAEXXZ 1007c965 f   libconcrt:rtlocks.obj
 0001:0007b96a       ?_Release@_ReentrantBlockingLock@details@Concurrency@@QAEXXZ 1007c96a f   libconcrt:rtlocks.obj
 0001:0007b974       ?_Release@_ReentrantLock@details@Concurrency@@QAEXXZ 1007c974 f   libconcrt:rtlocks.obj
 0001:0007b9a2       ?_Release@_ReentrantPPLLock@details@Concurrency@@QAEXXZ 1007c9a2 f   libconcrt:rtlocks.obj
 0001:0007b9b9       ?_ReleaseRead@_ReaderWriterLock@details@Concurrency@@QAEXXZ 1007c9b9 f   libconcrt:rtlocks.obj
 0001:0007b9bd       ?_ReleaseWrite@_ReaderWriterLock@details@Concurrency@@QAEXXZ 1007c9bd f   libconcrt:rtlocks.obj
 0001:0007b9ca       ?_Remove_last_writer@reader_writer_lock@Concurrency@@AAEXPAX@Z 1007c9ca f   libconcrt:rtlocks.obj
 0001:0007ba11       ?_Reset@?$_SpinWait@$00@details@Concurrency@@IAEXXZ 1007ca11 f i libconcrt:rtlocks.obj
 0001:0007ba25       ?_Reset@?$_SpinWait@$0A@@details@Concurrency@@IAEXXZ 1007ca25 f i libconcrt:rtlocks.obj
 0001:0007ba39       ?_SetSpinCount@?$_SpinWait@$00@details@Concurrency@@QAEXI@Z 1007ca39 f i libconcrt:rtlocks.obj
 0001:0007ba63       ?_SetSpinCount@?$_SpinWait@$0A@@details@Concurrency@@QAEXI@Z 1007ca63 f i libconcrt:rtlocks.obj
 0001:0007ba90       ?_Set_next_writer@reader_writer_lock@Concurrency@@AAE_NPAX@Z 1007ca90 f   libconcrt:rtlocks.obj
 0001:0007bae3       ?_ShouldSpinAgain@?$_SpinWait@$00@details@Concurrency@@IAE_NXZ 1007cae3 f i libconcrt:rtlocks.obj
 0001:0007baf0       ?_ShouldSpinAgain@?$_SpinWait@$0A@@details@Concurrency@@IAE_NXZ 1007caf0 f i libconcrt:rtlocks.obj
 0001:0007bafd       ?_SpinOnce@?$_SpinWait@$00@details@Concurrency@@QAE_NXZ 1007cafd f i libconcrt:rtlocks.obj
 0001:0007bba5       ?_SpinOnce@?$_SpinWait@$0A@@details@Concurrency@@QAE_NXZ 1007cba5 f i libconcrt:rtlocks.obj
 0001:0007bc39       ?_Switch_to_active@critical_section@Concurrency@@AAEXPAX@Z 1007cc39 f   libconcrt:rtlocks.obj
 0001:0007bc9b       ?_Switch_to_active@reader_writer_lock@Concurrency@@AAEXPAX@Z 1007cc9b f   libconcrt:rtlocks.obj
 0001:0007bcfd       ?_TryAcquire@_NonReentrantBlockingLock@details@Concurrency@@QAE_NXZ 1007ccfd f   libconcrt:rtlocks.obj
 0001:0007bd0e       ?_TryAcquire@_ReentrantBlockingLock@details@Concurrency@@QAE_NXZ 1007cd0e f   libconcrt:rtlocks.obj
 0001:0007bd1f       ?_TryAcquire@_ReentrantLock@details@Concurrency@@QAE_NXZ 1007cd1f f   libconcrt:rtlocks.obj
 0001:0007bd56       ?_TryAcquireWrite@_ReaderWriterLock@details@Concurrency@@QAE_NXZ 1007cd56 f   libconcrt:rtlocks.obj
 0001:0007bd72       ?_Unlock_reader@reader_writer_lock@Concurrency@@AAEXXZ 1007cd72 f   libconcrt:rtlocks.obj
 0001:0007bd93       ?_Unlock_writer@reader_writer_lock@Concurrency@@AAEXXZ 1007cd93 f   libconcrt:rtlocks.obj
 0001:0007bdf2       ?_Value@_SpinCount@details@Concurrency@@SAIXZ 1007cdf2 f   libconcrt:rtlocks.obj
 0001:0007bdf8       ?_WaitEquals@_ReaderWriterLock@details@Concurrency@@CAXADJJJ@Z 1007cdf8 f   libconcrt:rtlocks.obj
 0001:0007be3f       ?lock@critical_section@Concurrency@@QAEXXZ 1007ce3f f   libconcrt:rtlocks.obj
 0001:0007be7b       ?lock@reader_writer_lock@Concurrency@@QAEXXZ 1007ce7b f   libconcrt:rtlocks.obj
 0001:0007beb7       ?lock_read@reader_writer_lock@Concurrency@@QAEXXZ 1007ceb7 f   libconcrt:rtlocks.obj
 0001:0007bf86       ?native_handle@critical_section@Concurrency@@QAEAAV12@XZ 1007cf86 f   libconcrt:rtlocks.obj
 0001:0007bf89       ?try_lock@critical_section@Concurrency@@QAE_NXZ 1007cf89 f   libconcrt:rtlocks.obj
 0001:0007bfe9       ?try_lock@reader_writer_lock@Concurrency@@QAE_NXZ 1007cfe9 f   libconcrt:rtlocks.obj
 0001:0007c06c       ?try_lock_for@critical_section@Concurrency@@QAE_NI@Z 1007d06c f   libconcrt:rtlocks.obj
 0001:0007c0e1       ?try_lock_read@reader_writer_lock@Concurrency@@QAE_NXZ 1007d0e1 f   libconcrt:rtlocks.obj
 0001:0007c10b       ?unlock@critical_section@Concurrency@@QAEXXZ 1007d10b f   libconcrt:rtlocks.obj
 0001:0007c198       ?unlock@reader_writer_lock@Concurrency@@QAEXXZ 1007d198 f   libconcrt:rtlocks.obj
 0001:0007c1b3       ??0DefaultWaiterPool@platform@details@Concurrency@@QAE@XZ 1007d1b3 f i libconcrt:Platform.obj
 0001:0007c1b6       ??0scheduler_resource_allocation_error@Concurrency@@QAE@ABV01@@Z 1007d1b6 f i libconcrt:Platform.obj
 0001:0007c1ea       ??1DefaultWaiterPool@platform@details@Concurrency@@QAE@XZ 1007d1ea f i libconcrt:Platform.obj
 0001:0007c218       ??1WaiterThreadPool@platform@details@Concurrency@@QAE@XZ 1007d218 f i libconcrt:Platform.obj
 0001:0007c242       ??1scheduler_resource_allocation_error@Concurrency@@UAE@XZ 1007d242 f i libconcrt:Platform.obj
 0001:0007c257       ??_GWaiterThreadPool@platform@details@Concurrency@@QAEPAXI@Z 1007d257 f i libconcrt:Platform.obj
 0001:0007c281       ??_Escheduler_resource_allocation_error@Concurrency@@UAEPAXI@Z 1007d281 f i libconcrt:Platform.obj
 0001:0007c281       ??_Gscheduler_resource_allocation_error@Concurrency@@UAEPAXI@Z 1007d281 f i libconcrt:Platform.obj
 0001:0007c2b9       ?InitializeSystemFunctionPointers@platform@details@Concurrency@@YAXXZ 1007d2b9 f   libconcrt:Platform.obj
 0001:0007c398       ?__ChangeTimerQueueTimer@platform@details@Concurrency@@YAHPAX0KK@Z 1007d398 f   libconcrt:Platform.obj
 0001:0007c3b4       ?__CloseThreadHandle@platform@details@Concurrency@@YAXPAX@Z 1007d3b4 f   libconcrt:Platform.obj
 0001:0007c3c5       ?__CreateAutoResetEvent@platform@details@Concurrency@@YAPAX_N@Z 1007d3c5 f   libconcrt:Platform.obj
 0001:0007c430       ?__CreateManualResetEvent@platform@details@Concurrency@@YAPAX_N@Z 1007d430 f   libconcrt:Platform.obj
 0001:0007c49e       ?__CreateThread@platform@details@Concurrency@@YAPAXPAU_SECURITY_ATTRIBUTES@@IP6GKPAX@Z1KPAK@Z 1007d49e f   libconcrt:Platform.obj
 0001:0007c4c2       ?__CreateTimerQueueTimer@platform@details@Concurrency@@YAHPAPAXPAXP6GX1E@Z1KKK@Z 1007d4c2 f   libconcrt:Platform.obj
 0001:0007c4ea       ?__DeleteTimerQueueTimer@platform@details@Concurrency@@YAXPAX00@Z 1007d4ea f   libconcrt:Platform.obj
 0001:0007c524       ?__GetCurrentProcessorNumberEx@platform@details@Concurrency@@YAXPAU_PROCESSOR_NUMBER@@@Z 1007d524 f   libconcrt:Platform.obj
 0001:0007c54d       ?__GetLogicalProcessorInformation@platform@details@Concurrency@@YAPAU_SYSTEM_LOGICAL_PROCESSOR_INFORMATION@@PAK@Z 1007d54d f   libconcrt:Platform.obj
 0001:0007c5fa       ?__GetLogicalProcessorInformationEx@platform@details@Concurrency@@YAPAU_SYSTEM_LOGICAL_PROCESSOR_INFORMATION_EX@@W4_LOGICAL_PROCESSOR_RELATIONSHIP@@PAK@Z 1007d5fa f   libconcrt:Platform.obj
 0001:0007c6dd       ?__GetNumaHighestNodeNumber@platform@details@Concurrency@@YAKXZ 1007d6dd f   libconcrt:Platform.obj
 0001:0007c735       ?__GetThreadGroupAffinity@platform@details@Concurrency@@YAHPAXPAU_GROUP_AFFINITY@@@Z 1007d735 f   libconcrt:Platform.obj
 0001:0007c7a5       ?__GetThreadPriority@platform@details@Concurrency@@YAHPAX@Z 1007d7a5 f   libconcrt:Platform.obj
 0001:0007c7b6       ?__GetTickCount64@platform@details@Concurrency@@YA_KXZ 1007d7b6 f   libconcrt:Platform.obj
 0001:0007c7bb       ?__InitializeCriticalSectionEx@platform@details@Concurrency@@YAHPAU_RTL_CRITICAL_SECTION@@K@Z 1007d7bb f   libconcrt:Platform.obj
 0001:0007c7d5       ?__RegisterWaitForSingleObject@platform@details@Concurrency@@YAPAXPAXP6GX0E@Z0@Z 1007d7d5 f   libconcrt:Platform.obj
 0001:0007c83e       ?__SetThreadGroupAffinity@platform@details@Concurrency@@YAHPAXPBU_GROUP_AFFINITY@@@Z 1007d83e f   libconcrt:Platform.obj
 0001:0007c891       ?__SetThreadPriority@platform@details@Concurrency@@YAXPAXH@Z 1007d891 f   libconcrt:Platform.obj
 0001:0007c8e8       ?__SignalObjectAndWait@platform@details@Concurrency@@YAKPAX0KH@Z 1007d8e8 f   libconcrt:Platform.obj
 0001:0007c904       ?__Sleep@platform@details@Concurrency@@YAXK@Z 1007d904 f   libconcrt:Platform.obj
 0001:0007c915       ?__SwitchToThread@platform@details@Concurrency@@YAXXZ 1007d915 f   libconcrt:Platform.obj
 0001:0007c91b       ?__TlsAlloc@platform@details@Concurrency@@YAKXZ 1007d91b f   libconcrt:Platform.obj
 0001:0007c96c       ?__TlsFree@platform@details@Concurrency@@YAXK@Z 1007d96c f   libconcrt:Platform.obj
 0001:0007c97d       ?__TlsGetValue@platform@details@Concurrency@@YAPAXK@Z 1007d97d f   libconcrt:Platform.obj
 0001:0007c98e       ?__TlsSetValue@platform@details@Concurrency@@YAXKPAX@Z 1007d98e f   libconcrt:Platform.obj
 0001:0007c9e5       ?__UnregisterWait@platform@details@Concurrency@@YAXPAX@Z 1007d9e5 f   libconcrt:Platform.obj
 0001:0007c9f6       ?__WaitForThread@platform@details@Concurrency@@YAKPAXK@Z 1007d9f6 f   libconcrt:Platform.obj
 0001:0007ca0d       ?notify@WaiterThread@platform@details@Concurrency@@AAEX_N@Z 1007da0d f i libconcrt:Platform.obj
 0001:0007ca4e       ?stop@WaiterThread@platform@details@Concurrency@@QAEXXZ 1007da4e f i libconcrt:Platform.obj
 0001:0007ca63       _HRESULT_FROM_WIN32        1007da63 f i libconcrt:Platform.obj
 0001:0007ca7c       __concrt_static_cleanup    1007da7c f   libconcrt:utils.obj
 0001:0007ca8d       ??$ConcRT_FillBuffer@$0EAB@@details@Concurrency@@YAXAAY0EAB@_WPB_WPAD@Z 1007da8d f i libconcrt:utils.obj
 0001:0007cbb2       ??0_SpinLock@details@Concurrency@@QAE@ACJ@Z 1007dbb2 f   libconcrt:utils.obj
 0001:0007cc0c       ??1_SpinLock@details@Concurrency@@QAE@XZ 1007dc0c f   libconcrt:utils.obj
 0001:0007cc13       ?DecodePointer@Security@details@Concurrency@@SAPAXPAX@Z 1007dc13 f   libconcrt:utils.obj
 0001:0007cc23       ?DeleteAsyncTimerAndUnloadLibrary@details@Concurrency@@YAXPAU_TP_TIMER@@@Z 1007dc23 f   libconcrt:utils.obj
 0001:0007cc6e       ?EncodePointer@Security@details@Concurrency@@SAPAXPAX@Z 1007dc6e f   libconcrt:utils.obj
 0001:0007cc7e       ?FreeLibraryAndDestroyThread@details@Concurrency@@YAXK@Z 1007dc7e f   libconcrt:utils.obj
 0001:0007ccb2       ?InitializeCookie@Security@details@Concurrency@@SAKXZ 1007dcb2 f   libconcrt:utils.obj
 0001:0007cd13       ?InitializeUtilityRoutines@details@Concurrency@@YAXXZ 1007dd13 f   libconcrt:utils.obj
 0001:0007cd14       ?LoadLibraryAndCreateThread@details@Concurrency@@YAPAXPAU_SECURITY_ATTRIBUTES@@KP6GKPAX@Z1KPAK@Z 1007dd14 f   libconcrt:utils.obj
 0001:0007cd6b       ?Log2@details@Concurrency@@YAKI@Z 1007dd6b f   libconcrt:utils.obj
 0001:0007cd7d       ?ReferenceLoadLibrary@details@Concurrency@@YAXXZ 1007dd7d f   libconcrt:utils.obj
 0001:0007ce38       ?ReferenceStaticOneShot@SchedulerBase@details@Concurrency@@SAJXZ 1007de38 f i libconcrt:utils.obj
 0001:0007ce48       ?RegisterAsyncTimerAndLoadLibrary@details@Concurrency@@YAPAU_TP_TIMER@@KP6GXPAU_TP_CALLBACK_INSTANCE@@PAXPAU3@@Z1_N@Z 1007de48 f   libconcrt:utils.obj
 0001:0007cec1       ?RegisterAsyncWaitAndLoadLibrary@details@Concurrency@@YAPAU_TP_WAIT@@PAXP6GXPAU_TP_CALLBACK_INSTANCE@@0PAU3@K@Z0@Z 1007dec1 f   libconcrt:utils.obj
 0001:0007cf08       ?UnRegisterAsyncTimerAndUnloadLibrary@details@Concurrency@@YAXPAU_TP_CALLBACK_INSTANCE@@PAU_TP_TIMER@@@Z 1007df08 f   libconcrt:utils.obj
 0001:0007cf4b       ?UnRegisterAsyncWaitAndUnloadLibrary@details@Concurrency@@YAXPAU_TP_CALLBACK_INSTANCE@@PAU_TP_WAIT@@@Z 1007df4b f   libconcrt:utils.obj
 0001:0007cf8d       ?_Acquire@_CriticalNonReentrantLock@details@Concurrency@@QAEXXZ 1007df8d f   libconcrt:utils.obj
 0001:0007cfa1       ?_Acquire@_HyperNonReentrantLock@details@Concurrency@@QAEXXZ 1007dfa1 f   libconcrt:utils.obj
 0001:0007cfb5       ?_Acquire@_NonReentrantLock@details@Concurrency@@QAEXXZ 1007dfb5 f i libconcrt:utils.obj
 0001:0007cff4       ?_ConcRT_CoreAssert@details@Concurrency@@YAXPBD0H@Z 1007dff4 f   libconcrt:utils.obj
 0001:0007cff6       ?_ConcRT_Trace@details@Concurrency@@YAXHPB_WZZ 1007dff6 f   libconcrt:utils.obj
 0001:0007d0da       ?_GetConcurrency@details@Concurrency@@YAIXZ 1007e0da f   libconcrt:utils.obj
 0001:0007d0df       ?_Release@_CriticalNonReentrantLock@details@Concurrency@@QAEXXZ 1007e0df f   libconcrt:utils.obj
 0001:0007d0ec       ?_Release@_HyperNonReentrantLock@details@Concurrency@@QAEXXZ 1007e0ec f   libconcrt:utils.obj
 0001:0007d0f9       ?_Release@_NonReentrantLock@details@Concurrency@@QAEXXZ 1007e0f9 f i libconcrt:utils.obj
 0001:0007d100       ?_Sleep0@details@Concurrency@@YAXXZ 1007e100 f   libconcrt:utils.obj
 0001:0007d10b       ?_TryAcquire@_CriticalNonReentrantLock@details@Concurrency@@QAE_NXZ 1007e10b f   libconcrt:utils.obj
 0001:0007d133       ?_TryAcquire@_HyperNonReentrantLock@details@Concurrency@@QAE_NXZ 1007e133 f   libconcrt:utils.obj
 0001:0007d15b       ?_TryAcquire@_NonReentrantLock@details@Concurrency@@QAE_NXZ 1007e15b f i libconcrt:utils.obj
 0001:0007d175       ?_UnderlyingYield@details@Concurrency@@YAXXZ 1007e175 f   libconcrt:utils.obj
 0001:0007d1a4       __vfwprintf_l              1007e1a4 f i libconcrt:utils.obj
 0001:0007d1cf       __vswprintf_s_l            1007e1cf f i libconcrt:utils.obj
 0001:0007d207       _fwprintf                  1007e207 f i libconcrt:utils.obj
 0001:0007d226       _swprintf_s                1007e226 f i libconcrt:utils.obj
 0001:0007d249       _vswprintf_s               1007e249 f i libconcrt:utils.obj
 0001:0007d26a       ??0bad_target@Concurrency@@QAE@PBD@Z 1007e26a f   libconcrt:Exceptions.obj
 0001:0007d28b       ??0bad_target@Concurrency@@QAE@XZ 1007e28b f   libconcrt:Exceptions.obj
 0001:0007d2a0       ??0context_self_unblock@Concurrency@@QAE@PBD@Z 1007e2a0 f   libconcrt:Exceptions.obj
 0001:0007d2c1       ??0context_self_unblock@Concurrency@@QAE@XZ 1007e2c1 f   libconcrt:Exceptions.obj
 0001:0007d2d6       ??0context_unblock_unbalanced@Concurrency@@QAE@PBD@Z 1007e2d6 f   libconcrt:Exceptions.obj
 0001:0007d2f7       ??0context_unblock_unbalanced@Concurrency@@QAE@XZ 1007e2f7 f   libconcrt:Exceptions.obj
 0001:0007d30c       ??0default_scheduler_exists@Concurrency@@QAE@PBD@Z 1007e30c f   libconcrt:Exceptions.obj
 0001:0007d32d       ??0default_scheduler_exists@Concurrency@@QAE@XZ 1007e32d f   libconcrt:Exceptions.obj
 0001:0007d342       ??0improper_lock@Concurrency@@QAE@PBD@Z 1007e342 f   libconcrt:Exceptions.obj
 0001:0007d363       ??0improper_lock@Concurrency@@QAE@XZ 1007e363 f   libconcrt:Exceptions.obj
 0001:0007d378       ??0improper_scheduler_attach@Concurrency@@QAE@PBD@Z 1007e378 f   libconcrt:Exceptions.obj
 0001:0007d399       ??0improper_scheduler_attach@Concurrency@@QAE@XZ 1007e399 f   libconcrt:Exceptions.obj
 0001:0007d3ae       ??0improper_scheduler_detach@Concurrency@@QAE@PBD@Z 1007e3ae f   libconcrt:Exceptions.obj
 0001:0007d3cf       ??0improper_scheduler_detach@Concurrency@@QAE@XZ 1007e3cf f   libconcrt:Exceptions.obj
 0001:0007d3e4       ??0improper_scheduler_reference@Concurrency@@QAE@PBD@Z 1007e3e4 f   libconcrt:Exceptions.obj
 0001:0007d405       ??0improper_scheduler_reference@Concurrency@@QAE@XZ 1007e405 f   libconcrt:Exceptions.obj
 0001:0007d41a       ??0invalid_link_target@Concurrency@@QAE@PBD@Z 1007e41a f   libconcrt:Exceptions.obj
 0001:0007d43b       ??0invalid_link_target@Concurrency@@QAE@XZ 1007e43b f   libconcrt:Exceptions.obj
 0001:0007d450       ??0invalid_multiple_scheduling@Concurrency@@QAE@PBD@Z 1007e450 f   libconcrt:Exceptions.obj
 0001:0007d471       ??0invalid_multiple_scheduling@Concurrency@@QAE@XZ 1007e471 f   libconcrt:Exceptions.obj
 0001:0007d486       ??0invalid_oversubscribe_operation@Concurrency@@QAE@PBD@Z 1007e486 f   libconcrt:Exceptions.obj
 0001:0007d4a7       ??0invalid_oversubscribe_operation@Concurrency@@QAE@XZ 1007e4a7 f   libconcrt:Exceptions.obj
 0001:0007d4bc       ??0invalid_scheduler_policy_key@Concurrency@@QAE@PBD@Z 1007e4bc f   libconcrt:Exceptions.obj
 0001:0007d4dd       ??0invalid_scheduler_policy_key@Concurrency@@QAE@XZ 1007e4dd f   libconcrt:Exceptions.obj
 0001:0007d4f2       ??0invalid_scheduler_policy_thread_specification@Concurrency@@QAE@PBD@Z 1007e4f2 f   libconcrt:Exceptions.obj
 0001:0007d513       ??0invalid_scheduler_policy_thread_specification@Concurrency@@QAE@XZ 1007e513 f   libconcrt:Exceptions.obj
 0001:0007d528       ??0invalid_scheduler_policy_value@Concurrency@@QAE@PBD@Z 1007e528 f   libconcrt:Exceptions.obj
 0001:0007d549       ??0invalid_scheduler_policy_value@Concurrency@@QAE@XZ 1007e549 f   libconcrt:Exceptions.obj
 0001:0007d55e       ??0message_not_found@Concurrency@@QAE@PBD@Z 1007e55e f   libconcrt:Exceptions.obj
 0001:0007d57f       ??0message_not_found@Concurrency@@QAE@XZ 1007e57f f   libconcrt:Exceptions.obj
 0001:0007d594       ??0missing_wait@Concurrency@@QAE@PBD@Z 1007e594 f   libconcrt:Exceptions.obj
 0001:0007d5b5       ??0missing_wait@Concurrency@@QAE@XZ 1007e5b5 f   libconcrt:Exceptions.obj
 0001:0007d5ca       ??0nested_scheduler_missing_detach@Concurrency@@QAE@PBD@Z 1007e5ca f   libconcrt:Exceptions.obj
 0001:0007d5eb       ??0nested_scheduler_missing_detach@Concurrency@@QAE@XZ 1007e5eb f   libconcrt:Exceptions.obj
 0001:0007d600       ??0operation_timed_out@Concurrency@@QAE@PBD@Z 1007e600 f   libconcrt:Exceptions.obj
 0001:0007d621       ??0operation_timed_out@Concurrency@@QAE@XZ 1007e621 f   libconcrt:Exceptions.obj
 0001:0007d636       ??0scheduler_not_attached@Concurrency@@QAE@PBD@Z 1007e636 f   libconcrt:Exceptions.obj
 0001:0007d657       ??0scheduler_not_attached@Concurrency@@QAE@XZ 1007e657 f   libconcrt:Exceptions.obj
 0001:0007d66c       ??0scheduler_resource_allocation_error@Concurrency@@QAE@J@Z 1007e66c f   libconcrt:Exceptions.obj
 0001:0007d690       ??0scheduler_resource_allocation_error@Concurrency@@QAE@PBDJ@Z 1007e690 f   libconcrt:Exceptions.obj
 0001:0007d6b9       ??0scheduler_worker_creation_error@Concurrency@@QAE@J@Z 1007e6b9 f   libconcrt:Exceptions.obj
 0001:0007d6dd       ??0scheduler_worker_creation_error@Concurrency@@QAE@PBDJ@Z 1007e6dd f   libconcrt:Exceptions.obj
 0001:0007d702       ??0unsupported_os@Concurrency@@QAE@PBD@Z 1007e702 f   libconcrt:Exceptions.obj
 0001:0007d723       ??0unsupported_os@Concurrency@@QAE@XZ 1007e723 f   libconcrt:Exceptions.obj
 0001:0007d738       ??1bad_target@Concurrency@@UAE@XZ 1007e738 f i libconcrt:Exceptions.obj
 0001:0007d74d       ??1context_self_unblock@Concurrency@@UAE@XZ 1007e74d f i libconcrt:Exceptions.obj
 0001:0007d762       ??1context_unblock_unbalanced@Concurrency@@UAE@XZ 1007e762 f i libconcrt:Exceptions.obj
 0001:0007d777       ??1default_scheduler_exists@Concurrency@@UAE@XZ 1007e777 f i libconcrt:Exceptions.obj
 0001:0007d78c       ??1improper_scheduler_attach@Concurrency@@UAE@XZ 1007e78c f i libconcrt:Exceptions.obj
 0001:0007d7a1       ??1improper_scheduler_detach@Concurrency@@UAE@XZ 1007e7a1 f i libconcrt:Exceptions.obj
 0001:0007d7b6       ??1improper_scheduler_reference@Concurrency@@UAE@XZ 1007e7b6 f i libconcrt:Exceptions.obj
 0001:0007d7cb       ??1invalid_link_target@Concurrency@@UAE@XZ 1007e7cb f i libconcrt:Exceptions.obj
 0001:0007d7e0       ??1invalid_multiple_scheduling@Concurrency@@UAE@XZ 1007e7e0 f i libconcrt:Exceptions.obj
 0001:0007d7f5       ??1invalid_oversubscribe_operation@Concurrency@@UAE@XZ 1007e7f5 f i libconcrt:Exceptions.obj
 0001:0007d80a       ??1invalid_scheduler_policy_key@Concurrency@@UAE@XZ 1007e80a f i libconcrt:Exceptions.obj
 0001:0007d81f       ??1invalid_scheduler_policy_thread_specification@Concurrency@@UAE@XZ 1007e81f f i libconcrt:Exceptions.obj
 0001:0007d834       ??1invalid_scheduler_policy_value@Concurrency@@UAE@XZ 1007e834 f i libconcrt:Exceptions.obj
 0001:0007d849       ??1message_not_found@Concurrency@@UAE@XZ 1007e849 f i libconcrt:Exceptions.obj
 0001:0007d85e       ??1missing_wait@Concurrency@@UAE@XZ 1007e85e f i libconcrt:Exceptions.obj
 0001:0007d873       ??1nested_scheduler_missing_detach@Concurrency@@UAE@XZ 1007e873 f i libconcrt:Exceptions.obj
 0001:0007d888       ??1operation_timed_out@Concurrency@@UAE@XZ 1007e888 f i libconcrt:Exceptions.obj
 0001:0007d89d       ??1scheduler_not_attached@Concurrency@@UAE@XZ 1007e89d f i libconcrt:Exceptions.obj
 0001:0007d8b2       ??1scheduler_worker_creation_error@Concurrency@@UAE@XZ 1007e8b2 f i libconcrt:Exceptions.obj
 0001:0007d8c7       ??1unsupported_os@Concurrency@@UAE@XZ 1007e8c7 f i libconcrt:Exceptions.obj
 0001:0007d8dc       ??_Ebad_target@Concurrency@@UAEPAXI@Z 1007e8dc f i libconcrt:Exceptions.obj
 0001:0007d8dc       ??_Gbad_target@Concurrency@@UAEPAXI@Z 1007e8dc f i libconcrt:Exceptions.obj
 0001:0007d914       ??_Gcontext_self_unblock@Concurrency@@UAEPAXI@Z 1007e914 f i libconcrt:Exceptions.obj
 0001:0007d914       ??_Econtext_self_unblock@Concurrency@@UAEPAXI@Z 1007e914 f i libconcrt:Exceptions.obj
 0001:0007d94c       ??_Gcontext_unblock_unbalanced@Concurrency@@UAEPAXI@Z 1007e94c f i libconcrt:Exceptions.obj
 0001:0007d94c       ??_Econtext_unblock_unbalanced@Concurrency@@UAEPAXI@Z 1007e94c f i libconcrt:Exceptions.obj
 0001:0007d984       ??_Gdefault_scheduler_exists@Concurrency@@UAEPAXI@Z 1007e984 f i libconcrt:Exceptions.obj
 0001:0007d984       ??_Edefault_scheduler_exists@Concurrency@@UAEPAXI@Z 1007e984 f i libconcrt:Exceptions.obj
 0001:0007d9bc       ??_Gimproper_scheduler_attach@Concurrency@@UAEPAXI@Z 1007e9bc f i libconcrt:Exceptions.obj
 0001:0007d9bc       ??_Eimproper_scheduler_attach@Concurrency@@UAEPAXI@Z 1007e9bc f i libconcrt:Exceptions.obj
 0001:0007d9f4       ??_Eimproper_scheduler_detach@Concurrency@@UAEPAXI@Z 1007e9f4 f i libconcrt:Exceptions.obj
 0001:0007d9f4       ??_Gimproper_scheduler_detach@Concurrency@@UAEPAXI@Z 1007e9f4 f i libconcrt:Exceptions.obj
 0001:0007da2c       ??_Gimproper_scheduler_reference@Concurrency@@UAEPAXI@Z 1007ea2c f i libconcrt:Exceptions.obj
 0001:0007da2c       ??_Eimproper_scheduler_reference@Concurrency@@UAEPAXI@Z 1007ea2c f i libconcrt:Exceptions.obj
 0001:0007da64       ??_Ginvalid_link_target@Concurrency@@UAEPAXI@Z 1007ea64 f i libconcrt:Exceptions.obj
 0001:0007da64       ??_Einvalid_link_target@Concurrency@@UAEPAXI@Z 1007ea64 f i libconcrt:Exceptions.obj
 0001:0007da9c       ??_Einvalid_multiple_scheduling@Concurrency@@UAEPAXI@Z 1007ea9c f i libconcrt:Exceptions.obj
 0001:0007da9c       ??_Ginvalid_multiple_scheduling@Concurrency@@UAEPAXI@Z 1007ea9c f i libconcrt:Exceptions.obj
 0001:0007dad4       ??_Einvalid_oversubscribe_operation@Concurrency@@UAEPAXI@Z 1007ead4 f i libconcrt:Exceptions.obj
 0001:0007dad4       ??_Ginvalid_oversubscribe_operation@Concurrency@@UAEPAXI@Z 1007ead4 f i libconcrt:Exceptions.obj
 0001:0007db0c       ??_Ginvalid_scheduler_policy_key@Concurrency@@UAEPAXI@Z 1007eb0c f i libconcrt:Exceptions.obj
 0001:0007db0c       ??_Einvalid_scheduler_policy_key@Concurrency@@UAEPAXI@Z 1007eb0c f i libconcrt:Exceptions.obj
 0001:0007db44       ??_Einvalid_scheduler_policy_thread_specification@Concurrency@@UAEPAXI@Z 1007eb44 f i libconcrt:Exceptions.obj
 0001:0007db44       ??_Ginvalid_scheduler_policy_thread_specification@Concurrency@@UAEPAXI@Z 1007eb44 f i libconcrt:Exceptions.obj
 0001:0007db7c       ??_Einvalid_scheduler_policy_value@Concurrency@@UAEPAXI@Z 1007eb7c f i libconcrt:Exceptions.obj
 0001:0007db7c       ??_Ginvalid_scheduler_policy_value@Concurrency@@UAEPAXI@Z 1007eb7c f i libconcrt:Exceptions.obj
 0001:0007dbb4       ??_Emessage_not_found@Concurrency@@UAEPAXI@Z 1007ebb4 f i libconcrt:Exceptions.obj
 0001:0007dbb4       ??_Gmessage_not_found@Concurrency@@UAEPAXI@Z 1007ebb4 f i libconcrt:Exceptions.obj
 0001:0007dbec       ??_Gmissing_wait@Concurrency@@UAEPAXI@Z 1007ebec f i libconcrt:Exceptions.obj
 0001:0007dbec       ??_Emissing_wait@Concurrency@@UAEPAXI@Z 1007ebec f i libconcrt:Exceptions.obj
 0001:0007dc24       ??_Enested_scheduler_missing_detach@Concurrency@@UAEPAXI@Z 1007ec24 f i libconcrt:Exceptions.obj
 0001:0007dc24       ??_Gnested_scheduler_missing_detach@Concurrency@@UAEPAXI@Z 1007ec24 f i libconcrt:Exceptions.obj
 0001:0007dc5c       ??_Eoperation_timed_out@Concurrency@@UAEPAXI@Z 1007ec5c f i libconcrt:Exceptions.obj
 0001:0007dc5c       ??_Goperation_timed_out@Concurrency@@UAEPAXI@Z 1007ec5c f i libconcrt:Exceptions.obj
 0001:0007dc94       ??_Gscheduler_not_attached@Concurrency@@UAEPAXI@Z 1007ec94 f i libconcrt:Exceptions.obj
 0001:0007dc94       ??_Escheduler_not_attached@Concurrency@@UAEPAXI@Z 1007ec94 f i libconcrt:Exceptions.obj
 0001:0007dccc       ??_Gscheduler_worker_creation_error@Concurrency@@UAEPAXI@Z 1007eccc f i libconcrt:Exceptions.obj
 0001:0007dccc       ??_Escheduler_worker_creation_error@Concurrency@@UAEPAXI@Z 1007eccc f i libconcrt:Exceptions.obj
 0001:0007dd04       ??_Eunsupported_os@Concurrency@@UAEPAXI@Z 1007ed04 f i libconcrt:Exceptions.obj
 0001:0007dd04       ??_Gunsupported_os@Concurrency@@UAEPAXI@Z 1007ed04 f i libconcrt:Exceptions.obj
 0001:0007dd3c       ?get_error_code@scheduler_resource_allocation_error@Concurrency@@QBEJXZ 1007ed3c f   libconcrt:Exceptions.obj
 0001:0007dd40       ??0_Context@details@Concurrency@@QAE@PAVContext@2@@Z 1007ed40 f i libconcrt:Context.obj
 0001:0007dd51       ?Block@Context@Concurrency@@SAXXZ 1007ed51 f   libconcrt:Context.obj
 0001:0007dd74       ?CurrentContext@Context@Concurrency@@SAPAV12@XZ 1007ed74 f   libconcrt:Context.obj
 0001:0007dd79       ?GetExecutingCollection@ContextBase@details@Concurrency@@QAEPAV_TaskCollectionBase@23@XZ 1007ed79 f i libconcrt:Context.obj
 0001:0007dd7d       ?Id@Context@Concurrency@@SAIXZ 1007ed7d f   libconcrt:Context.obj
 0001:0007ddaa       ?IsCurrentTaskCollectionCanceling@Context@Concurrency@@SA_NXZ 1007edaa f   libconcrt:Context.obj
 0001:0007ddf8       ?Oversubscribe@Context@Concurrency@@SAX_N@Z 1007edf8 f   libconcrt:Context.obj
 0001:0007de23       ?ScheduleGroupId@Context@Concurrency@@SAIXZ 1007ee23 f   libconcrt:Context.obj
 0001:0007de51       ?VirtualProcessorId@Context@Concurrency@@SAIXZ 1007ee51 f   libconcrt:Context.obj
 0001:0007de7f       ?Yield@Context@Concurrency@@SAXXZ 1007ee7f f   libconcrt:Context.obj
 0001:0007dea2       ?_CurrentContext@_Context@details@Concurrency@@SA?AV123@XZ 1007eea2 f   libconcrt:Context.obj
 0001:0007deb7       ?_IsStructured@_TaskCollectionBase@details@Concurrency@@QAE_NXZ 1007eeb7 f i libconcrt:Context.obj
 0001:0007dec3       ?_IsSynchronouslyBlocked@_Context@details@Concurrency@@QBE_NXZ 1007eec3 f   libconcrt:Context.obj
 0001:0007dedf       ?_Oversubscribe@_Context@details@Concurrency@@SAX_N@Z 1007eedf f   libconcrt:Context.obj
 0001:0007df0a       ?_SpinYield@Context@Concurrency@@SAXXZ 1007ef0a f   libconcrt:Context.obj
 0001:0007df2d       ?_Yield@_Context@details@Concurrency@@SAXXZ 1007ef2d f   libconcrt:Context.obj
 0001:0007df50       ??0?$List@VExecutionResource@details@Concurrency@@VCount@CollectionTypes@23@@details@Concurrency@@QAE@XZ 1007ef50 f i libconcrt:ResourceManager.obj
 0001:0007df5c       ??0?$List@VSchedulerProxy@details@Concurrency@@VCount@CollectionTypes@23@@details@Concurrency@@QAE@XZ 1007ef5c f i libconcrt:ResourceManager.obj
 0001:0007df68       ??0AffinityRestriction@ResourceManager@details@Concurrency@@QAE@GPAUHardwareAffinity@23@@Z 1007ef68 f i libconcrt:ResourceManager.obj
 0001:0007df83       ??0Count@CollectionTypes@details@Concurrency@@QAE@XZ 1007ef83 f i libconcrt:ResourceManager.obj
 0001:0007df89       ??0HardwareAffinity@details@Concurrency@@QAE@ABU012@@Z 1007ef89 f i libconcrt:ResourceManager.obj
 0001:0007dfa3       ??0HardwareAffinity@details@Concurrency@@QAE@GK@Z 1007efa3 f i libconcrt:ResourceManager.obj
 0001:0007dfc9       ??0HardwareAffinity@details@Concurrency@@QAE@K@Z 1007efc9 f i libconcrt:ResourceManager.obj
 0001:0007dfed       ??0HardwareAffinity@details@Concurrency@@QAE@PAX@Z 1007efed f   libconcrt:ResourceManager.obj
 0001:0007e016       ??0HardwareAffinity@details@Concurrency@@QAE@XZ 1007f016 f i libconcrt:ResourceManager.obj
 0001:0007e02f       ??0IResourceManager@Concurrency@@QAE@XZ 1007f02f f i libconcrt:ResourceManager.obj
 0001:0007e03a       ??0ITopologyExecutionResource@Concurrency@@QAE@XZ 1007f03a f i libconcrt:ResourceManager.obj
 0001:0007e045       ??0ITopologyNode@Concurrency@@QAE@XZ 1007f045 f i libconcrt:ResourceManager.obj
 0001:0007e050       ??0ResourceManager@details@Concurrency@@AAE@XZ 1007f050 f   libconcrt:ResourceManager.obj
 0001:0007e16b       ??0SchedulerCore@details@Concurrency@@QAE@XZ 1007f16b f i libconcrt:ResourceManager.obj
 0001:0007e178       ??0TopologyObject@GlobalCore@details@Concurrency@@QAE@PAU123@@Z 1007f178 f i libconcrt:ResourceManager.obj
 0001:0007e192       ??0TopologyObject@GlobalNode@details@Concurrency@@QAE@PAU123@@Z 1007f192 f i libconcrt:ResourceManager.obj
 0001:0007e1ac       ??0_Scoped_lock@_NonReentrantBlockingLock@details@Concurrency@@QAE@AAV123@@Z 1007f1ac f i libconcrt:ResourceManager.obj
 0001:0007e1c8       ??0_Scoped_lock@_NonReentrantLock@details@Concurrency@@QAE@AAV123@@Z 1007f1c8 f i libconcrt:ResourceManager.obj
 0001:0007e1e4       ??0invalid_operation@Concurrency@@QAE@ABV01@@Z 1007f1e4 f i libconcrt:ResourceManager.obj
 0001:0007e20d       ??0invalid_operation@Concurrency@@QAE@XZ 1007f20d f i libconcrt:ResourceManager.obj
 0001:0007e222       ??0unsupported_os@Concurrency@@QAE@ABV01@@Z 1007f222 f i libconcrt:ResourceManager.obj
 0001:0007e24b       ??1AffinityRestriction@ResourceManager@details@Concurrency@@QAE@XZ 1007f24b f i libconcrt:ResourceManager.obj
 0001:0007e25b       ??1GlobalNode@details@Concurrency@@QAE@XZ 1007f25b f i libconcrt:ResourceManager.obj
 0001:0007e26b       ??1ResourceManager@details@Concurrency@@AAE@XZ 1007f26b f   libconcrt:ResourceManager.obj
 0001:0007e375       ??1_Scoped_lock@_NonReentrantBlockingLock@details@Concurrency@@QAE@XZ 1007f375 f i libconcrt:ResourceManager.obj
 0001:0007e3bb       ??1_Scoped_lock@_NonReentrantLock@details@Concurrency@@QAE@XZ 1007f3bb f i libconcrt:ResourceManager.obj
 0001:0007e3c6       ??1invalid_operation@Concurrency@@UAE@XZ 1007f3c6 f i libconcrt:ResourceManager.obj
 0001:0007e3db       ??4HardwareAffinity@details@Concurrency@@QAEAAU012@ABU012@@Z 1007f3db f i libconcrt:ResourceManager.obj
 0001:0007e3f9       ??_EGlobalNode@details@Concurrency@@QAEPAXI@Z 1007f3f9 f i libconcrt:ResourceManager.obj
 0001:0007e4a3       ??_GAffinityRestriction@ResourceManager@details@Concurrency@@QAEPAXI@Z 1007f4a3 f i libconcrt:ResourceManager.obj
 0001:0007e4d6       ??_GResourceManager@details@Concurrency@@AAEPAXI@Z 1007f4d6 f i libconcrt:ResourceManager.obj
 0001:0007e504       ??_Einvalid_operation@Concurrency@@UAEPAXI@Z 1007f504 f i libconcrt:ResourceManager.obj
 0001:0007e504       ??_Ginvalid_operation@Concurrency@@UAEPAXI@Z 1007f504 f i libconcrt:ResourceManager.obj
 0001:0007e53c       ?AddTail@?$List@VSchedulerProxy@details@Concurrency@@VCount@CollectionTypes@23@@details@Concurrency@@QAEXPAVSchedulerProxy@23@@Z 1007f53c f i libconcrt:ResourceManager.obj
 0001:0007e583       ?AdjustDynamicAllocation@ResourceManager@details@Concurrency@@AAEIIII@Z 1007f583 f   libconcrt:ResourceManager.obj
 0001:0007e689       ?ApplyAffinityLimits@AffinityRestriction@ResourceManager@details@Concurrency@@QAEXPAU_GROUP_AFFINITY@@@Z 1007f689 f i libconcrt:ResourceManager.obj
 0001:0007e6b4       ?ApplyAffinityRestrictions@ResourceManager@details@Concurrency@@CAXPAK@Z 1007f6b4 f   libconcrt:ResourceManager.obj
 0001:0007e6f1       ?ApplyAffinityRestrictions@ResourceManager@details@Concurrency@@CAXPAU_GROUP_AFFINITY@@@Z 1007f6f1 f   libconcrt:ResourceManager.obj
 0001:0007e721       ?ApplyTo@HardwareAffinity@details@Concurrency@@QAEXPAX@Z 1007f721 f   libconcrt:ResourceManager.obj
 0001:0007e737       ?CaptureProcessAffinity@ResourceManager@details@Concurrency@@CAXXZ 1007f737 f   libconcrt:ResourceManager.obj
 0001:0007e89f       ?CleanupTopologyInformation@ResourceManager@details@Concurrency@@CAXXZ 1007f89f f   libconcrt:ResourceManager.obj
 0001:0007e8c0       ?CommitStolenCores@ResourceManager@details@Concurrency@@AAEXPAVSchedulerProxy@23@@Z 1007f8c0 f   libconcrt:ResourceManager.obj
 0001:0007ea12       ?ComputeDesiredHWThreadsWithExternalThread@SchedulerProxy@details@Concurrency@@QBEIXZ 1007fa12 f i libconcrt:ResourceManager.obj
 0001:0007ea3d       ?ComputeMinHWThreadsWithExternalThread@SchedulerProxy@details@Concurrency@@QBEIXZ 1007fa3d f i libconcrt:ResourceManager.obj
 0001:0007ea75       ?Count@?$List@VExecutionResource@details@Concurrency@@VCount@CollectionTypes@23@@details@Concurrency@@QBEHXZ 1007fa75 f i libconcrt:ResourceManager.obj
 0001:0007ea78       ?CreateAllocatedNodeData@ResourceManager@details@Concurrency@@QAEPAUSchedulerNode@23@XZ 1007fa78 f   libconcrt:ResourceManager.obj
 0001:0007ebfc       ?CreateDynamicRMWorker@ResourceManager@details@Concurrency@@AAEXXZ 1007fbfc f   libconcrt:ResourceManager.obj
 0001:0007ec77       ?CreateNodeTopology@ResourceManager@details@Concurrency@@UAEXIPAIPAPAI0@Z 1007fc77 f   libconcrt:ResourceManager.obj
 0001:0007ec7a       ?CreateResourceManager@Concurrency@@YAPAUIResourceManager@1@XZ 1007fc7a f   libconcrt:ResourceManager.obj
 0001:0007ec7f       ?CreateSchedulerProxy@ResourceManager@details@Concurrency@@AAEPAVSchedulerProxy@23@PAUIScheduler@3@@Z 1007fc7f f   libconcrt:ResourceManager.obj
 0001:0007ecf8       ?CreateSingleton@ResourceManager@details@Concurrency@@SAPAV123@XZ 1007fcf8 f   libconcrt:ResourceManager.obj
 0001:0007edbd       ?CurrentSubscriptionLevel@ResourceManager@details@Concurrency@@QAEIII@Z 1007fdbd f   libconcrt:ResourceManager.obj
 0001:0007ee41       ?Decrement@Count@CollectionTypes@details@Concurrency@@QAEXXZ 1007fe41 f i libconcrt:ResourceManager.obj
 0001:0007ee44       ?DesiredHWThreads@SchedulerProxy@details@Concurrency@@QBEIXZ 1007fe44 f i libconcrt:ResourceManager.obj
 0001:0007ee63       ?DestroyAllocatedNodeData@ResourceManager@details@Concurrency@@QAEXPAUSchedulerNode@23@@Z 1007fe63 f   libconcrt:ResourceManager.obj
 0001:0007eeae       ?DetermineTopology@ResourceManager@details@Concurrency@@AAEXXZ 1007feae f   libconcrt:ResourceManager.obj
 0001:0007f285       ?DiscardExistingSchedulerStatistics@ResourceManager@details@Concurrency@@AAEXXZ 10080285 f   libconcrt:ResourceManager.obj
 0001:0007f30c       ?DistributeCoresToSurvivingScheduler@ResourceManager@details@Concurrency@@AAE_NXZ 1008030c f   libconcrt:ResourceManager.obj
 0001:0007f51a       ?DistributeExclusiveCores@ResourceManager@details@Concurrency@@AAEXIIIII@Z 1008051a f   libconcrt:ResourceManager.obj
 0001:0007f6ac       ?DistributeIdleCores@ResourceManager@details@Concurrency@@AAEXII@Z 100806ac f   libconcrt:ResourceManager.obj
 0001:0007f893       ?DoCoreMigration@ResourceManager@details@Concurrency@@AAEXXZ 10080893 f   libconcrt:ResourceManager.obj
 0001:0007fb90       ?DoHillClimbing@SchedulerProxy@details@Concurrency@@QAEIIIII@Z 10080b90 f i libconcrt:ResourceManager.obj
 0001:0007fb9f       ?DynamicAssignCores@ResourceManager@details@Concurrency@@AAEXPAVSchedulerProxy@23@II_N@Z 10080b9f f   libconcrt:ResourceManager.obj
 0001:0007fc29       ?DynamicMigrateCores@ResourceManager@details@Concurrency@@AAEXPAUDynamicAllocationData@23@PAVSchedulerProxy@23@II@Z 10080c29 f   libconcrt:ResourceManager.obj
 0001:0007fdee       ?DynamicRMThreadProc@ResourceManager@details@Concurrency@@CGKPAX@Z 10080dee f   libconcrt:ResourceManager.obj
 0001:0007fe0d       ?DynamicResourceManager@ResourceManager@details@Concurrency@@AAEXXZ 10080e0d f   libconcrt:ResourceManager.obj
 0001:0007ff4d       ?Empty@?$List@VSchedulerProxy@details@Concurrency@@VCount@CollectionTypes@23@@details@Concurrency@@QBE_NXZ 10080f4d f i libconcrt:ResourceManager.obj
 0001:0007ff58       ?FindBestFitExclusiveAllocation@ResourceManager@details@Concurrency@@AAEIAAI0PAUDynamicAllocationData@23@II@Z 10080f58 f   libconcrt:ResourceManager.obj
 0001:0008036d       ?FindBestFitIdleAllocation@ResourceManager@details@Concurrency@@AAEIIPAUDynamicAllocationData@23@I@Z 1008136d f   libconcrt:ResourceManager.obj
 0001:000804be       ?FindCoreForPartiallyFilledNode@ResourceManager@details@Concurrency@@AAE_NAAI0PAUDynamicAllocationData@23@I@Z 100814be f   libconcrt:ResourceManager.obj
 0001:0008060b       ?FindGroupAffinity@AffinityRestriction@ResourceManager@details@Concurrency@@QAEPAUHardwareAffinity@34@G@Z 1008160b f i libconcrt:ResourceManager.obj
 0001:00080657       ?First@?$List@VSchedulerProxy@details@Concurrency@@VCount@CollectionTypes@23@@details@Concurrency@@QBEPAVSchedulerProxy@23@XZ 10081657 f i libconcrt:ResourceManager.obj
 0001:00080668       ?FlushStoreBuffers@ResourceManager@details@Concurrency@@QAEXXZ 10081668 f   libconcrt:ResourceManager.obj
 0001:000806a6       ?GetAllocatedNodes@SchedulerProxy@details@Concurrency@@QBEPAUSchedulerNode@23@XZ 100816a6 f i libconcrt:ResourceManager.obj
 0001:000806aa       ?GetAvailableNodeCount@ResourceManager@details@Concurrency@@UBEIXZ 100816aa f i libconcrt:ResourceManager.obj
 0001:000806ae       ?GetCoreCount@ResourceManager@details@Concurrency@@SAIXZ 100816ae f   libconcrt:ResourceManager.obj
 0001:0008070b       ?GetCurrentNodeAndCore@ResourceManager@details@Concurrency@@QAEIPAI@Z 1008170b f   libconcrt:ResourceManager.obj
 0001:0008085f       ?GetDynamicAllocationData@SchedulerProxy@details@Concurrency@@QAEPAUDynamicAllocationData@23@XZ 1008185f f i libconcrt:ResourceManager.obj
 0001:00080863       ?GetExecutionContextId@Concurrency@@YAIXZ 10081863 f   libconcrt:ResourceManager.obj
 0001:00080873       ?GetExecutionContextId@ResourceManager@details@Concurrency@@SAIXZ 10081873 f i libconcrt:ResourceManager.obj
 0001:00080883       ?GetExecutionResourceCount@TopologyObject@GlobalNode@details@Concurrency@@UBEIXZ 10081883 f i libconcrt:ResourceManager.obj
 0001:0008088a       ?GetFirstExecutionResource@TopologyObject@GlobalNode@details@Concurrency@@UBEPAUITopologyExecutionResource@4@XZ 1008188a f i libconcrt:ResourceManager.obj
 0001:00080896       ?GetFirstNode@ResourceManager@details@Concurrency@@UBEPAUITopologyNode@3@XZ 10081896 f i libconcrt:ResourceManager.obj
 0001:0008089d       ?GetGroup@HardwareAffinity@details@Concurrency@@QAEGXZ 1008189d f i libconcrt:ResourceManager.obj
 0001:000808a2       ?GetId@TopologyObject@GlobalCore@details@Concurrency@@UBEIXZ 100818a2 f i libconcrt:ResourceManager.obj
 0001:000808a9       ?GetId@TopologyObject@GlobalNode@details@Concurrency@@UBEIXZ 100818a9 f i libconcrt:ResourceManager.obj
 0001:000808b0       ?GetMask@HardwareAffinity@details@Concurrency@@QAEKXZ 100818b0 f i libconcrt:ResourceManager.obj
 0001:000808b3       ?GetNext@TopologyObject@GlobalCore@details@Concurrency@@UBEPAUITopologyExecutionResource@4@XZ 100818b3 f   libconcrt:ResourceManager.obj
 0001:000808cf       ?GetNext@TopologyObject@GlobalNode@details@Concurrency@@UBEPAUITopologyNode@4@XZ 100818cf f   libconcrt:ResourceManager.obj
 0001:000808eb       ?GetNextGlobalCore@GlobalNode@details@Concurrency@@QAEPAUGlobalCore@23@PBU423@@Z 100818eb f i libconcrt:ResourceManager.obj
 0001:00080919       ?GetNextGlobalNode@ResourceManager@details@Concurrency@@QAEPAUGlobalNode@23@PBU423@@Z 10081919 f i libconcrt:ResourceManager.obj
 0001:00080947       ?GetNodeCount@ResourceManager@details@Concurrency@@SAIXZ 10081947 f   libconcrt:ResourceManager.obj
 0001:000809a4       ?GetNumAllocatedCores@SchedulerProxy@details@Concurrency@@QBEIXZ 100819a4 f i libconcrt:ResourceManager.obj
 0001:000809ab       ?GetNumBorrowedCores@SchedulerNode@details@Concurrency@@QAEIXZ 100819ab f i libconcrt:ResourceManager.obj
 0001:000809af       ?GetNumBorrowedCores@SchedulerProxy@details@Concurrency@@QBEIXZ 100819af f i libconcrt:ResourceManager.obj
 0001:000809b6       ?GetNumBorrowedIdleCores@SchedulerNode@details@Concurrency@@QAEIXZ 100819b6 f i libconcrt:ResourceManager.obj
 0001:000809ba       ?GetNumBorrowedInUseCores@SchedulerNode@details@Concurrency@@QAEIXZ 100819ba f i libconcrt:ResourceManager.obj
 0001:000809c1       ?GetNumExternalThreads@SchedulerProxy@details@Concurrency@@QAEIXZ 100819c1 f i libconcrt:ResourceManager.obj
 0001:000809c8       ?GetNumMigratableCores@SchedulerNode@details@Concurrency@@QAEIXZ 100819c8 f i libconcrt:ResourceManager.obj
 0001:000809cf       ?GetNumNestedThreadSubscriptions@SchedulerProxy@details@Concurrency@@QAEIXZ 100819cf f i libconcrt:ResourceManager.obj
 0001:000809d6       ?GetNumOwnedCores@SchedulerProxy@details@Concurrency@@QBEIXZ 100819d6 f i libconcrt:ResourceManager.obj
 0001:000809e6       ?GetNumOwnedMigratableCores@SchedulerNode@details@Concurrency@@QAEIXZ 100819e6 f i libconcrt:ResourceManager.obj
 0001:000809f2       ?GetNumaNode@TopologyObject@GlobalNode@details@Concurrency@@UBEKXZ 100819f2 f i libconcrt:ResourceManager.obj
 0001:000809f9       ?GetOSVersion@Concurrency@@YA?AW4OSVersion@IResourceManager@1@XZ 100819f9 f   libconcrt:ResourceManager.obj
 0001:000809fe       ?GetProcessorCount@Concurrency@@YAIXZ 100819fe f   libconcrt:ResourceManager.obj
 0001:00080a03       ?GetProcessorNodeCount@Concurrency@@YAIXZ 10081a03 f   libconcrt:ResourceManager.obj
 0001:00080a08       ?GetQueueLength@SchedulerProxy@details@Concurrency@@QAEIXZ 10081a08 f i libconcrt:ResourceManager.obj
 0001:00080a0c       ?GetSchedulerId@Concurrency@@YAIXZ 10081a0c f   libconcrt:ResourceManager.obj
 0001:00080a1c       ?GetSchedulerId@ResourceManager@details@Concurrency@@SAIXZ 10081a1c f i libconcrt:ResourceManager.obj
 0001:00080a2c       ?GetSchedulerProxy@ExecutionResource@details@Concurrency@@QAEPAVSchedulerProxy@23@XZ 10081a2c f i libconcrt:ResourceManager.obj
 0001:00080a30       ?GetSortedNodeOrder@SchedulerProxy@details@Concurrency@@QBEPAIXZ 10081a30 f i libconcrt:ResourceManager.obj
 0001:00080a34       ?GetStaticAllocationData@SchedulerProxy@details@Concurrency@@QAEPAUStaticAllocationData@23@XZ 10081a34 f i libconcrt:ResourceManager.obj
 0001:00080a38       ?GetTopologyInformation@ResourceManager@details@Concurrency@@CAXW4_LOGICAL_PROCESSOR_RELATIONSHIP@@@Z 10081a38 f   libconcrt:ResourceManager.obj
 0001:00080a6b       ?HandleBorrowedCores@ResourceManager@details@Concurrency@@AAEXPAVSchedulerProxy@23@PAUAllocationData@23@@Z 10081a6b f   libconcrt:ResourceManager.obj
 0001:00080bcc       ?HandleSharedCores@ResourceManager@details@Concurrency@@AAEXPAVSchedulerProxy@23@PAUDynamicAllocationData@23@@Z 10081bcc f   libconcrt:ResourceManager.obj
 0001:00080d78       ?IncreaseFullyLoadedSchedulerAllocations@ResourceManager@details@Concurrency@@AAEXXZ 10081d78 f   libconcrt:ResourceManager.obj
 0001:00080dbb       ?Increment@Count@CollectionTypes@details@Concurrency@@QAEXXZ 10081dbb f i libconcrt:ResourceManager.obj
 0001:00080dbe       ?Initialize@GlobalCore@details@Concurrency@@QAEXPAUGlobalNode@23@IE@Z 10081dbe f i libconcrt:ResourceManager.obj
 0001:00080e0c       ?Initialize@GlobalNode@details@Concurrency@@QAEXPAVResourceManager@23@GGKII@Z 10081e0c f i libconcrt:ResourceManager.obj
 0001:00080f70       ?Initialize@GlobalNumaNode@details@Concurrency@@QAEXKGK@Z 10081f70 f i libconcrt:ResourceManager.obj
 0001:00080f8f       ?InitializeRMBuffers@ResourceManager@details@Concurrency@@AAEXXZ 10081f8f f   libconcrt:ResourceManager.obj
 0001:00081081       ?InitializeSystemInformation@ResourceManager@details@Concurrency@@CAX_N@Z 10082081 f   libconcrt:ResourceManager.obj
 0001:00081347       ?IntersectWith@HardwareAffinity@details@Concurrency@@QAEXK@Z 10082347 f i libconcrt:ResourceManager.obj
 0001:00081356       ?IsBorrowed@SchedulerCore@details@Concurrency@@QAE_NXZ 10082356 f i libconcrt:ResourceManager.obj
 0001:0008135a       ?IsFixed@SchedulerCore@details@Concurrency@@QAE_NXZ 1008235a f i libconcrt:ResourceManager.obj
 0001:00081366       ?IsHillClimbingEnabled@SchedulerProxy@details@Concurrency@@QAE_NXZ 10082366 f i libconcrt:ResourceManager.obj
 0001:0008136d       ?IsIdle@SchedulerCore@details@Concurrency@@QAE_NXZ 1008236d f i libconcrt:ResourceManager.obj
 0001:00081371       ?MinHWThreads@SchedulerProxy@details@Concurrency@@QBEIXZ 10082371 f i libconcrt:ResourceManager.obj
 0001:00081385       ?MinVprocHWThreads@SchedulerProxy@details@Concurrency@@QBEIXZ 10082385 f i libconcrt:ResourceManager.obj
 0001:000813a4       ?Next@?$List@VSchedulerProxy@details@Concurrency@@VCount@CollectionTypes@23@@details@Concurrency@@QBEPAVSchedulerProxy@23@PAV423@@Z 100823a4 f i libconcrt:ResourceManager.obj
 0001:000813bf       ?NumberOfBitsSet@details@Concurrency@@YAGK@Z 100823bf f i libconcrt:ResourceManager.obj
